GAS LISTING /tmp/ccvEJZh4.s 			page 1


   1               		.file	"asctime.c"
   2               	__SP_H__ = 0x3e
   3               	__SP_L__ = 0x3d
   4               	__SREG__ = 0x3f
   5               	__RAMPZ__ = 0x3b
   6               	__tmp_reg__ = 0
   7               	__zero_reg__ = 1
   8               		.section	.rodata.str1.1,"aMS",@progbits,1
   9               	.LC0:
  10 0000 3F3F 3F00 		.string	"???"
  11               	.LC1:
  12 0004 3F3F 3F20 		.string	"??? ??? ?? ??:??:?? ????\n"
  12      3F3F 3F20 
  12      3F3F 203F 
  12      3F3A 3F3F 
  12      3A3F 3F20 
  13               	.LC2:
  14 001e 252E 3373 		.string	"%.3s %.3s%3d %2.2d:%2.2d:%2.2d %4d\n"
  14      2025 2E33 
  14      7325 3364 
  14      2025 322E 
  14      3264 3A25 
  15               		.section	.text.asctime_r,"ax",@progbits
  16               	.global	asctime_r
  17               		.type	asctime_r, @function
  18               	asctime_r:
  19 0000 CF93      		push r28
  20 0002 DF93      		push r29
  21               	/* prologue: function */
  22               	/* frame size = 0 */
  23               	/* stack size = 2 */
  24               	.L__stack_usage = 2
  25 0004 FC01      		movw r30,r24
  26 0006 EB01      		movw r28,r22
  27 0008 892B      		or r24,r25
  28 000a 01F4      		brne .L2
  29 000c 86E1      		ldi r24,lo8(22)
  30 000e 90E0      		ldi r25,0
  31 0010 9093 0000 		sts errno+1,r25
  32 0014 8093 0000 		sts errno,r24
  33 0018 2097      		sbiw r28,0
  34 001a 01F4      		brne .+2
  35 001c 00C0      		rjmp .L7
  36 001e 60E0      		ldi r22,lo8(.LC1)
  37 0020 70E0      		ldi r23,hi8(.LC1)
  38 0022 CE01      		movw r24,r28
  39 0024 0E94 0000 		call strcpy
  40 0028 00C0      		rjmp .L10
  41               	.L2:
  42 002a 8485      		ldd r24,Z+12
  43 002c 9585      		ldd r25,Z+13
  44 002e 8730      		cpi r24,7
  45 0030 9105      		cpc r25,__zero_reg__
  46 0032 00F4      		brsh .L8
  47 0034 9C01      		movw r18,r24
  48 0036 220F      		lsl r18
  49 0038 331F      		rol r19
GAS LISTING /tmp/ccvEJZh4.s 			page 2


  50 003a 820F      		add r24,r18
  51 003c 931F      		adc r25,r19
  52 003e 8050      		subi r24,lo8(-(wday_name.2429))
  53 0040 9040      		sbci r25,hi8(-(wday_name.2429))
  54 0042 00C0      		rjmp .L4
  55               	.L8:
  56 0044 80E0      		ldi r24,lo8(.LC0)
  57 0046 90E0      		ldi r25,hi8(.LC0)
  58               	.L4:
  59 0048 2085      		ldd r18,Z+8
  60 004a 3185      		ldd r19,Z+9
  61 004c 2C30      		cpi r18,12
  62 004e 3105      		cpc r19,__zero_reg__
  63 0050 00F4      		brsh .L9
  64 0052 A901      		movw r20,r18
  65 0054 440F      		lsl r20
  66 0056 551F      		rol r21
  67 0058 240F      		add r18,r20
  68 005a 351F      		adc r19,r21
  69 005c 2050      		subi r18,lo8(-(mon_name.2430))
  70 005e 3040      		sbci r19,hi8(-(mon_name.2430))
  71 0060 00C0      		rjmp .L5
  72               	.L9:
  73 0062 20E0      		ldi r18,lo8(.LC0)
  74 0064 30E0      		ldi r19,hi8(.LC0)
  75               	.L5:
  76 0066 2097      		sbiw r28,0
  77 0068 01F0      		breq .L6
  78 006a 4285      		ldd r20,Z+10
  79 006c 5385      		ldd r21,Z+11
  80 006e 4459      		subi r20,-108
  81 0070 584F      		sbci r21,-8
  82 0072 5F93      		push r21
  83 0074 4F93      		push r20
  84 0076 4181      		ldd r20,Z+1
  85 0078 4F93      		push r20
  86 007a 4081      		ld r20,Z
  87 007c 4F93      		push r20
  88 007e 4381      		ldd r20,Z+3
  89 0080 4F93      		push r20
  90 0082 4281      		ldd r20,Z+2
  91 0084 4F93      		push r20
  92 0086 4581      		ldd r20,Z+5
  93 0088 4F93      		push r20
  94 008a 4481      		ldd r20,Z+4
  95 008c 4F93      		push r20
  96 008e 4781      		ldd r20,Z+7
  97 0090 4F93      		push r20
  98 0092 4681      		ldd r20,Z+6
  99 0094 4F93      		push r20
 100 0096 3F93      		push r19
 101 0098 2F93      		push r18
 102 009a 9F93      		push r25
 103 009c 8F93      		push r24
 104 009e 80E0      		ldi r24,lo8(.LC2)
 105 00a0 90E0      		ldi r25,hi8(.LC2)
 106 00a2 9F93      		push r25
GAS LISTING /tmp/ccvEJZh4.s 			page 3


 107 00a4 8F93      		push r24
 108 00a6 DF93      		push r29
 109 00a8 CF93      		push r28
 110 00aa 0E94 0000 		call sprintf
 111 00ae 8DB7      		in r24,__SP_L__
 112 00b0 9EB7      		in r25,__SP_H__
 113 00b2 4296      		adiw r24,18
 114 00b4 0FB6      		in __tmp_reg__,__SREG__
 115 00b6 F894      		cli
 116 00b8 9EBF      		out __SP_H__,r25
 117 00ba 0FBE      		out __SREG__,__tmp_reg__
 118 00bc 8DBF      		out __SP_L__,r24
 119               	.L10:
 120 00be CE01      		movw r24,r28
 121 00c0 00C0      		rjmp .L3
 122               	.L6:
 123 00c2 86E1      		ldi r24,lo8(22)
 124 00c4 90E0      		ldi r25,0
 125 00c6 9093 0000 		sts errno+1,r25
 126 00ca 8093 0000 		sts errno,r24
 127               	.L7:
 128 00ce 80E0      		ldi r24,0
 129 00d0 90E0      		ldi r25,0
 130               	.L3:
 131               	/* epilogue start */
 132 00d2 DF91      		pop r29
 133 00d4 CF91      		pop r28
 134 00d6 0895      		ret
 135               		.size	asctime_r, .-asctime_r
 136               		.section	.text.asctime,"ax",@progbits
 137               	.global	asctime
 138               		.type	asctime, @function
 139               	asctime:
 140               	/* prologue: function */
 141               	/* frame size = 0 */
 142               	/* stack size = 0 */
 143               	.L__stack_usage = 0
 144 0000 60E0      		ldi r22,lo8(buf_asctime)
 145 0002 70E0      		ldi r23,hi8(buf_asctime)
 146 0004 0C94 0000 		jmp asctime_r
 147               		.size	asctime, .-asctime
 148               		.section	.text.ctime,"ax",@progbits
 149               	.global	ctime
 150               		.type	ctime, @function
 151               	ctime:
 152               	/* prologue: function */
 153               	/* frame size = 0 */
 154               	/* stack size = 0 */
 155               	.L__stack_usage = 0
 156 0000 0E94 0000 		call localtime
 157 0004 0C94 0000 		jmp asctime
 158               		.size	ctime, .-ctime
 159               		.section	.text.ctime_r,"ax",@progbits
 160               	.global	ctime_r
 161               		.type	ctime_r, @function
 162               	ctime_r:
 163 0000 0F93      		push r16
GAS LISTING /tmp/ccvEJZh4.s 			page 4


 164 0002 1F93      		push r17
 165 0004 CF93      		push r28
 166 0006 DF93      		push r29
 167 0008 CDB7      		in r28,__SP_L__
 168 000a DEB7      		in r29,__SP_H__
 169 000c 6297      		sbiw r28,18
 170 000e 0FB6      		in __tmp_reg__,__SREG__
 171 0010 F894      		cli
 172 0012 DEBF      		out __SP_H__,r29
 173 0014 0FBE      		out __SREG__,__tmp_reg__
 174 0016 CDBF      		out __SP_L__,r28
 175               	/* prologue: function */
 176               	/* frame size = 18 */
 177               	/* stack size = 22 */
 178               	.L__stack_usage = 22
 179 0018 8B01      		movw r16,r22
 180 001a BE01      		movw r22,r28
 181 001c 6F5F      		subi r22,-1
 182 001e 7F4F      		sbci r23,-1
 183 0020 0E94 0000 		call localtime_r
 184 0024 B801      		movw r22,r16
 185 0026 CE01      		movw r24,r28
 186 0028 0196      		adiw r24,1
 187 002a 0E94 0000 		call asctime_r
 188               	/* epilogue start */
 189 002e 6296      		adiw r28,18
 190 0030 0FB6      		in __tmp_reg__,__SREG__
 191 0032 F894      		cli
 192 0034 DEBF      		out __SP_H__,r29
 193 0036 0FBE      		out __SREG__,__tmp_reg__
 194 0038 CDBF      		out __SP_L__,r28
 195 003a DF91      		pop r29
 196 003c CF91      		pop r28
 197 003e 1F91      		pop r17
 198 0040 0F91      		pop r16
 199 0042 0895      		ret
 200               		.size	ctime_r, .-ctime_r
 201               		.section	.rodata
 202               		.type	mon_name.2430, @object
 203               		.size	mon_name.2430, 36
 204               	mon_name.2430:
 205 0000 4A61 6E   		.ascii	"Jan"
 206 0003 4665 62   		.ascii	"Feb"
 207 0006 4D61 72   		.ascii	"Mar"
 208 0009 4170 72   		.ascii	"Apr"
 209 000c 4D61 79   		.ascii	"May"
 210 000f 4A75 6E   		.ascii	"Jun"
 211 0012 4A75 6C   		.ascii	"Jul"
 212 0015 4175 67   		.ascii	"Aug"
 213 0018 5365 70   		.ascii	"Sep"
 214 001b 4F63 74   		.ascii	"Oct"
 215 001e 4E6F 76   		.ascii	"Nov"
 216 0021 4465 63   		.ascii	"Dec"
 217               		.type	wday_name.2429, @object
 218               		.size	wday_name.2429, 21
 219               	wday_name.2429:
 220 0024 5375 6E   		.ascii	"Sun"
GAS LISTING /tmp/ccvEJZh4.s 			page 5


 221 0027 4D6F 6E   		.ascii	"Mon"
 222 002a 5475 65   		.ascii	"Tue"
 223 002d 5765 64   		.ascii	"Wed"
 224 0030 5468 75   		.ascii	"Thu"
 225 0033 4672 69   		.ascii	"Fri"
 226 0036 5361 74   		.ascii	"Sat"
 227               		.local	buf_asctime
 228               		.comm	buf_asctime,26,1
 229               		.ident	"GCC: (GNU) 5.3.0"
 230               	.global __do_copy_data
 231               	.global __do_clear_bss
GAS LISTING /tmp/ccvEJZh4.s 			page 6


DEFINED SYMBOLS
                            *ABS*:0000000000000000 asctime.c
     /tmp/ccvEJZh4.s:2      *ABS*:000000000000003e __SP_H__
     /tmp/ccvEJZh4.s:3      *ABS*:000000000000003d __SP_L__
     /tmp/ccvEJZh4.s:4      *ABS*:000000000000003f __SREG__
     /tmp/ccvEJZh4.s:5      *ABS*:000000000000003b __RAMPZ__
     /tmp/ccvEJZh4.s:6      *ABS*:0000000000000000 __tmp_reg__
     /tmp/ccvEJZh4.s:7      *ABS*:0000000000000001 __zero_reg__
     /tmp/ccvEJZh4.s:18     .text.asctime_r:0000000000000000 asctime_r
     /tmp/ccvEJZh4.s:219    .rodata:0000000000000024 wday_name.2429
     /tmp/ccvEJZh4.s:204    .rodata:0000000000000000 mon_name.2430
     /tmp/ccvEJZh4.s:139    .text.asctime:0000000000000000 asctime
                             .bss:0000000000000000 buf_asctime
     /tmp/ccvEJZh4.s:151    .text.ctime:0000000000000000 ctime
     /tmp/ccvEJZh4.s:162    .text.ctime_r:0000000000000000 ctime_r

UNDEFINED SYMBOLS
errno
strcpy
sprintf
localtime
localtime_r
__do_copy_data
__do_clear_bss
