GAS LISTING /tmp/cczLw37O.s 			page 1


   1               		.file	"jtag_tap.c"
   2               	__SP_H__ = 0x3e
   3               	__SP_L__ = 0x3d
   4               	__SREG__ = 0x3f
   5               	__RAMPZ__ = 0x3b
   6               	__tmp_reg__ = 0
   7               	__zero_reg__ = 1
   8               		.section	.text.TapOpen,"ax",@progbits
   9               	.global	TapOpen
  10               		.type	TapOpen, @function
  11               	TapOpen:
  12 0000 0F93      		push r16
  13 0002 1F93      		push r17
  14 0004 CF93      		push r28
  15 0006 DF93      		push r29
  16               	/* prologue: function */
  17               	/* frame size = 0 */
  18               	/* stack size = 4 */
  19               	.L__stack_usage = 4
  20 0008 8C01      		movw r16,r24
  21 000a DC01      		movw r26,r24
  22 000c ED91      		ld r30,X+
  23 000e FC91      		ld r31,X
  24 0010 1995      		eicall
  25 0012 EC01      		movw r28,r24
  26 0014 892B      		or r24,r25
  27 0016 01F0      		breq .L3
  28 0018 66E0      		ldi r22,lo8(6)
  29 001a 70E0      		ldi r23,0
  30 001c 81E0      		ldi r24,lo8(1)
  31 001e 90E0      		ldi r25,0
  32 0020 0E94 0000 		call calloc
  33 0024 20E1      		ldi r18,lo8(16)
  34 0026 FC01      		movw r30,r24
  35 0028 2083      		st Z,r18
  36 002a 1182      		std Z+1,__zero_reg__
  37 002c 1383      		std Z+3,r17
  38 002e 0283      		std Z+2,r16
  39 0030 D583      		std Z+5,r29
  40 0032 C483      		std Z+4,r28
  41 0034 00C0      		rjmp .L2
  42               	.L3:
  43 0036 80E0      		ldi r24,0
  44 0038 90E0      		ldi r25,0
  45               	.L2:
  46               	/* epilogue start */
  47 003a DF91      		pop r29
  48 003c CF91      		pop r28
  49 003e 1F91      		pop r17
  50 0040 0F91      		pop r16
  51 0042 0895      		ret
  52               		.size	TapOpen, .-TapOpen
  53               		.section	.text.TapClose,"ax",@progbits
  54               	.global	TapClose
  55               		.type	TapClose, @function
  56               	TapClose:
  57 0000 CF93      		push r28
GAS LISTING /tmp/cczLw37O.s 			page 2


  58 0002 DF93      		push r29
  59               	/* prologue: function */
  60               	/* frame size = 0 */
  61               	/* stack size = 2 */
  62               	.L__stack_usage = 2
  63 0004 EC01      		movw r28,r24
  64 0006 EA81      		ldd r30,Y+2
  65 0008 FB81      		ldd r31,Y+3
  66 000a 0280      		ldd __tmp_reg__,Z+2
  67 000c F381      		ldd r31,Z+3
  68 000e E02D      		mov r30,__tmp_reg__
  69 0010 8C81      		ldd r24,Y+4
  70 0012 9D81      		ldd r25,Y+5
  71 0014 1995      		eicall
  72 0016 CE01      		movw r24,r28
  73               	/* epilogue start */
  74 0018 DF91      		pop r29
  75 001a CF91      		pop r28
  76 001c 0C94 0000 		jmp free
  77               		.size	TapClose, .-TapClose
  78               		.section	.text.TapTargetReset,"ax",@progbits
  79               	.global	TapTargetReset
  80               		.type	TapTargetReset, @function
  81               	TapTargetReset:
  82 0000 CF92      		push r12
  83 0002 DF92      		push r13
  84 0004 EF92      		push r14
  85 0006 FF92      		push r15
  86 0008 CF93      		push r28
  87 000a DF93      		push r29
  88               	/* prologue: function */
  89               	/* frame size = 0 */
  90               	/* stack size = 6 */
  91               	.L__stack_usage = 6
  92 000c EC01      		movw r28,r24
  93 000e 6A01      		movw r12,r20
  94 0010 7B01      		movw r14,r22
  95 0012 EA81      		ldd r30,Y+2
  96 0014 FB81      		ldd r31,Y+3
  97 0016 0480      		ldd __tmp_reg__,Z+4
  98 0018 F581      		ldd r31,Z+5
  99 001a E02D      		mov r30,__tmp_reg__
 100 001c 61E0      		ldi r22,lo8(1)
 101 001e 8C81      		ldd r24,Y+4
 102 0020 9D81      		ldd r25,Y+5
 103 0022 1995      		eicall
 104 0024 C114      		cp r12,__zero_reg__
 105 0026 D104      		cpc r13,__zero_reg__
 106 0028 E104      		cpc r14,__zero_reg__
 107 002a F104      		cpc r15,__zero_reg__
 108 002c 01F0      		breq .L7
 109 002e C701      		movw r24,r14
 110 0030 B601      		movw r22,r12
 111 0032 0E94 0000 		call NutMicroDelay
 112               	.L7:
 113 0036 EA81      		ldd r30,Y+2
 114 0038 FB81      		ldd r31,Y+3
GAS LISTING /tmp/cczLw37O.s 			page 3


 115 003a 0480      		ldd __tmp_reg__,Z+4
 116 003c F581      		ldd r31,Z+5
 117 003e E02D      		mov r30,__tmp_reg__
 118 0040 60E0      		ldi r22,0
 119 0042 8C81      		ldd r24,Y+4
 120 0044 9D81      		ldd r25,Y+5
 121 0046 1995      		eicall
 122 0048 80E1      		ldi r24,lo8(16)
 123 004a 8883      		st Y,r24
 124               	/* epilogue start */
 125 004c DF91      		pop r29
 126 004e CF91      		pop r28
 127 0050 FF90      		pop r15
 128 0052 EF90      		pop r14
 129 0054 DF90      		pop r13
 130 0056 CF90      		pop r12
 131 0058 0895      		ret
 132               		.size	TapTargetReset, .-TapTargetReset
 133               		.section	.text.TapStateWalk,"ax",@progbits
 134               	.global	TapStateWalk
 135               		.type	TapStateWalk, @function
 136               	TapStateWalk:
 137 0000 0F93      		push r16
 138 0002 1F93      		push r17
 139 0004 CF93      		push r28
 140 0006 DF93      		push r29
 141               	/* prologue: function */
 142               	/* frame size = 0 */
 143               	/* stack size = 4 */
 144               	.L__stack_usage = 4
 145 0008 EC01      		movw r28,r24
 146 000a 8B01      		movw r16,r22
 147 000c 8881      		ld r24,Y
 148 000e 8031      		cpi r24,lo8(16)
 149 0010 01F0      		breq .L12
 150 0012 672B      		or r22,r23
 151 0014 01F4      		brne .L13
 152               	.L12:
 153 0016 EA81      		ldd r30,Y+2
 154 0018 FB81      		ldd r31,Y+3
 155 001a 0680      		ldd __tmp_reg__,Z+6
 156 001c F781      		ldd r31,Z+7
 157 001e E02D      		mov r30,__tmp_reg__
 158 0020 45E0      		ldi r20,lo8(5)
 159 0022 6FE1      		ldi r22,lo8(31)
 160 0024 8C81      		ldd r24,Y+4
 161 0026 9D81      		ldd r25,Y+5
 162 0028 1995      		eicall
 163 002a 1882      		st Y,__zero_reg__
 164               	.L13:
 165 002c 8881      		ld r24,Y
 166 002e D801      		movw r26,r16
 167 0030 90E1      		ldi r25,lo8(16)
 168 0032 899F      		mul r24,r25
 169 0034 A00D      		add r26,r0
 170 0036 B11D      		adc r27,r1
 171 0038 1124      		clr __zero_reg__
GAS LISTING /tmp/cczLw37O.s 			page 4


 172 003a AA0F      		lsl r26
 173 003c BB1F      		rol r27
 174 003e A050      		subi r26,lo8(-(mode_path))
 175 0040 B040      		sbci r27,hi8(-(mode_path))
 176 0042 EA81      		ldd r30,Y+2
 177 0044 FB81      		ldd r31,Y+3
 178 0046 0680      		ldd __tmp_reg__,Z+6
 179 0048 F781      		ldd r31,Z+7
 180 004a E02D      		mov r30,__tmp_reg__
 181 004c 4C91      		ld r20,X
 182 004e 1196      		adiw r26,1
 183 0050 6C91      		ld r22,X
 184 0052 8C81      		ldd r24,Y+4
 185 0054 9D81      		ldd r25,Y+5
 186 0056 1995      		eicall
 187 0058 0883      		st Y,r16
 188               	/* epilogue start */
 189 005a DF91      		pop r29
 190 005c CF91      		pop r28
 191 005e 1F91      		pop r17
 192 0060 0F91      		pop r16
 193 0062 0895      		ret
 194               		.size	TapStateWalk, .-TapStateWalk
 195               		.section	.text.TapSetIrSize,"ax",@progbits
 196               	.global	TapSetIrSize
 197               		.type	TapSetIrSize, @function
 198               	TapSetIrSize:
 199               	/* prologue: function */
 200               	/* frame size = 0 */
 201               	/* stack size = 0 */
 202               	.L__stack_usage = 0
 203 0000 FC01      		movw r30,r24
 204 0002 6183      		std Z+1,r22
 205 0004 0895      		ret
 206               		.size	TapSetIrSize, .-TapSetIrSize
 207               		.section	.text.TapData,"ax",@progbits
 208               	.global	TapData
 209               		.type	TapData, @function
 210               	TapData:
 211 0000 6F92      		push r6
 212 0002 7F92      		push r7
 213 0004 8F92      		push r8
 214 0006 9F92      		push r9
 215 0008 AF92      		push r10
 216 000a BF92      		push r11
 217 000c CF92      		push r12
 218 000e DF92      		push r13
 219 0010 EF92      		push r14
 220 0012 FF92      		push r15
 221 0014 0F93      		push r16
 222 0016 1F93      		push r17
 223 0018 CF93      		push r28
 224 001a DF93      		push r29
 225 001c 1F92      		push __zero_reg__
 226 001e 1F92      		push __zero_reg__
 227 0020 CDB7      		in r28,__SP_L__
 228 0022 DEB7      		in r29,__SP_H__
GAS LISTING /tmp/cczLw37O.s 			page 5


 229               	/* prologue: function */
 230               	/* frame size = 2 */
 231               	/* stack size = 16 */
 232               	.L__stack_usage = 16
 233 0024 3C01      		movw r6,r24
 234 0026 6B01      		movw r12,r22
 235 0028 4801      		movw r8,r16
 236 002a 5901      		movw r10,r18
 237 002c 64E0      		ldi r22,lo8(4)
 238 002e 70E0      		ldi r23,0
 239 0030 4983      		std Y+1,r20
 240 0032 5A83      		std Y+2,r21
 241 0034 0E94 0000 		call TapStateWalk
 242 0038 D301      		movw r26,r6
 243 003a 1296      		adiw r26,2
 244 003c ED91      		ld r30,X+
 245 003e FC91      		ld r31,X
 246 0040 1397      		sbiw r26,2+1
 247 0042 0284      		ldd __tmp_reg__,Z+10
 248 0044 F385      		ldd r31,Z+11
 249 0046 E02D      		mov r30,__tmp_reg__
 250 0048 9501      		movw r18,r10
 251 004a 8401      		movw r16,r8
 252 004c 4981      		ldd r20,Y+1
 253 004e 5A81      		ldd r21,Y+2
 254 0050 B601      		movw r22,r12
 255 0052 1496      		adiw r26,4
 256 0054 8D91      		ld r24,X+
 257 0056 9C91      		ld r25,X
 258 0058 1597      		sbiw r26,4+1
 259 005a 1995      		eicall
 260 005c EE20      		tst r14
 261 005e 01F0      		breq .L18
 262 0060 F301      		movw r30,r6
 263 0062 8081      		ld r24,Z
 264 0064 8F5F      		subi r24,lo8(-(1))
 265 0066 8083      		st Z,r24
 266               	.L18:
 267               	/* epilogue start */
 268 0068 0F90      		pop __tmp_reg__
 269 006a 0F90      		pop __tmp_reg__
 270 006c DF91      		pop r29
 271 006e CF91      		pop r28
 272 0070 1F91      		pop r17
 273 0072 0F91      		pop r16
 274 0074 FF90      		pop r15
 275 0076 EF90      		pop r14
 276 0078 DF90      		pop r13
 277 007a CF90      		pop r12
 278 007c BF90      		pop r11
 279 007e AF90      		pop r10
 280 0080 9F90      		pop r9
 281 0082 8F90      		pop r8
 282 0084 7F90      		pop r7
 283 0086 6F90      		pop r6
 284 0088 0895      		ret
 285               		.size	TapData, .-TapData
GAS LISTING /tmp/cczLw37O.s 			page 6


 286               		.section	.text.TapInstruction,"ax",@progbits
 287               	.global	TapInstruction
 288               		.type	TapInstruction, @function
 289               	TapInstruction:
 290 0000 CF92      		push r12
 291 0002 DF92      		push r13
 292 0004 EF92      		push r14
 293 0006 FF92      		push r15
 294 0008 0F93      		push r16
 295 000a 1F93      		push r17
 296 000c CF93      		push r28
 297 000e DF93      		push r29
 298 0010 00D0      		rcall .
 299 0012 1F92      		push __zero_reg__
 300 0014 CDB7      		in r28,__SP_L__
 301 0016 DEB7      		in r29,__SP_H__
 302               	/* prologue: function */
 303               	/* frame size = 4 */
 304               	/* stack size = 12 */
 305               	.L__stack_usage = 12
 306 0018 6C01      		movw r12,r24
 307 001a 4983      		std Y+1,r20
 308 001c 5A83      		std Y+2,r21
 309 001e 6B83      		std Y+3,r22
 310 0020 7C83      		std Y+4,r23
 311 0022 F22E      		mov r15,r18
 312 0024 6BE0      		ldi r22,lo8(11)
 313 0026 70E0      		ldi r23,0
 314 0028 0E94 0000 		call TapStateWalk
 315 002c D601      		movw r26,r12
 316 002e 1196      		adiw r26,1
 317 0030 0C91      		ld r16,X
 318 0032 1197      		sbiw r26,1
 319 0034 10E0      		ldi r17,0
 320 0036 20E0      		ldi r18,0
 321 0038 30E0      		ldi r19,0
 322 003a 1296      		adiw r26,2
 323 003c ED91      		ld r30,X+
 324 003e FC91      		ld r31,X
 325 0040 1397      		sbiw r26,2+1
 326 0042 0284      		ldd __tmp_reg__,Z+10
 327 0044 F385      		ldd r31,Z+11
 328 0046 E02D      		mov r30,__tmp_reg__
 329 0048 EF2C      		mov r14,r15
 330 004a AE01      		movw r20,r28
 331 004c 4F5F      		subi r20,-1
 332 004e 5F4F      		sbci r21,-1
 333 0050 60E0      		ldi r22,0
 334 0052 70E0      		ldi r23,0
 335 0054 1496      		adiw r26,4
 336 0056 8D91      		ld r24,X+
 337 0058 9C91      		ld r25,X
 338 005a 1597      		sbiw r26,4+1
 339 005c 1995      		eicall
 340 005e FF20      		tst r15
 341 0060 01F0      		breq .L23
 342 0062 F601      		movw r30,r12
GAS LISTING /tmp/cczLw37O.s 			page 7


 343 0064 8081      		ld r24,Z
 344 0066 8F5F      		subi r24,lo8(-(1))
 345 0068 8083      		st Z,r24
 346               	.L23:
 347               	/* epilogue start */
 348 006a 0F90      		pop __tmp_reg__
 349 006c 0F90      		pop __tmp_reg__
 350 006e 0F90      		pop __tmp_reg__
 351 0070 0F90      		pop __tmp_reg__
 352 0072 DF91      		pop r29
 353 0074 CF91      		pop r28
 354 0076 1F91      		pop r17
 355 0078 0F91      		pop r16
 356 007a FF90      		pop r15
 357 007c EF90      		pop r14
 358 007e DF90      		pop r13
 359 0080 CF90      		pop r12
 360 0082 0895      		ret
 361               		.size	TapInstruction, .-TapInstruction
 362               		.section	.rodata
 363               		.type	mode_path, @object
 364               		.size	mode_path, 512
 365               	mode_path:
 366 0000 00        		.byte	0
 367 0001 00        		.byte	0
 368 0002 01        		.byte	1
 369 0003 00        		.byte	0
 370 0004 02        		.byte	2
 371 0005 02        		.byte	2
 372 0006 03        		.byte	3
 373 0007 02        		.byte	2
 374 0008 04        		.byte	4
 375 0009 02        		.byte	2
 376 000a 04        		.byte	4
 377 000b 0A        		.byte	10
 378 000c 05        		.byte	5
 379 000d 0A        		.byte	10
 380 000e 06        		.byte	6
 381 000f 2A        		.byte	42
 382 0010 05        		.byte	5
 383 0011 1A        		.byte	26
 384 0012 03        		.byte	3
 385 0013 06        		.byte	6
 386 0014 04        		.byte	4
 387 0015 06        		.byte	6
 388 0016 05        		.byte	5
 389 0017 06        		.byte	6
 390 0018 05        		.byte	5
 391 0019 16        		.byte	22
 392 001a 06        		.byte	6
 393 001b 16        		.byte	22
 394 001c 07        		.byte	7
 395 001d 56        		.byte	86
 396 001e 06        		.byte	6
 397 001f 36        		.byte	54
 398 0020 03        		.byte	3
 399 0021 07        		.byte	7
GAS LISTING /tmp/cczLw37O.s 			page 8


 400 0022 00        		.byte	0
 401 0023 00        		.byte	0
 402 0024 01        		.byte	1
 403 0025 01        		.byte	1
 404 0026 02        		.byte	2
 405 0027 01        		.byte	1
 406 0028 03        		.byte	3
 407 0029 01        		.byte	1
 408 002a 03        		.byte	3
 409 002b 05        		.byte	5
 410 002c 04        		.byte	4
 411 002d 05        		.byte	5
 412 002e 05        		.byte	5
 413 002f 15        		.byte	21
 414 0030 04        		.byte	4
 415 0031 0D        		.byte	13
 416 0032 02        		.byte	2
 417 0033 03        		.byte	3
 418 0034 03        		.byte	3
 419 0035 03        		.byte	3
 420 0036 04        		.byte	4
 421 0037 03        		.byte	3
 422 0038 04        		.byte	4
 423 0039 0B        		.byte	11
 424 003a 05        		.byte	5
 425 003b 0B        		.byte	11
 426 003c 06        		.byte	6
 427 003d 2B        		.byte	43
 428 003e 05        		.byte	5
 429 003f 1B        		.byte	27
 430 0040 02        		.byte	2
 431 0041 03        		.byte	3
 432 0042 03        		.byte	3
 433 0043 03        		.byte	3
 434 0044 00        		.byte	0
 435 0045 00        		.byte	0
 436 0046 01        		.byte	1
 437 0047 00        		.byte	0
 438 0048 02        		.byte	2
 439 0049 00        		.byte	0
 440 004a 02        		.byte	2
 441 004b 02        		.byte	2
 442 004c 03        		.byte	3
 443 004d 02        		.byte	2
 444 004e 04        		.byte	4
 445 004f 0A        		.byte	10
 446 0050 03        		.byte	3
 447 0051 06        		.byte	6
 448 0052 01        		.byte	1
 449 0053 01        		.byte	1
 450 0054 02        		.byte	2
 451 0055 01        		.byte	1
 452 0056 03        		.byte	3
 453 0057 01        		.byte	1
 454 0058 03        		.byte	3
 455 0059 05        		.byte	5
 456 005a 04        		.byte	4
GAS LISTING /tmp/cczLw37O.s 			page 9


 457 005b 05        		.byte	5
 458 005c 05        		.byte	5
 459 005d 15        		.byte	21
 460 005e 04        		.byte	4
 461 005f 0D        		.byte	13
 462 0060 05        		.byte	5
 463 0061 1F        		.byte	31
 464 0062 03        		.byte	3
 465 0063 03        		.byte	3
 466 0064 03        		.byte	3
 467 0065 07        		.byte	7
 468 0066 00        		.byte	0
 469 0067 00        		.byte	0
 470 0068 01        		.byte	1
 471 0069 00        		.byte	0
 472 006a 01        		.byte	1
 473 006b 01        		.byte	1
 474 006c 02        		.byte	2
 475 006d 01        		.byte	1
 476 006e 03        		.byte	3
 477 006f 05        		.byte	5
 478 0070 02        		.byte	2
 479 0071 03        		.byte	3
 480 0072 04        		.byte	4
 481 0073 0F        		.byte	15
 482 0074 05        		.byte	5
 483 0075 0F        		.byte	15
 484 0076 06        		.byte	6
 485 0077 0F        		.byte	15
 486 0078 06        		.byte	6
 487 0079 2F        		.byte	47
 488 007a 07        		.byte	7
 489 007b 2F        		.byte	47
 490 007c 08        		.byte	8
 491 007d AF        		.byte	-81
 492 007e 07        		.byte	7
 493 007f 6F        		.byte	111
 494 0080 05        		.byte	5
 495 0081 1F        		.byte	31
 496 0082 03        		.byte	3
 497 0083 03        		.byte	3
 498 0084 03        		.byte	3
 499 0085 07        		.byte	7
 500 0086 04        		.byte	4
 501 0087 07        		.byte	7
 502 0088 00        		.byte	0
 503 0089 00        		.byte	0
 504 008a 01        		.byte	1
 505 008b 01        		.byte	1
 506 008c 02        		.byte	2
 507 008d 01        		.byte	1
 508 008e 03        		.byte	3
 509 008f 05        		.byte	5
 510 0090 02        		.byte	2
 511 0091 03        		.byte	3
 512 0092 04        		.byte	4
 513 0093 0F        		.byte	15
GAS LISTING /tmp/cczLw37O.s 			page 10


 514 0094 05        		.byte	5
 515 0095 0F        		.byte	15
 516 0096 06        		.byte	6
 517 0097 0F        		.byte	15
 518 0098 06        		.byte	6
 519 0099 2F        		.byte	47
 520 009a 07        		.byte	7
 521 009b 2F        		.byte	47
 522 009c 08        		.byte	8
 523 009d AF        		.byte	-81
 524 009e 07        		.byte	7
 525 009f 6F        		.byte	111
 526 00a0 04        		.byte	4
 527 00a1 0F        		.byte	15
 528 00a2 02        		.byte	2
 529 00a3 01        		.byte	1
 530 00a4 02        		.byte	2
 531 00a5 03        		.byte	3
 532 00a6 03        		.byte	3
 533 00a7 03        		.byte	3
 534 00a8 04        		.byte	4
 535 00a9 03        		.byte	3
 536 00aa 00        		.byte	0
 537 00ab 00        		.byte	0
 538 00ac 01        		.byte	1
 539 00ad 00        		.byte	0
 540 00ae 02        		.byte	2
 541 00af 02        		.byte	2
 542 00b0 01        		.byte	1
 543 00b1 01        		.byte	1
 544 00b2 03        		.byte	3
 545 00b3 07        		.byte	7
 546 00b4 04        		.byte	4
 547 00b5 07        		.byte	7
 548 00b6 05        		.byte	5
 549 00b7 07        		.byte	7
 550 00b8 05        		.byte	5
 551 00b9 17        		.byte	23
 552 00ba 06        		.byte	6
 553 00bb 17        		.byte	23
 554 00bc 07        		.byte	7
 555 00bd 57        		.byte	87
 556 00be 06        		.byte	6
 557 00bf 37        		.byte	55
 558 00c0 05        		.byte	5
 559 00c1 1F        		.byte	31
 560 00c2 03        		.byte	3
 561 00c3 03        		.byte	3
 562 00c4 03        		.byte	3
 563 00c5 07        		.byte	7
 564 00c6 04        		.byte	4
 565 00c7 07        		.byte	7
 566 00c8 02        		.byte	2
 567 00c9 01        		.byte	1
 568 00ca 03        		.byte	3
 569 00cb 05        		.byte	5
 570 00cc 00        		.byte	0
GAS LISTING /tmp/cczLw37O.s 			page 11


 571 00cd 00        		.byte	0
 572 00ce 01        		.byte	1
 573 00cf 01        		.byte	1
 574 00d0 02        		.byte	2
 575 00d1 03        		.byte	3
 576 00d2 04        		.byte	4
 577 00d3 0F        		.byte	15
 578 00d4 05        		.byte	5
 579 00d5 0F        		.byte	15
 580 00d6 06        		.byte	6
 581 00d7 0F        		.byte	15
 582 00d8 06        		.byte	6
 583 00d9 2F        		.byte	47
 584 00da 07        		.byte	7
 585 00db 2F        		.byte	47
 586 00dc 08        		.byte	8
 587 00dd AF        		.byte	-81
 588 00de 07        		.byte	7
 589 00df 6F        		.byte	111
 590 00e0 04        		.byte	4
 591 00e1 0F        		.byte	15
 592 00e2 02        		.byte	2
 593 00e3 01        		.byte	1
 594 00e4 02        		.byte	2
 595 00e5 03        		.byte	3
 596 00e6 03        		.byte	3
 597 00e7 03        		.byte	3
 598 00e8 01        		.byte	1
 599 00e9 00        		.byte	0
 600 00ea 02        		.byte	2
 601 00eb 02        		.byte	2
 602 00ec 03        		.byte	3
 603 00ed 02        		.byte	2
 604 00ee 00        		.byte	0
 605 00ef 00        		.byte	0
 606 00f0 01        		.byte	1
 607 00f1 01        		.byte	1
 608 00f2 03        		.byte	3
 609 00f3 07        		.byte	7
 610 00f4 04        		.byte	4
 611 00f5 07        		.byte	7
 612 00f6 05        		.byte	5
 613 00f7 07        		.byte	7
 614 00f8 05        		.byte	5
 615 00f9 17        		.byte	23
 616 00fa 06        		.byte	6
 617 00fb 17        		.byte	23
 618 00fc 07        		.byte	7
 619 00fd 57        		.byte	87
 620 00fe 06        		.byte	6
 621 00ff 37        		.byte	55
 622 0100 03        		.byte	3
 623 0101 07        		.byte	7
 624 0102 01        		.byte	1
 625 0103 00        		.byte	0
 626 0104 01        		.byte	1
 627 0105 01        		.byte	1
GAS LISTING /tmp/cczLw37O.s 			page 12


 628 0106 02        		.byte	2
 629 0107 01        		.byte	1
 630 0108 03        		.byte	3
 631 0109 01        		.byte	1
 632 010a 03        		.byte	3
 633 010b 05        		.byte	5
 634 010c 04        		.byte	4
 635 010d 05        		.byte	5
 636 010e 05        		.byte	5
 637 010f 15        		.byte	21
 638 0110 00        		.byte	0
 639 0111 00        		.byte	0
 640 0112 02        		.byte	2
 641 0113 03        		.byte	3
 642 0114 03        		.byte	3
 643 0115 03        		.byte	3
 644 0116 04        		.byte	4
 645 0117 03        		.byte	3
 646 0118 04        		.byte	4
 647 0119 0B        		.byte	11
 648 011a 05        		.byte	5
 649 011b 0B        		.byte	11
 650 011c 06        		.byte	6
 651 011d 2B        		.byte	43
 652 011e 05        		.byte	5
 653 011f 1B        		.byte	27
 654 0120 01        		.byte	1
 655 0121 01        		.byte	1
 656 0122 02        		.byte	2
 657 0123 01        		.byte	1
 658 0124 03        		.byte	3
 659 0125 05        		.byte	5
 660 0126 04        		.byte	4
 661 0127 05        		.byte	5
 662 0128 05        		.byte	5
 663 0129 05        		.byte	5
 664 012a 05        		.byte	5
 665 012b 15        		.byte	21
 666 012c 06        		.byte	6
 667 012d 15        		.byte	21
 668 012e 07        		.byte	7
 669 012f 55        		.byte	85
 670 0130 06        		.byte	6
 671 0131 35        		.byte	53
 672 0132 00        		.byte	0
 673 0133 00        		.byte	0
 674 0134 01        		.byte	1
 675 0135 00        		.byte	0
 676 0136 02        		.byte	2
 677 0137 00        		.byte	0
 678 0138 02        		.byte	2
 679 0139 02        		.byte	2
 680 013a 03        		.byte	3
 681 013b 02        		.byte	2
 682 013c 04        		.byte	4
 683 013d 0A        		.byte	10
 684 013e 03        		.byte	3
GAS LISTING /tmp/cczLw37O.s 			page 13


 685 013f 06        		.byte	6
 686 0140 05        		.byte	5
 687 0141 1F        		.byte	31
 688 0142 03        		.byte	3
 689 0143 03        		.byte	3
 690 0144 03        		.byte	3
 691 0145 07        		.byte	7
 692 0146 04        		.byte	4
 693 0147 07        		.byte	7
 694 0148 05        		.byte	5
 695 0149 07        		.byte	7
 696 014a 05        		.byte	5
 697 014b 17        		.byte	23
 698 014c 06        		.byte	6
 699 014d 17        		.byte	23
 700 014e 07        		.byte	7
 701 014f 57        		.byte	87
 702 0150 06        		.byte	6
 703 0151 37        		.byte	55
 704 0152 04        		.byte	4
 705 0153 0F        		.byte	15
 706 0154 00        		.byte	0
 707 0155 00        		.byte	0
 708 0156 01        		.byte	1
 709 0157 00        		.byte	0
 710 0158 01        		.byte	1
 711 0159 01        		.byte	1
 712 015a 02        		.byte	2
 713 015b 01        		.byte	1
 714 015c 03        		.byte	3
 715 015d 05        		.byte	5
 716 015e 02        		.byte	2
 717 015f 03        		.byte	3
 718 0160 05        		.byte	5
 719 0161 1F        		.byte	31
 720 0162 03        		.byte	3
 721 0163 03        		.byte	3
 722 0164 03        		.byte	3
 723 0165 07        		.byte	7
 724 0166 04        		.byte	4
 725 0167 07        		.byte	7
 726 0168 05        		.byte	5
 727 0169 07        		.byte	7
 728 016a 05        		.byte	5
 729 016b 17        		.byte	23
 730 016c 06        		.byte	6
 731 016d 17        		.byte	23
 732 016e 07        		.byte	7
 733 016f 57        		.byte	87
 734 0170 06        		.byte	6
 735 0171 37        		.byte	55
 736 0172 04        		.byte	4
 737 0173 0F        		.byte	15
 738 0174 05        		.byte	5
 739 0175 0F        		.byte	15
 740 0176 00        		.byte	0
 741 0177 00        		.byte	0
GAS LISTING /tmp/cczLw37O.s 			page 14


 742 0178 01        		.byte	1
 743 0179 01        		.byte	1
 744 017a 02        		.byte	2
 745 017b 01        		.byte	1
 746 017c 03        		.byte	3
 747 017d 05        		.byte	5
 748 017e 02        		.byte	2
 749 017f 03        		.byte	3
 750 0180 04        		.byte	4
 751 0181 0F        		.byte	15
 752 0182 02        		.byte	2
 753 0183 01        		.byte	1
 754 0184 02        		.byte	2
 755 0185 03        		.byte	3
 756 0186 03        		.byte	3
 757 0187 03        		.byte	3
 758 0188 04        		.byte	4
 759 0189 03        		.byte	3
 760 018a 04        		.byte	4
 761 018b 0B        		.byte	11
 762 018c 05        		.byte	5
 763 018d 0B        		.byte	11
 764 018e 06        		.byte	6
 765 018f 2B        		.byte	43
 766 0190 05        		.byte	5
 767 0191 1B        		.byte	27
 768 0192 03        		.byte	3
 769 0193 07        		.byte	7
 770 0194 04        		.byte	4
 771 0195 07        		.byte	7
 772 0196 05        		.byte	5
 773 0197 07        		.byte	7
 774 0198 00        		.byte	0
 775 0199 00        		.byte	0
 776 019a 01        		.byte	1
 777 019b 00        		.byte	0
 778 019c 02        		.byte	2
 779 019d 02        		.byte	2
 780 019e 01        		.byte	1
 781 019f 01        		.byte	1
 782 01a0 05        		.byte	5
 783 01a1 1F        		.byte	31
 784 01a2 03        		.byte	3
 785 01a3 03        		.byte	3
 786 01a4 03        		.byte	3
 787 01a5 07        		.byte	7
 788 01a6 04        		.byte	4
 789 01a7 07        		.byte	7
 790 01a8 05        		.byte	5
 791 01a9 07        		.byte	7
 792 01aa 05        		.byte	5
 793 01ab 17        		.byte	23
 794 01ac 06        		.byte	6
 795 01ad 17        		.byte	23
 796 01ae 07        		.byte	7
 797 01af 57        		.byte	87
 798 01b0 06        		.byte	6
GAS LISTING /tmp/cczLw37O.s 			page 15


 799 01b1 37        		.byte	55
 800 01b2 04        		.byte	4
 801 01b3 0F        		.byte	15
 802 01b4 05        		.byte	5
 803 01b5 0F        		.byte	15
 804 01b6 02        		.byte	2
 805 01b7 01        		.byte	1
 806 01b8 03        		.byte	3
 807 01b9 05        		.byte	5
 808 01ba 00        		.byte	0
 809 01bb 00        		.byte	0
 810 01bc 01        		.byte	1
 811 01bd 01        		.byte	1
 812 01be 02        		.byte	2
 813 01bf 03        		.byte	3
 814 01c0 04        		.byte	4
 815 01c1 0F        		.byte	15
 816 01c2 02        		.byte	2
 817 01c3 01        		.byte	1
 818 01c4 02        		.byte	2
 819 01c5 03        		.byte	3
 820 01c6 03        		.byte	3
 821 01c7 03        		.byte	3
 822 01c8 04        		.byte	4
 823 01c9 03        		.byte	3
 824 01ca 04        		.byte	4
 825 01cb 0B        		.byte	11
 826 01cc 05        		.byte	5
 827 01cd 0B        		.byte	11
 828 01ce 06        		.byte	6
 829 01cf 2B        		.byte	43
 830 01d0 05        		.byte	5
 831 01d1 1B        		.byte	27
 832 01d2 03        		.byte	3
 833 01d3 07        		.byte	7
 834 01d4 04        		.byte	4
 835 01d5 07        		.byte	7
 836 01d6 01        		.byte	1
 837 01d7 00        		.byte	0
 838 01d8 02        		.byte	2
 839 01d9 02        		.byte	2
 840 01da 03        		.byte	3
 841 01db 02        		.byte	2
 842 01dc 00        		.byte	0
 843 01dd 00        		.byte	0
 844 01de 01        		.byte	1
 845 01df 01        		.byte	1
 846 01e0 03        		.byte	3
 847 01e1 07        		.byte	7
 848 01e2 01        		.byte	1
 849 01e3 00        		.byte	0
 850 01e4 01        		.byte	1
 851 01e5 01        		.byte	1
 852 01e6 02        		.byte	2
 853 01e7 01        		.byte	1
 854 01e8 03        		.byte	3
 855 01e9 01        		.byte	1
GAS LISTING /tmp/cczLw37O.s 			page 16


 856 01ea 03        		.byte	3
 857 01eb 05        		.byte	5
 858 01ec 04        		.byte	4
 859 01ed 05        		.byte	5
 860 01ee 05        		.byte	5
 861 01ef 15        		.byte	21
 862 01f0 04        		.byte	4
 863 01f1 0D        		.byte	13
 864 01f2 02        		.byte	2
 865 01f3 03        		.byte	3
 866 01f4 03        		.byte	3
 867 01f5 03        		.byte	3
 868 01f6 04        		.byte	4
 869 01f7 03        		.byte	3
 870 01f8 04        		.byte	4
 871 01f9 0B        		.byte	11
 872 01fa 05        		.byte	5
 873 01fb 0B        		.byte	11
 874 01fc 06        		.byte	6
 875 01fd 2B        		.byte	43
 876 01fe 00        		.byte	0
 877 01ff 00        		.byte	0
 878               		.ident	"GCC: (GNU) 5.3.0"
 879               	.global __do_copy_data
GAS LISTING /tmp/cczLw37O.s 			page 17


DEFINED SYMBOLS
                            *ABS*:0000000000000000 jtag_tap.c
     /tmp/cczLw37O.s:2      *ABS*:000000000000003e __SP_H__
     /tmp/cczLw37O.s:3      *ABS*:000000000000003d __SP_L__
     /tmp/cczLw37O.s:4      *ABS*:000000000000003f __SREG__
     /tmp/cczLw37O.s:5      *ABS*:000000000000003b __RAMPZ__
     /tmp/cczLw37O.s:6      *ABS*:0000000000000000 __tmp_reg__
     /tmp/cczLw37O.s:7      *ABS*:0000000000000001 __zero_reg__
     /tmp/cczLw37O.s:11     .text.TapOpen:0000000000000000 TapOpen
     /tmp/cczLw37O.s:56     .text.TapClose:0000000000000000 TapClose
     /tmp/cczLw37O.s:81     .text.TapTargetReset:0000000000000000 TapTargetReset
     /tmp/cczLw37O.s:136    .text.TapStateWalk:0000000000000000 TapStateWalk
     /tmp/cczLw37O.s:365    .rodata:0000000000000000 mode_path
     /tmp/cczLw37O.s:198    .text.TapSetIrSize:0000000000000000 TapSetIrSize
     /tmp/cczLw37O.s:210    .text.TapData:0000000000000000 TapData
     /tmp/cczLw37O.s:289    .text.TapInstruction:0000000000000000 TapInstruction

UNDEFINED SYMBOLS
calloc
free
NutMicroDelay
__do_copy_data
