GAS LISTING /tmp/cccNVxlR.s 			page 1


   1               		.file	"jtag_gpio0.c"
   2               	__SP_H__ = 0x3e
   3               	__SP_L__ = 0x3d
   4               	__SREG__ = 0x3f
   5               	__RAMPZ__ = 0x3b
   6               	__tmp_reg__ = 0
   7               	__zero_reg__ = 1
   8               		.section	.text.JtagCable0TmsFlush,"ax",@progbits
   9               		.type	JtagCable0TmsFlush, @function
  10               	JtagCable0TmsFlush:
  11               	/* prologue: function */
  12               	/* frame size = 0 */
  13               	/* stack size = 0 */
  14               	.L__stack_usage = 0
  15 0000 DC01      		movw r26,r24
  16 0002 B395      		inc r27
  17 0004 2D91      		ld r18,X+
  18 0006 3C91      		ld r19,X
  19 0008 1197      		sbiw r26,1
  20 000a FC01      		movw r30,r24
  21 000c EE5F      		subi r30,-2
  22 000e FE4F      		sbci r31,-2
  23 0010 232B      		or r18,r19
  24 0012 01F4      		brne .L2
  25 0014 8081      		ld r24,Z
  26 0016 9181      		ldd r25,Z+1
  27 0018 892B      		or r24,r25
  28 001a 01F0      		breq .L1
  29               	.L2:
  30 001c 8081      		ld r24,Z
  31 001e 9181      		ldd r25,Z+1
  32 0020 892B      		or r24,r25
  33 0022 01F0      		breq .L4
  34 0024 1182      		std Z+1,__zero_reg__
  35 0026 1082      		st Z,__zero_reg__
  36               	.L4:
  37 0028 1D92      		st X+,__zero_reg__
  38 002a 1C92      		st X,__zero_reg__
  39               	.L1:
  40 002c 0895      		ret
  41               		.size	JtagCable0TmsFlush, .-JtagCable0TmsFlush
  42               		.section	.text.JtagCable0TargetReset,"ax",@progbits
  43               		.type	JtagCable0TargetReset, @function
  44               	JtagCable0TargetReset:
  45               	/* prologue: function */
  46               	/* frame size = 0 */
  47               	/* stack size = 0 */
  48               	.L__stack_usage = 0
  49 0000 6111      		cpse r22,__zero_reg__
  50 0002 0C94 0000 		jmp JtagCable0TmsFlush
  51               	.L12:
  52 0006 0895      		ret
  53               		.size	JtagCable0TargetReset, .-JtagCable0TargetReset
  54               		.section	.text.JtagCable0TmsPut,"ax",@progbits
  55               		.type	JtagCable0TmsPut, @function
  56               	JtagCable0TmsPut:
  57 0000 AF92      		push r10
GAS LISTING /tmp/cccNVxlR.s 			page 2


  58 0002 BF92      		push r11
  59 0004 CF92      		push r12
  60 0006 DF92      		push r13
  61 0008 EF92      		push r14
  62 000a FF92      		push r15
  63 000c 0F93      		push r16
  64 000e 1F93      		push r17
  65 0010 CF93      		push r28
  66 0012 DF93      		push r29
  67 0014 1F92      		push __zero_reg__
  68 0016 1F92      		push __zero_reg__
  69 0018 CDB7      		in r28,__SP_L__
  70 001a DEB7      		in r29,__SP_H__
  71               	/* prologue: function */
  72               	/* frame size = 2 */
  73               	/* stack size = 12 */
  74               	.L__stack_usage = 12
  75 001c 5C01      		movw r10,r24
  76 001e 7C01      		movw r14,r24
  77 0020 8EEF      		ldi r24,-2
  78 0022 E81A      		sub r14,r24
  79 0024 F80A      		sbc r15,r24
  80 0026 D701      		movw r26,r14
  81 0028 8D91      		ld r24,X+
  82 002a 9C91      		ld r25,X
  83 002c 8501      		movw r16,r10
  84 002e 1395      		inc r17
  85 0030 CC24      		clr r12
  86 0032 C394      		inc r12
  87 0034 D12C      		mov r13,__zero_reg__
  88               	.L15:
  89 0036 4423      		tst r20
  90 0038 01F0      		breq .L31
  91 003a 0097      		sbiw r24,0
  92 003c 01F0      		breq .L23
  93 003e D801      		movw r26,r16
  94 0040 ED91      		ld r30,X+
  95 0042 FC91      		ld r31,X
  96 0044 EA0D      		add r30,r10
  97 0046 FB1D      		adc r31,r11
  98 0048 5081      		ld r21,Z
  99 004a 00C0      		rjmp .L17
 100               	.L23:
 101 004c 50E0      		ldi r21,0
 102 004e 00C0      		rjmp .L17
 103               	.L20:
 104 0050 60FF      		sbrs r22,0
 105 0052 00C0      		rjmp .L18
 106 0054 9601      		movw r18,r12
 107 0056 082E      		mov r0,r24
 108 0058 00C0      		rjmp 2f
 109               		1:
 110 005a 220F      		lsl r18
 111               		2:
 112 005c 0A94      		dec r0
 113 005e 02F4      		brpl 1b
 114 0060 522B      		or r21,r18
GAS LISTING /tmp/cccNVxlR.s 			page 3


 115               	.L18:
 116 0062 6695      		lsr r22
 117 0064 0196      		adiw r24,1
 118 0066 4150      		subi r20,lo8(-(-1))
 119 0068 01F0      		breq .L19
 120               	.L17:
 121 006a 8830      		cpi r24,8
 122 006c 9105      		cpc r25,__zero_reg__
 123 006e 04F0      		brlt .L20
 124               	.L19:
 125 0070 F801      		movw r30,r16
 126 0072 2081      		ld r18,Z
 127 0074 3181      		ldd r19,Z+1
 128 0076 F501      		movw r30,r10
 129 0078 E20F      		add r30,r18
 130 007a F31F      		adc r31,r19
 131 007c 5083      		st Z,r21
 132 007e 8830      		cpi r24,8
 133 0080 9105      		cpc r25,__zero_reg__
 134 0082 04F0      		brlt .L15
 135 0084 C901      		movw r24,r18
 136 0086 0196      		adiw r24,1
 137 0088 D801      		movw r26,r16
 138 008a 8D93      		st X+,r24
 139 008c 9C93      		st X,r25
 140 008e 8F3F      		cpi r24,-1
 141 0090 9105      		cpc r25,__zero_reg__
 142 0092 01F0      		breq .L24
 143 0094 00F0      		brlo .L24
 144 0096 C501      		movw r24,r10
 145 0098 4A83      		std Y+2,r20
 146 009a 6983      		std Y+1,r22
 147 009c 0E94 0000 		call JtagCable0TmsFlush
 148 00a0 80E0      		ldi r24,0
 149 00a2 90E0      		ldi r25,0
 150 00a4 4A81      		ldd r20,Y+2
 151 00a6 6981      		ldd r22,Y+1
 152 00a8 00C0      		rjmp .L15
 153               	.L24:
 154 00aa 80E0      		ldi r24,0
 155 00ac 90E0      		ldi r25,0
 156 00ae 00C0      		rjmp .L15
 157               	.L31:
 158 00b0 F701      		movw r30,r14
 159 00b2 9183      		std Z+1,r25
 160 00b4 8083      		st Z,r24
 161               	/* epilogue start */
 162 00b6 0F90      		pop __tmp_reg__
 163 00b8 0F90      		pop __tmp_reg__
 164 00ba DF91      		pop r29
 165 00bc CF91      		pop r28
 166 00be 1F91      		pop r17
 167 00c0 0F91      		pop r16
 168 00c2 FF90      		pop r15
 169 00c4 EF90      		pop r14
 170 00c6 DF90      		pop r13
 171 00c8 CF90      		pop r12
GAS LISTING /tmp/cccNVxlR.s 			page 4


 172 00ca BF90      		pop r11
 173 00cc AF90      		pop r10
 174 00ce 0895      		ret
 175               		.size	JtagCable0TmsPut, .-JtagCable0TmsPut
 176               		.section	.text.JtagCable0TransferData,"ax",@progbits
 177               		.type	JtagCable0TransferData, @function
 178               	JtagCable0TransferData:
 179 0000 AF92      		push r10
 180 0002 BF92      		push r11
 181 0004 CF92      		push r12
 182 0006 DF92      		push r13
 183 0008 EF92      		push r14
 184 000a FF92      		push r15
 185 000c 0F93      		push r16
 186 000e 1F93      		push r17
 187 0010 CF93      		push r28
 188 0012 DF93      		push r29
 189 0014 1F92      		push __zero_reg__
 190 0016 1F92      		push __zero_reg__
 191 0018 CDB7      		in r28,__SP_L__
 192 001a DEB7      		in r29,__SP_H__
 193               	/* prologue: function */
 194               	/* frame size = 2 */
 195               	/* stack size = 12 */
 196               	.L__stack_usage = 12
 197 001c 5B01      		movw r10,r22
 198 001e 6801      		movw r12,r16
 199 0020 7901      		movw r14,r18
 200 0022 4983      		std Y+1,r20
 201 0024 5A83      		std Y+2,r21
 202 0026 0E94 0000 		call JtagCable0TmsFlush
 203 002a 4981      		ldd r20,Y+1
 204 002c 5A81      		ldd r21,Y+2
 205               	.L33:
 206 002e C114      		cp r12,__zero_reg__
 207 0030 D104      		cpc r13,__zero_reg__
 208 0032 E104      		cpc r14,__zero_reg__
 209 0034 F104      		cpc r15,__zero_reg__
 210 0036 01F0      		breq .L47
 211 0038 4115      		cp r20,__zero_reg__
 212 003a 5105      		cpc r21,__zero_reg__
 213 003c 01F0      		breq .L39
 214 003e FA01      		movw r30,r20
 215 0040 8081      		ld r24,Z
 216 0042 4F5F      		subi r20,-1
 217 0044 5F4F      		sbci r21,-1
 218 0046 00C0      		rjmp .L34
 219               	.L39:
 220 0048 80E0      		ldi r24,0
 221               	.L34:
 222 004a 28E0      		ldi r18,lo8(8)
 223 004c 30E0      		ldi r19,0
 224 004e 91E0      		ldi r25,lo8(1)
 225               	.L36:
 226 0050 F1E0      		ldi r31,1
 227 0052 CF1A      		sub r12,r31
 228 0054 D108      		sbc r13,__zero_reg__
GAS LISTING /tmp/cccNVxlR.s 			page 5


 229 0056 E108      		sbc r14,__zero_reg__
 230 0058 F108      		sbc r15,__zero_reg__
 231 005a 892B      		or r24,r25
 232 005c 990F      		lsl r25
 233 005e C114      		cp r12,__zero_reg__
 234 0060 D104      		cpc r13,__zero_reg__
 235 0062 E104      		cpc r14,__zero_reg__
 236 0064 F104      		cpc r15,__zero_reg__
 237 0066 01F0      		breq .L35
 238 0068 2150      		subi r18,1
 239 006a 3109      		sbc r19,__zero_reg__
 240 006c 01F4      		brne .L36
 241               	.L35:
 242 006e A114      		cp r10,__zero_reg__
 243 0070 B104      		cpc r11,__zero_reg__
 244 0072 01F0      		breq .L33
 245 0074 F501      		movw r30,r10
 246 0076 8083      		st Z,r24
 247 0078 C501      		movw r24,r10
 248 007a 0196      		adiw r24,1
 249 007c 5C01      		movw r10,r24
 250 007e 00C0      		rjmp .L33
 251               	.L47:
 252               	/* epilogue start */
 253 0080 0F90      		pop __tmp_reg__
 254 0082 0F90      		pop __tmp_reg__
 255 0084 DF91      		pop r29
 256 0086 CF91      		pop r28
 257 0088 1F91      		pop r17
 258 008a 0F91      		pop r16
 259 008c FF90      		pop r15
 260 008e EF90      		pop r14
 261 0090 DF90      		pop r13
 262 0092 CF90      		pop r12
 263 0094 BF90      		pop r11
 264 0096 AF90      		pop r10
 265 0098 0895      		ret
 266               		.size	JtagCable0TransferData, .-JtagCable0TransferData
 267               		.section	.text.JtagCable0Close,"ax",@progbits
 268               		.type	JtagCable0Close, @function
 269               	JtagCable0Close:
 270 0000 CF93      		push r28
 271 0002 DF93      		push r29
 272               	/* prologue: function */
 273               	/* frame size = 0 */
 274               	/* stack size = 2 */
 275               	.L__stack_usage = 2
 276 0004 EC01      		movw r28,r24
 277 0006 0E94 0000 		call JtagCable0TmsFlush
 278 000a CE01      		movw r24,r28
 279               	/* epilogue start */
 280 000c DF91      		pop r29
 281 000e CF91      		pop r28
 282 0010 0C94 0000 		jmp free
 283               		.size	JtagCable0Close, .-JtagCable0Close
 284               		.section	.text.JtagCable0Open,"ax",@progbits
 285               		.type	JtagCable0Open, @function
GAS LISTING /tmp/cccNVxlR.s 			page 6


 286               	JtagCable0Open:
 287               	/* prologue: function */
 288               	/* frame size = 0 */
 289               	/* stack size = 0 */
 290               	.L__stack_usage = 0
 291 0000 64E0      		ldi r22,lo8(4)
 292 0002 71E0      		ldi r23,lo8(1)
 293 0004 81E0      		ldi r24,lo8(1)
 294 0006 90E0      		ldi r25,0
 295 0008 0C94 0000 		jmp calloc
 296               		.size	JtagCable0Open, .-JtagCable0Open
 297               	.global	jtag_gpio0
 298               		.data
 299               		.type	jtag_gpio0, @object
 300               		.size	jtag_gpio0, 12
 301               	jtag_gpio0:
 302 0000 0000      		.word	gs(JtagCable0Open)
 303 0002 0000      		.word	gs(JtagCable0Close)
 304 0004 0000      		.word	gs(JtagCable0TargetReset)
 305 0006 0000      		.word	gs(JtagCable0TmsPut)
 306 0008 0000      		.word	gs(JtagCable0TmsFlush)
 307 000a 0000      		.word	gs(JtagCable0TransferData)
 308               		.ident	"GCC: (GNU) 5.3.0"
 309               	.global __do_copy_data
GAS LISTING /tmp/cccNVxlR.s 			page 7


DEFINED SYMBOLS
                            *ABS*:0000000000000000 jtag_gpio0.c
     /tmp/cccNVxlR.s:2      *ABS*:000000000000003e __SP_H__
     /tmp/cccNVxlR.s:3      *ABS*:000000000000003d __SP_L__
     /tmp/cccNVxlR.s:4      *ABS*:000000000000003f __SREG__
     /tmp/cccNVxlR.s:5      *ABS*:000000000000003b __RAMPZ__
     /tmp/cccNVxlR.s:6      *ABS*:0000000000000000 __tmp_reg__
     /tmp/cccNVxlR.s:7      *ABS*:0000000000000001 __zero_reg__
     /tmp/cccNVxlR.s:10     .text.JtagCable0TmsFlush:0000000000000000 JtagCable0TmsFlush
     /tmp/cccNVxlR.s:44     .text.JtagCable0TargetReset:0000000000000000 JtagCable0TargetReset
     /tmp/cccNVxlR.s:56     .text.JtagCable0TmsPut:0000000000000000 JtagCable0TmsPut
     /tmp/cccNVxlR.s:178    .text.JtagCable0TransferData:0000000000000000 JtagCable0TransferData
     /tmp/cccNVxlR.s:269    .text.JtagCable0Close:0000000000000000 JtagCable0Close
     /tmp/cccNVxlR.s:286    .text.JtagCable0Open:0000000000000000 JtagCable0Open
     /tmp/cccNVxlR.s:301    .data:0000000000000000 jtag_gpio0

UNDEFINED SYMBOLS
free
calloc
__do_copy_data
