GAS LISTING /tmp/ccID58qj.s 			page 1


   1               		.file	"ih_int0.c"
   2               	__SP_H__ = 0x3e
   3               	__SP_L__ = 0x3d
   4               	__SREG__ = 0x3f
   5               	__RAMPZ__ = 0x3b
   6               	__tmp_reg__ = 0
   7               	__zero_reg__ = 1
   8               		.section	.text.AvrInterrupt0Ctl,"ax",@progbits
   9               		.type	AvrInterrupt0Ctl, @function
  10               	AvrInterrupt0Ctl:
  11               	/* prologue: function */
  12               	/* frame size = 0 */
  13               	/* stack size = 0 */
  14               	.L__stack_usage = 0
  15 0000 FB01      		movw r30,r22
  16 0002 2DB3      		in r18,0x1d
  17 0004 2170      		andi r18,lo8(1)
  18 0006 E898      		cbi 0x1d,0
  19 0008 8131      		cpi r24,17
  20 000a 9105      		cpc r25,__zero_reg__
  21 000c 01F4      		brne .+2
  22 000e 00C0      		rjmp .L3
  23 0010 04F4      		brge .L4
  24 0012 8130      		cpi r24,1
  25 0014 9105      		cpc r25,__zero_reg__
  26 0016 01F0      		breq .L5
  27 0018 8031      		cpi r24,16
  28 001a 9105      		cpc r25,__zero_reg__
  29 001c 01F0      		breq .L6
  30 001e 892B      		or r24,r25
  31 0020 01F0      		breq .+2
  32 0022 00C0      		rjmp .L22
  33 0024 8091 6900 		lds r24,105
  34 0028 8E7F      		andi r24,lo8(-2)
  35 002a 8093 6900 		sts 105,r24
  36 002e 8091 6900 		lds r24,105
  37 0032 8D7F      		andi r24,lo8(-3)
  38 0034 8093 6900 		sts 105,r24
  39 0038 00C0      		rjmp .L5
  40               	.L4:
  41 003a 8831      		cpi r24,24
  42 003c 9105      		cpc r25,__zero_reg__
  43 003e 01F0      		breq .L8
  44 0040 04F4      		brge .L9
  45 0042 4297      		sbiw r24,18
  46 0044 01F4      		brne .+2
  47 0046 00C0      		rjmp .L10
  48 0048 00C0      		rjmp .L22
  49               	.L9:
  50 004a 8931      		cpi r24,25
  51 004c 9105      		cpc r25,__zero_reg__
  52 004e 01F0      		breq .L11
  53 0050 8097      		sbiw r24,32
  54 0052 01F0      		breq .+2
  55 0054 00C0      		rjmp .L22
  56 0056 1182      		std Z+1,__zero_reg__
  57 0058 1082      		st Z,__zero_reg__
GAS LISTING /tmp/ccID58qj.s 			page 2


  58 005a 00C0      		rjmp .L39
  59               	.L5:
  60 005c 81E0      		ldi r24,lo8(1)
  61 005e 8CBB      		out 0x1c,r24
  62 0060 00C0      		rjmp .L39
  63               	.L6:
  64 0062 E09B      		sbis 0x1c,0
  65 0064 00C0      		rjmp .L13
  66 0066 81E0      		ldi r24,lo8(1)
  67 0068 90E0      		ldi r25,0
  68 006a 9183      		std Z+1,r25
  69 006c 8083      		st Z,r24
  70 006e 00C0      		rjmp .L14
  71               	.L13:
  72 0070 1182      		std Z+1,__zero_reg__
  73 0072 1082      		st Z,__zero_reg__
  74               	.L14:
  75 0074 2223      		tst r18
  76 0076 01F4      		brne .+2
  77 0078 00C0      		rjmp .L10
  78 007a 8081      		ld r24,Z
  79 007c 9181      		ldd r25,Z+1
  80 007e 8068      		ori r24,128
  81 0080 9183      		std Z+1,r25
  82 0082 8083      		st Z,r24
  83 0084 00C0      		rjmp .L3
  84               	.L8:
  85 0086 8091 6900 		lds r24,105
  86 008a 8370      		andi r24,lo8(3)
  87 008c 01F4      		brne .L15
  88 008e 81E0      		ldi r24,lo8(1)
  89 0090 90E0      		ldi r25,0
  90 0092 00C0      		rjmp .L41
  91               	.L15:
  92 0094 8330      		cpi r24,lo8(3)
  93 0096 01F4      		brne .L16
  94 0098 86E0      		ldi r24,lo8(6)
  95 009a 90E0      		ldi r25,0
  96 009c 00C0      		rjmp .L41
  97               	.L16:
  98 009e 85E0      		ldi r24,lo8(5)
  99 00a0 90E0      		ldi r25,0
 100               	.L41:
 101 00a2 9183      		std Z+1,r25
 102 00a4 8083      		st Z,r24
 103 00a6 00C0      		rjmp .L39
 104               	.L11:
 105 00a8 8081      		ld r24,Z
 106 00aa 9181      		ldd r25,Z+1
 107 00ac 8130      		cpi r24,1
 108 00ae 9105      		cpc r25,__zero_reg__
 109 00b0 01F4      		brne .L17
 110 00b2 8091 6900 		lds r24,105
 111 00b6 8E7F      		andi r24,lo8(-2)
 112 00b8 8093 6900 		sts 105,r24
 113 00bc 8091 6900 		lds r24,105
 114 00c0 8D7F      		andi r24,lo8(-3)
GAS LISTING /tmp/ccID58qj.s 			page 3


 115 00c2 00C0      		rjmp .L42
 116               	.L17:
 117 00c4 8530      		cpi r24,5
 118 00c6 9105      		cpc r25,__zero_reg__
 119 00c8 01F4      		brne .L18
 120 00ca 8091 6900 		lds r24,105
 121 00ce 8E7F      		andi r24,lo8(-2)
 122 00d0 00C0      		rjmp .L40
 123               	.L18:
 124 00d2 0697      		sbiw r24,6
 125 00d4 01F4      		brne .L22
 126 00d6 8091 6900 		lds r24,105
 127 00da 8160      		ori r24,lo8(1)
 128               	.L40:
 129 00dc 8093 6900 		sts 105,r24
 130 00e0 8091 6900 		lds r24,105
 131 00e4 8260      		ori r24,lo8(2)
 132               	.L42:
 133 00e6 8093 6900 		sts 105,r24
 134               	.L39:
 135 00ea 80E0      		ldi r24,0
 136 00ec 90E0      		ldi r25,0
 137 00ee 00C0      		rjmp .L2
 138               	.L22:
 139 00f0 8FEF      		ldi r24,lo8(-1)
 140 00f2 9FEF      		ldi r25,lo8(-1)
 141               	.L2:
 142 00f4 2223      		tst r18
 143 00f6 01F0      		breq .L28
 144               	.L20:
 145 00f8 E89A      		sbi 0x1d,0
 146 00fa 0895      		ret
 147               	.L3:
 148 00fc 80E0      		ldi r24,0
 149 00fe 90E0      		ldi r25,0
 150 0100 00C0      		rjmp .L20
 151               	.L10:
 152 0102 80E0      		ldi r24,0
 153 0104 90E0      		ldi r25,0
 154               	.L28:
 155 0106 0895      		ret
 156               		.size	AvrInterrupt0Ctl, .-AvrInterrupt0Ctl
 157               		.section	.text.__vector_1,"ax",@progbits
 158               	.global	__vector_1
 159               		.type	__vector_1, @function
 160               	__vector_1:
 161 0000 1F92      		push r1
 162 0002 0F92      		push r0
 163 0004 0FB6      		in r0,__SREG__
 164 0006 0F92      		push r0
 165 0008 1124      		clr __zero_reg__
 166 000a 0BB6      		in r0,__RAMPZ__
 167 000c 0F92      		push r0
 168 000e 2F93      		push r18
 169 0010 3F93      		push r19
 170 0012 4F93      		push r20
 171 0014 5F93      		push r21
GAS LISTING /tmp/ccID58qj.s 			page 4


 172 0016 6F93      		push r22
 173 0018 7F93      		push r23
 174 001a 8F93      		push r24
 175 001c 9F93      		push r25
 176 001e AF93      		push r26
 177 0020 BF93      		push r27
 178 0022 EF93      		push r30
 179 0024 FF93      		push r31
 180               	/* prologue: Signal */
 181               	/* frame size = 0 */
 182               	/* stack size = 16 */
 183               	.L__stack_usage = 16
 184 0026 80E0      		ldi r24,lo8(sig_INTERRUPT0)
 185 0028 90E0      		ldi r25,hi8(sig_INTERRUPT0)
 186 002a 0E94 0000 		call CallHandler
 187               	/* epilogue start */
 188 002e FF91      		pop r31
 189 0030 EF91      		pop r30
 190 0032 BF91      		pop r27
 191 0034 AF91      		pop r26
 192 0036 9F91      		pop r25
 193 0038 8F91      		pop r24
 194 003a 7F91      		pop r23
 195 003c 6F91      		pop r22
 196 003e 5F91      		pop r21
 197 0040 4F91      		pop r20
 198 0042 3F91      		pop r19
 199 0044 2F91      		pop r18
 200 0046 0F90      		pop r0
 201 0048 0BBE      		out __RAMPZ__,r0
 202 004a 0F90      		pop r0
 203 004c 0FBE      		out __SREG__,r0
 204 004e 0F90      		pop r0
 205 0050 1F90      		pop r1
 206 0052 1895      		reti
 207               		.size	__vector_1, .-__vector_1
 208               	.global	sig_INTERRUPT0
 209               		.data
 210               		.type	sig_INTERRUPT0, @object
 211               		.size	sig_INTERRUPT0, 6
 212               	sig_INTERRUPT0:
 213 0000 0000      		.word	0
 214 0002 0000      		.word	0
 215 0004 0000      		.word	gs(AvrInterrupt0Ctl)
 216               		.ident	"GCC: (GNU) 5.3.0"
 217               	.global __do_copy_data
GAS LISTING /tmp/ccID58qj.s 			page 5


DEFINED SYMBOLS
                            *ABS*:0000000000000000 ih_int0.c
     /tmp/ccID58qj.s:2      *ABS*:000000000000003e __SP_H__
     /tmp/ccID58qj.s:3      *ABS*:000000000000003d __SP_L__
     /tmp/ccID58qj.s:4      *ABS*:000000000000003f __SREG__
     /tmp/ccID58qj.s:5      *ABS*:000000000000003b __RAMPZ__
     /tmp/ccID58qj.s:6      *ABS*:0000000000000000 __tmp_reg__
     /tmp/ccID58qj.s:7      *ABS*:0000000000000001 __zero_reg__
     /tmp/ccID58qj.s:10     .text.AvrInterrupt0Ctl:0000000000000000 AvrInterrupt0Ctl
     /tmp/ccID58qj.s:160    .text.__vector_1:0000000000000000 __vector_1
     /tmp/ccID58qj.s:212    .data:0000000000000000 sig_INTERRUPT0

UNDEFINED SYMBOLS
CallHandler
__do_copy_data
