GAS LISTING /tmp/ccAnaEr7.s 			page 1


   1               		.file	"httpopt.c"
   2               	__SP_H__ = 0x3e
   3               	__SP_L__ = 0x3d
   4               	__SREG__ = 0x3f
   5               	__RAMPZ__ = 0x3b
   6               	__tmp_reg__ = 0
   7               	__zero_reg__ = 1
   8               		.section	.text.NutSetMimeHandler,"ax",@progbits
   9               	.global	NutSetMimeHandler
  10               		.type	NutSetMimeHandler, @function
  11               	NutSetMimeHandler:
  12 0000 CF92      		push r12
  13 0002 DF92      		push r13
  14 0004 EF92      		push r14
  15 0006 FF92      		push r15
  16 0008 0F93      		push r16
  17 000a 1F93      		push r17
  18 000c CF93      		push r28
  19 000e DF93      		push r29
  20               	/* prologue: function */
  21               	/* frame size = 0 */
  22               	/* stack size = 8 */
  23               	.L__stack_usage = 8
  24 0010 6C01      		movw r12,r24
  25 0012 7B01      		movw r14,r22
  26 0014 892B      		or r24,r25
  27 0016 01F0      		breq .L6
  28 0018 C0E0      		ldi r28,lo8(mimeTypes)
  29 001a D0E0      		ldi r29,hi8(mimeTypes)
  30 001c 00E0      		ldi r16,0
  31 001e 10E0      		ldi r17,0
  32               	.L3:
  33 0020 6881      		ld r22,Y
  34 0022 7981      		ldd r23,Y+1
  35 0024 6115      		cp r22,__zero_reg__
  36 0026 7105      		cpc r23,__zero_reg__
  37 0028 01F0      		breq .L6
  38 002a C601      		movw r24,r12
  39 002c 0E94 0000 		call strcasecmp
  40 0030 2696      		adiw r28,6
  41 0032 892B      		or r24,r25
  42 0034 01F4      		brne .L4
  43 0036 86E0      		ldi r24,lo8(6)
  44 0038 809F      		mul r24,r16
  45 003a F001      		movw r30,r0
  46 003c 819F      		mul r24,r17
  47 003e F00D      		add r31,r0
  48 0040 1124      		clr __zero_reg__
  49 0042 E050      		subi r30,lo8(-(mimeTypes))
  50 0044 F040      		sbci r31,hi8(-(mimeTypes))
  51 0046 F582      		std Z+5,r15
  52 0048 E482      		std Z+4,r14
  53 004a 80E0      		ldi r24,0
  54 004c 00C0      		rjmp .L2
  55               	.L4:
  56 004e 0F5F      		subi r16,-1
  57 0050 1F4F      		sbci r17,-1
GAS LISTING /tmp/ccAnaEr7.s 			page 2


  58 0052 00C0      		rjmp .L3
  59               	.L6:
  60 0054 81E0      		ldi r24,lo8(1)
  61               	.L2:
  62               	/* epilogue start */
  63 0056 DF91      		pop r29
  64 0058 CF91      		pop r28
  65 005a 1F91      		pop r17
  66 005c 0F91      		pop r16
  67 005e FF90      		pop r15
  68 0060 EF90      		pop r14
  69 0062 DF90      		pop r13
  70 0064 CF90      		pop r12
  71 0066 0895      		ret
  72               		.size	NutSetMimeHandler, .-NutSetMimeHandler
  73               		.section	.rodata.str1.1,"aMS",@progbits,1
  74               	.LC0:
  75 0000 3031 3233 		.string	"0123456789ABCDEF"
  75      3435 3637 
  75      3839 4142 
  75      4344 4546 
  75      00
  76               		.section	.text.NutHttpURLEncode,"ax",@progbits
  77               	.global	NutHttpURLEncode
  78               		.type	NutHttpURLEncode, @function
  79               	NutHttpURLEncode:
  80 0000 AF92      		push r10
  81 0002 BF92      		push r11
  82 0004 CF92      		push r12
  83 0006 DF92      		push r13
  84 0008 EF92      		push r14
  85 000a FF92      		push r15
  86 000c 0F93      		push r16
  87 000e 1F93      		push r17
  88 0010 CF93      		push r28
  89 0012 DF93      		push r29
  90               	/* prologue: function */
  91               	/* frame size = 0 */
  92               	/* stack size = 10 */
  93               	.L__stack_usage = 10
  94 0014 6C01      		movw r12,r24
  95 0016 0097      		sbiw r24,0
  96 0018 01F0      		breq .L9
  97 001a 7C01      		movw r14,r24
  98 001c 5C01      		movw r10,r24
  99 001e 00E0      		ldi r16,0
 100 0020 10E0      		ldi r17,0
 101 0022 00C0      		rjmp .L10
 102               	.L9:
 103 0024 80E0      		ldi r24,0
 104 0026 90E0      		ldi r25,0
 105 0028 00C0      		rjmp .L11
 106               	.L14:
 107 002a 8C2F      		mov r24,r28
 108 002c 90E0      		ldi r25,0
 109 002e 0E94 0000 		call isalnum
 110 0032 892B      		or r24,r25
GAS LISTING /tmp/ccAnaEr7.s 			page 3


 111 0034 01F0      		breq .L12
 112 0036 8BED      		ldi r24,lo8(-37)
 113 0038 8C0F      		add r24,r28
 114 003a 8230      		cpi r24,lo8(2)
 115 003c 00F0      		brlo .L12
 116 003e 85ED      		ldi r24,lo8(-43)
 117 0040 8C0F      		add r24,r28
 118 0042 8230      		cpi r24,lo8(2)
 119 0044 00F0      		brlo .L12
 120 0046 86EC      		ldi r24,lo8(-58)
 121 0048 8C0F      		add r24,r28
 122 004a 8230      		cpi r24,lo8(2)
 123 004c 00F0      		brlo .L12
 124 004e CD33      		cpi r28,lo8(61)
 125 0050 01F0      		breq .L12
 126 0052 CF53      		subi r28,lo8(-(-63))
 127 0054 C230      		cpi r28,lo8(2)
 128 0056 00F0      		brlo .L12
 129               	.L10:
 130 0058 F501      		movw r30,r10
 131 005a C191      		ld r28,Z+
 132 005c 5F01      		movw r10,r30
 133 005e C111      		cpse r28,__zero_reg__
 134 0060 00C0      		rjmp .L14
 135 0062 00C0      		rjmp .L33
 136               	.L12:
 137 0064 0F5F      		subi r16,-1
 138 0066 1F4F      		sbci r17,-1
 139 0068 00C0      		rjmp .L10
 140               	.L33:
 141 006a F601      		movw r30,r12
 142               		0:
 143 006c 0190      		ld __tmp_reg__,Z+
 144 006e 0020      		tst __tmp_reg__
 145 0070 01F4      		brne 0b
 146 0072 CF01      		movw r24,r30
 147 0074 8C19      		sub r24,r12
 148 0076 9D09      		sbc r25,r13
 149 0078 000F      		lsl r16
 150 007a 111F      		rol r17
 151 007c 800F      		add r24,r16
 152 007e 911F      		adc r25,r17
 153 0080 0E94 0000 		call malloc
 154 0084 6C01      		movw r12,r24
 155 0086 0097      		sbiw r24,0
 156 0088 01F0      		breq .L9
 157 008a 8C01      		movw r16,r24
 158 008c D5E2      		ldi r29,lo8(37)
 159               	.L15:
 160 008e F701      		movw r30,r14
 161 0090 C191      		ld r28,Z+
 162 0092 7F01      		movw r14,r30
 163 0094 CC23      		tst r28
 164 0096 01F0      		breq .L34
 165 0098 8C2F      		mov r24,r28
 166 009a 90E0      		ldi r25,0
 167 009c 0E94 0000 		call isalnum
GAS LISTING /tmp/ccAnaEr7.s 			page 4


 168 00a0 892B      		or r24,r25
 169 00a2 01F4      		brne .L16
 170 00a4 8BED      		ldi r24,lo8(-37)
 171 00a6 8C0F      		add r24,r28
 172 00a8 8230      		cpi r24,lo8(2)
 173 00aa 00F0      		brlo .L16
 174 00ac 85ED      		ldi r24,lo8(-43)
 175 00ae 8C0F      		add r24,r28
 176 00b0 8230      		cpi r24,lo8(2)
 177 00b2 00F0      		brlo .L16
 178 00b4 86EC      		ldi r24,lo8(-58)
 179 00b6 8C0F      		add r24,r28
 180 00b8 8230      		cpi r24,lo8(2)
 181 00ba 00F0      		brlo .L16
 182 00bc CD33      		cpi r28,lo8(61)
 183 00be 01F0      		breq .L16
 184 00c0 81EC      		ldi r24,lo8(-63)
 185 00c2 8C0F      		add r24,r28
 186 00c4 8230      		cpi r24,lo8(2)
 187 00c6 00F4      		brsh .L17
 188               	.L16:
 189 00c8 F801      		movw r30,r16
 190 00ca C083      		st Z,r28
 191 00cc 0F5F      		subi r16,-1
 192 00ce 1F4F      		sbci r17,-1
 193 00d0 00C0      		rjmp .L15
 194               	.L17:
 195 00d2 F801      		movw r30,r16
 196 00d4 D083      		st Z,r29
 197 00d6 EC2F      		mov r30,r28
 198 00d8 E595      		asr r30
 199 00da E595      		asr r30
 200 00dc E595      		asr r30
 201 00de E595      		asr r30
 202 00e0 0E2E      		mov __tmp_reg__,r30
 203 00e2 000C      		lsl r0
 204 00e4 FF0B      		sbc r31,r31
 205 00e6 E050      		subi r30,lo8(-(.LC0))
 206 00e8 F040      		sbci r31,hi8(-(.LC0))
 207 00ea 8081      		ld r24,Z
 208 00ec F801      		movw r30,r16
 209 00ee 8183      		std Z+1,r24
 210 00f0 EC2F      		mov r30,r28
 211 00f2 EF70      		andi r30,lo8(15)
 212 00f4 0E2E      		mov __tmp_reg__,r30
 213 00f6 000C      		lsl r0
 214 00f8 FF0B      		sbc r31,r31
 215 00fa E050      		subi r30,lo8(-(.LC0))
 216 00fc F040      		sbci r31,hi8(-(.LC0))
 217 00fe 8081      		ld r24,Z
 218 0100 F801      		movw r30,r16
 219 0102 8283      		std Z+2,r24
 220 0104 0D5F      		subi r16,-3
 221 0106 1F4F      		sbci r17,-1
 222 0108 00C0      		rjmp .L15
 223               	.L34:
 224 010a F801      		movw r30,r16
GAS LISTING /tmp/ccAnaEr7.s 			page 5


 225 010c 1082      		st Z,__zero_reg__
 226 010e C601      		movw r24,r12
 227               	.L11:
 228               	/* epilogue start */
 229 0110 DF91      		pop r29
 230 0112 CF91      		pop r28
 231 0114 1F91      		pop r17
 232 0116 0F91      		pop r16
 233 0118 FF90      		pop r15
 234 011a EF90      		pop r14
 235 011c DF90      		pop r13
 236 011e CF90      		pop r12
 237 0120 BF90      		pop r11
 238 0122 AF90      		pop r10
 239 0124 0895      		ret
 240               		.size	NutHttpURLEncode, .-NutHttpURLEncode
 241               		.section	.text.NutHttpProcessPostQuery,"ax",@progbits
 242               	.global	NutHttpProcessPostQuery
 243               		.type	NutHttpProcessPostQuery, @function
 244               	NutHttpProcessPostQuery:
 245 0000 CF92      		push r12
 246 0002 DF92      		push r13
 247 0004 EF92      		push r14
 248 0006 FF92      		push r15
 249 0008 0F93      		push r16
 250 000a 1F93      		push r17
 251 000c CF93      		push r28
 252 000e DF93      		push r29
 253               	/* prologue: function */
 254               	/* frame size = 0 */
 255               	/* stack size = 8 */
 256               	.L__stack_usage = 8
 257 0010 6C01      		movw r12,r24
 258 0012 EB01      		movw r28,r22
 259 0014 8A85      		ldd r24,Y+10
 260 0016 9B85      		ldd r25,Y+11
 261 0018 892B      		or r24,r25
 262 001a 01F0      		breq .+2
 263 001c 00C0      		rjmp .L35
 264 001e C114      		cp r12,__zero_reg__
 265 0020 D104      		cpc r13,__zero_reg__
 266 0022 01F4      		brne .+2
 267 0024 00C0      		rjmp .L35
 268 0026 8881      		ld r24,Y
 269 0028 9981      		ldd r25,Y+1
 270 002a 0297      		sbiw r24,2
 271 002c 01F0      		breq .+2
 272 002e 00C0      		rjmp .L35
 273 0030 0C81      		ldd r16,Y+4
 274 0032 1D81      		ldd r17,Y+5
 275 0034 0F5F      		subi r16,-1
 276 0036 1F4F      		sbci r17,-1
 277 0038 C801      		movw r24,r16
 278 003a 0E94 0000 		call malloc
 279 003e 9B87      		std Y+11,r25
 280 0040 8A87      		std Y+10,r24
 281 0042 0097      		sbiw r24,0
GAS LISTING /tmp/ccAnaEr7.s 			page 6


 282 0044 01F4      		brne .L39
 283 0046 1F8A      		std Y+23,__zero_reg__
 284 0048 1E8A      		std Y+22,__zero_reg__
 285 004a 00C0      		rjmp .L35
 286               	.L39:
 287 004c A801      		movw r20,r16
 288 004e 60E0      		ldi r22,0
 289 0050 70E0      		ldi r23,0
 290 0052 0E94 0000 		call memset
 291 0056 E12C      		mov r14,__zero_reg__
 292 0058 F12C      		mov r15,__zero_reg__
 293               	.L40:
 294 005a 4C81      		ldd r20,Y+4
 295 005c 5D81      		ldd r21,Y+5
 296 005e 6E81      		ldd r22,Y+6
 297 0060 7F81      		ldd r23,Y+7
 298 0062 0A85      		ldd r16,Y+10
 299 0064 1B85      		ldd r17,Y+11
 300 0066 C701      		movw r24,r14
 301 0068 0F2C      		mov __tmp_reg__,r15
 302 006a 000C      		lsl r0
 303 006c AA0B      		sbc r26,r26
 304 006e BB0B      		sbc r27,r27
 305 0070 8417      		cp r24,r20
 306 0072 9507      		cpc r25,r21
 307 0074 A607      		cpc r26,r22
 308 0076 B707      		cpc r27,r23
 309 0078 04F4      		brge .L60
 310 007a 4E19      		sub r20,r14
 311 007c 5F09      		sbc r21,r15
 312 007e 9601      		movw r18,r12
 313 0080 61E0      		ldi r22,lo8(1)
 314 0082 70E0      		ldi r23,0
 315 0084 C801      		movw r24,r16
 316 0086 8E0D      		add r24,r14
 317 0088 9F1D      		adc r25,r15
 318 008a 0E94 0000 		call fread
 319 008e 1816      		cp __zero_reg__,r24
 320 0090 1906      		cpc __zero_reg__,r25
 321 0092 04F0      		brlt .L41
 322 0094 8A85      		ldd r24,Y+10
 323 0096 9B85      		ldd r25,Y+11
 324 0098 00C0      		rjmp .L59
 325               	.L41:
 326 009a E80E      		add r14,r24
 327 009c F91E      		adc r15,r25
 328 009e 00C0      		rjmp .L40
 329               	.L60:
 330 00a0 81E0      		ldi r24,lo8(1)
 331 00a2 90E0      		ldi r25,0
 332 00a4 9F8B      		std Y+23,r25
 333 00a6 8E8B      		std Y+22,r24
 334 00a8 7801      		movw r14,r16
 335 00aa F801      		movw r30,r16
 336               	.L43:
 337 00ac 8191      		ld r24,Z+
 338 00ae 8823      		tst r24
GAS LISTING /tmp/ccAnaEr7.s 			page 7


 339 00b0 01F0      		breq .L61
 340 00b2 8632      		cpi r24,lo8(38)
 341 00b4 01F4      		brne .L43
 342 00b6 8E89      		ldd r24,Y+22
 343 00b8 9F89      		ldd r25,Y+23
 344 00ba 0196      		adiw r24,1
 345 00bc 9F8B      		std Y+23,r25
 346 00be 8E8B      		std Y+22,r24
 347 00c0 00C0      		rjmp .L43
 348               	.L61:
 349 00c2 8E89      		ldd r24,Y+22
 350 00c4 9F89      		ldd r25,Y+23
 351 00c6 880F      		lsl r24
 352 00c8 991F      		rol r25
 353 00ca 880F      		lsl r24
 354 00cc 991F      		rol r25
 355 00ce 0E94 0000 		call malloc
 356 00d2 9D8B      		std Y+21,r25
 357 00d4 8C8B      		std Y+20,r24
 358 00d6 0097      		sbiw r24,0
 359 00d8 01F4      		brne .L46
 360 00da C801      		movw r24,r16
 361               	.L59:
 362 00dc 0E94 0000 		call free
 363 00e0 1F8A      		std Y+23,__zero_reg__
 364 00e2 1E8A      		std Y+22,__zero_reg__
 365 00e4 1B86      		std Y+11,__zero_reg__
 366 00e6 1A86      		std Y+10,__zero_reg__
 367 00e8 00C0      		rjmp .L35
 368               	.L46:
 369 00ea FC01      		movw r30,r24
 370 00ec 1183      		std Z+1,r17
 371 00ee 0083      		st Z,r16
 372 00f0 1382      		std Z+3,__zero_reg__
 373 00f2 1282      		std Z+2,__zero_reg__
 374 00f4 22E0      		ldi r18,lo8(2)
 375 00f6 30E0      		ldi r19,0
 376               	.L47:
 377 00f8 F701      		movw r30,r14
 378 00fa 8191      		ld r24,Z+
 379 00fc 7F01      		movw r14,r30
 380 00fe 8823      		tst r24
 381 0100 01F0      		breq .L62
 382 0102 8632      		cpi r24,lo8(38)
 383 0104 01F4      		brne .L47
 384 0106 C901      		movw r24,r18
 385 0108 880F      		lsl r24
 386 010a 991F      		rol r25
 387 010c EC89      		ldd r30,Y+20
 388 010e FD89      		ldd r31,Y+21
 389 0110 E80F      		add r30,r24
 390 0112 F91F      		adc r31,r25
 391 0114 F182      		std Z+1,r15
 392 0116 E082      		st Z,r14
 393 0118 4C89      		ldd r20,Y+20
 394 011a 5D89      		ldd r21,Y+21
 395 011c FA01      		movw r30,r20
GAS LISTING /tmp/ccAnaEr7.s 			page 8


 396 011e E80F      		add r30,r24
 397 0120 F91F      		adc r31,r25
 398 0122 1382      		std Z+3,__zero_reg__
 399 0124 1282      		std Z+2,__zero_reg__
 400 0126 F701      		movw r30,r14
 401 0128 3197      		sbiw r30,1
 402 012a 1082      		st Z,__zero_reg__
 403 012c 2E5F      		subi r18,-2
 404 012e 3F4F      		sbci r19,-1
 405 0130 00C0      		rjmp .L47
 406               	.L62:
 407 0132 00E0      		ldi r16,0
 408 0134 10E0      		ldi r17,0
 409 0136 E12C      		mov r14,__zero_reg__
 410 0138 F12C      		mov r15,__zero_reg__
 411               	.L50:
 412 013a 8E89      		ldd r24,Y+22
 413 013c 9F89      		ldd r25,Y+23
 414 013e E816      		cp r14,r24
 415 0140 F906      		cpc r15,r25
 416 0142 04F4      		brge .L35
 417 0144 8C89      		ldd r24,Y+20
 418 0146 9D89      		ldd r25,Y+21
 419 0148 FC01      		movw r30,r24
 420 014a E00F      		add r30,r16
 421 014c F11F      		adc r31,r17
 422 014e 0190      		ld __tmp_reg__,Z+
 423 0150 F081      		ld r31,Z
 424 0152 E02D      		mov r30,__tmp_reg__
 425               	.L51:
 426 0154 DF01      		movw r26,r30
 427 0156 2191      		ld r18,Z+
 428 0158 2223      		tst r18
 429 015a 01F0      		breq .L52
 430 015c 2D33      		cpi r18,lo8(61)
 431 015e 01F4      		brne .L51
 432 0160 9801      		movw r18,r16
 433 0162 2E5F      		subi r18,-2
 434 0164 3F4F      		sbci r19,-1
 435 0166 FC01      		movw r30,r24
 436 0168 E20F      		add r30,r18
 437 016a F31F      		adc r31,r19
 438 016c AD01      		movw r20,r26
 439 016e 4F5F      		subi r20,-1
 440 0170 5F4F      		sbci r21,-1
 441 0172 5183      		std Z+1,r21
 442 0174 4083      		st Z,r20
 443 0176 1C92      		st X,__zero_reg__
 444 0178 8C89      		ldd r24,Y+20
 445 017a 9D89      		ldd r25,Y+21
 446 017c FC01      		movw r30,r24
 447 017e E20F      		add r30,r18
 448 0180 F31F      		adc r31,r19
 449 0182 8081      		ld r24,Z
 450 0184 9181      		ldd r25,Z+1
 451 0186 0E94 0000 		call NutHttpURLDecode
 452               	.L52:
GAS LISTING /tmp/ccAnaEr7.s 			page 9


 453 018a EC89      		ldd r30,Y+20
 454 018c FD89      		ldd r31,Y+21
 455 018e E00F      		add r30,r16
 456 0190 F11F      		adc r31,r17
 457 0192 8081      		ld r24,Z
 458 0194 9181      		ldd r25,Z+1
 459 0196 0E94 0000 		call NutHttpURLDecode
 460 019a FFEF      		ldi r31,-1
 461 019c EF1A      		sub r14,r31
 462 019e FF0A      		sbc r15,r31
 463 01a0 0C5F      		subi r16,-4
 464 01a2 1F4F      		sbci r17,-1
 465 01a4 00C0      		rjmp .L50
 466               	.L35:
 467               	/* epilogue start */
 468 01a6 DF91      		pop r29
 469 01a8 CF91      		pop r28
 470 01aa 1F91      		pop r17
 471 01ac 0F91      		pop r16
 472 01ae FF90      		pop r15
 473 01b0 EF90      		pop r14
 474 01b2 DF90      		pop r13
 475 01b4 CF90      		pop r12
 476 01b6 0895      		ret
 477               		.size	NutHttpProcessPostQuery, .-NutHttpProcessPostQuery
 478               		.section	.text.NutHttpGetParameter,"ax",@progbits
 479               	.global	NutHttpGetParameter
 480               		.type	NutHttpGetParameter, @function
 481               	NutHttpGetParameter:
 482 0000 8F92      		push r8
 483 0002 9F92      		push r9
 484 0004 AF92      		push r10
 485 0006 BF92      		push r11
 486 0008 CF92      		push r12
 487 000a DF92      		push r13
 488 000c EF92      		push r14
 489 000e FF92      		push r15
 490 0010 0F93      		push r16
 491 0012 1F93      		push r17
 492 0014 CF93      		push r28
 493 0016 DF93      		push r29
 494               	/* prologue: function */
 495               	/* frame size = 0 */
 496               	/* stack size = 12 */
 497               	.L__stack_usage = 12
 498 0018 4C01      		movw r8,r24
 499 001a 5B01      		movw r10,r22
 500 001c FC01      		movw r30,r24
 501 001e C688      		ldd r12,Z+22
 502 0020 D788      		ldd r13,Z+23
 503 0022 C0E0      		ldi r28,0
 504 0024 D0E0      		ldi r29,0
 505 0026 E12C      		mov r14,__zero_reg__
 506 0028 F12C      		mov r15,__zero_reg__
 507               	.L64:
 508 002a EC14      		cp r14,r12
 509 002c FD04      		cpc r15,r13
GAS LISTING /tmp/ccAnaEr7.s 			page 10


 510 002e 04F4      		brge .L68
 511 0030 F401      		movw r30,r8
 512 0032 0489      		ldd r16,Z+20
 513 0034 1589      		ldd r17,Z+21
 514 0036 0C0F      		add r16,r28
 515 0038 1D1F      		adc r17,r29
 516 003a B501      		movw r22,r10
 517 003c F801      		movw r30,r16
 518 003e 8081      		ld r24,Z
 519 0040 9181      		ldd r25,Z+1
 520 0042 0E94 0000 		call strcmp
 521 0046 2496      		adiw r28,4
 522 0048 892B      		or r24,r25
 523 004a 01F4      		brne .L65
 524 004c F801      		movw r30,r16
 525 004e 8281      		ldd r24,Z+2
 526 0050 9381      		ldd r25,Z+3
 527 0052 00C0      		rjmp .L66
 528               	.L65:
 529 0054 FFEF      		ldi r31,-1
 530 0056 EF1A      		sub r14,r31
 531 0058 FF0A      		sbc r15,r31
 532 005a 00C0      		rjmp .L64
 533               	.L68:
 534 005c 80E0      		ldi r24,0
 535 005e 90E0      		ldi r25,0
 536               	.L66:
 537               	/* epilogue start */
 538 0060 DF91      		pop r29
 539 0062 CF91      		pop r28
 540 0064 1F91      		pop r17
 541 0066 0F91      		pop r16
 542 0068 FF90      		pop r15
 543 006a EF90      		pop r14
 544 006c DF90      		pop r13
 545 006e CF90      		pop r12
 546 0070 BF90      		pop r11
 547 0072 AF90      		pop r10
 548 0074 9F90      		pop r9
 549 0076 8F90      		pop r8
 550 0078 0895      		ret
 551               		.size	NutHttpGetParameter, .-NutHttpGetParameter
 552               		.section	.text.NutHttpGetParameterCount,"ax",@progbits
 553               	.global	NutHttpGetParameterCount
 554               		.type	NutHttpGetParameterCount, @function
 555               	NutHttpGetParameterCount:
 556               	/* prologue: function */
 557               	/* frame size = 0 */
 558               	/* stack size = 0 */
 559               	.L__stack_usage = 0
 560 0000 FC01      		movw r30,r24
 561 0002 8689      		ldd r24,Z+22
 562 0004 9789      		ldd r25,Z+23
 563 0006 0895      		ret
 564               		.size	NutHttpGetParameterCount, .-NutHttpGetParameterCount
 565               		.section	.text.NutHttpGetParameterName,"ax",@progbits
 566               	.global	NutHttpGetParameterName
GAS LISTING /tmp/ccAnaEr7.s 			page 11


 567               		.type	NutHttpGetParameterName, @function
 568               	NutHttpGetParameterName:
 569               	/* prologue: function */
 570               	/* frame size = 0 */
 571               	/* stack size = 0 */
 572               	.L__stack_usage = 0
 573 0000 77FD      		sbrc r23,7
 574 0002 00C0      		rjmp .L73
 575 0004 DC01      		movw r26,r24
 576 0006 5696      		adiw r26,22
 577 0008 2D91      		ld r18,X+
 578 000a 3C91      		ld r19,X
 579 000c 5797      		sbiw r26,22+1
 580 000e 6217      		cp r22,r18
 581 0010 7307      		cpc r23,r19
 582 0012 04F4      		brge .L73
 583 0014 660F      		lsl r22
 584 0016 771F      		rol r23
 585 0018 660F      		lsl r22
 586 001a 771F      		rol r23
 587 001c 5496      		adiw r26,20
 588 001e ED91      		ld r30,X+
 589 0020 FC91      		ld r31,X
 590 0022 5597      		sbiw r26,20+1
 591 0024 E60F      		add r30,r22
 592 0026 F71F      		adc r31,r23
 593 0028 8081      		ld r24,Z
 594 002a 9181      		ldd r25,Z+1
 595 002c 0895      		ret
 596               	.L73:
 597 002e 80E0      		ldi r24,0
 598 0030 90E0      		ldi r25,0
 599 0032 0895      		ret
 600               		.size	NutHttpGetParameterName, .-NutHttpGetParameterName
 601               		.section	.text.NutHttpGetParameterValue,"ax",@progbits
 602               	.global	NutHttpGetParameterValue
 603               		.type	NutHttpGetParameterValue, @function
 604               	NutHttpGetParameterValue:
 605               	/* prologue: function */
 606               	/* frame size = 0 */
 607               	/* stack size = 0 */
 608               	.L__stack_usage = 0
 609 0000 77FD      		sbrc r23,7
 610 0002 00C0      		rjmp .L77
 611 0004 DC01      		movw r26,r24
 612 0006 5696      		adiw r26,22
 613 0008 2D91      		ld r18,X+
 614 000a 3C91      		ld r19,X
 615 000c 5797      		sbiw r26,22+1
 616 000e 6217      		cp r22,r18
 617 0010 7307      		cpc r23,r19
 618 0012 04F4      		brge .L77
 619 0014 660F      		lsl r22
 620 0016 771F      		rol r23
 621 0018 660F      		lsl r22
 622 001a 771F      		rol r23
 623 001c 5496      		adiw r26,20
GAS LISTING /tmp/ccAnaEr7.s 			page 12


 624 001e ED91      		ld r30,X+
 625 0020 FC91      		ld r31,X
 626 0022 5597      		sbiw r26,20+1
 627 0024 E60F      		add r30,r22
 628 0026 F71F      		adc r31,r23
 629 0028 8281      		ldd r24,Z+2
 630 002a 9381      		ldd r25,Z+3
 631 002c 0895      		ret
 632               	.L77:
 633 002e 80E0      		ldi r24,0
 634 0030 90E0      		ldi r25,0
 635 0032 0895      		ret
 636               		.size	NutHttpGetParameterValue, .-NutHttpGetParameterValue
 637               		.ident	"GCC: (GNU) 5.3.0"
 638               	.global __do_copy_data
GAS LISTING /tmp/ccAnaEr7.s 			page 13


DEFINED SYMBOLS
                            *ABS*:0000000000000000 httpopt.c
     /tmp/ccAnaEr7.s:2      *ABS*:000000000000003e __SP_H__
     /tmp/ccAnaEr7.s:3      *ABS*:000000000000003d __SP_L__
     /tmp/ccAnaEr7.s:4      *ABS*:000000000000003f __SREG__
     /tmp/ccAnaEr7.s:5      *ABS*:000000000000003b __RAMPZ__
     /tmp/ccAnaEr7.s:6      *ABS*:0000000000000000 __tmp_reg__
     /tmp/ccAnaEr7.s:7      *ABS*:0000000000000001 __zero_reg__
     /tmp/ccAnaEr7.s:11     .text.NutSetMimeHandler:0000000000000000 NutSetMimeHandler
     /tmp/ccAnaEr7.s:79     .text.NutHttpURLEncode:0000000000000000 NutHttpURLEncode
     /tmp/ccAnaEr7.s:244    .text.NutHttpProcessPostQuery:0000000000000000 NutHttpProcessPostQuery
     /tmp/ccAnaEr7.s:481    .text.NutHttpGetParameter:0000000000000000 NutHttpGetParameter
     /tmp/ccAnaEr7.s:555    .text.NutHttpGetParameterCount:0000000000000000 NutHttpGetParameterCount
     /tmp/ccAnaEr7.s:568    .text.NutHttpGetParameterName:0000000000000000 NutHttpGetParameterName
     /tmp/ccAnaEr7.s:604    .text.NutHttpGetParameterValue:0000000000000000 NutHttpGetParameterValue

UNDEFINED SYMBOLS
mimeTypes
strcasecmp
isalnum
malloc
memset
fread
free
NutHttpURLDecode
strcmp
__do_copy_data
