GAS LISTING /tmp/ccANhZkH.s 			page 1


   1               		.file	"soap.c"
   2               	__SP_H__ = 0x3e
   3               	__SP_L__ = 0x3d
   4               	__SREG__ = 0x3f
   5               	__RAMPZ__ = 0x3b
   6               	__tmp_reg__ = 0
   7               	__zero_reg__ = 1
   8               		.section	.text.SoapProcByName,"ax",@progbits
   9               	.global	SoapProcByName
  10               		.type	SoapProcByName, @function
  11               	SoapProcByName:
  12 0000 0F93      		push r16
  13 0002 1F93      		push r17
  14 0004 CF93      		push r28
  15 0006 DF93      		push r29
  16               	/* prologue: function */
  17               	/* frame size = 0 */
  18               	/* stack size = 4 */
  19               	.L__stack_usage = 4
  20 0008 EC01      		movw r28,r24
  21 000a 8B01      		movw r16,r22
  22               	.L2:
  23 000c 2097      		sbiw r28,0
  24 000e 01F0      		breq .L3
  25 0010 B801      		movw r22,r16
  26 0012 8A81      		ldd r24,Y+2
  27 0014 9B81      		ldd r25,Y+3
  28 0016 0E94 0000 		call strcasecmp
  29 001a 892B      		or r24,r25
  30 001c 01F0      		breq .L3
  31 001e 0990      		ld __tmp_reg__,Y+
  32 0020 D881      		ld r29,Y
  33 0022 C02D      		mov r28,__tmp_reg__
  34 0024 00C0      		rjmp .L2
  35               	.L3:
  36 0026 CE01      		movw r24,r28
  37               	/* epilogue start */
  38 0028 DF91      		pop r29
  39 002a CF91      		pop r28
  40 002c 1F91      		pop r17
  41 002e 0F91      		pop r16
  42 0030 0895      		ret
  43               		.size	SoapProcByName, .-SoapProcByName
  44               		.section	.text.SoapArgByName,"ax",@progbits
  45               	.global	SoapArgByName
  46               		.type	SoapArgByName, @function
  47               	SoapArgByName:
  48 0000 0F93      		push r16
  49 0002 1F93      		push r17
  50 0004 CF93      		push r28
  51 0006 DF93      		push r29
  52               	/* prologue: function */
  53               	/* frame size = 0 */
  54               	/* stack size = 4 */
  55               	.L__stack_usage = 4
  56 0008 8B01      		movw r16,r22
  57 000a FC01      		movw r30,r24
GAS LISTING /tmp/ccANhZkH.s 			page 2


  58 000c 452B      		or r20,r21
  59 000e 01F0      		breq .L10
  60 0010 C681      		ldd r28,Z+6
  61 0012 D781      		ldd r29,Z+7
  62 0014 00C0      		rjmp .L12
  63               	.L10:
  64 0016 C481      		ldd r28,Z+4
  65 0018 D581      		ldd r29,Z+5
  66 001a 00C0      		rjmp .L12
  67               	.L14:
  68 001c B801      		movw r22,r16
  69 001e 8A81      		ldd r24,Y+2
  70 0020 9B81      		ldd r25,Y+3
  71 0022 0E94 0000 		call strcasecmp
  72 0026 892B      		or r24,r25
  73 0028 01F0      		breq .L13
  74 002a 0990      		ld __tmp_reg__,Y+
  75 002c D881      		ld r29,Y
  76 002e C02D      		mov r28,__tmp_reg__
  77               	.L12:
  78 0030 2097      		sbiw r28,0
  79 0032 01F4      		brne .L14
  80               	.L13:
  81 0034 CE01      		movw r24,r28
  82               	/* epilogue start */
  83 0036 DF91      		pop r29
  84 0038 CF91      		pop r28
  85 003a 1F91      		pop r17
  86 003c 0F91      		pop r16
  87 003e 0895      		ret
  88               		.size	SoapArgByName, .-SoapArgByName
  89               		.section	.text.SoapProcArgSet,"ax",@progbits
  90               	.global	SoapProcArgSet
  91               		.type	SoapProcArgSet, @function
  92               	SoapProcArgSet:
  93 0000 0F93      		push r16
  94 0002 1F93      		push r17
  95 0004 CF93      		push r28
  96 0006 DF93      		push r29
  97               	/* prologue: function */
  98               	/* frame size = 0 */
  99               	/* stack size = 4 */
 100               	.L__stack_usage = 4
 101 0008 8A01      		movw r16,r20
 102 000a A901      		movw r20,r18
 103 000c 0E94 0000 		call SoapArgByName
 104 0010 EC01      		movw r28,r24
 105 0012 892B      		or r24,r25
 106 0014 01F0      		breq .L21
 107 0016 8C81      		ldd r24,Y+4
 108 0018 9D81      		ldd r25,Y+5
 109 001a 0E94 0000 		call free
 110 001e 0115      		cp r16,__zero_reg__
 111 0020 1105      		cpc r17,__zero_reg__
 112 0022 01F0      		breq .L22
 113 0024 C801      		movw r24,r16
 114 0026 0E94 0000 		call strdup
GAS LISTING /tmp/ccANhZkH.s 			page 3


 115 002a 00C0      		rjmp .L20
 116               	.L22:
 117 002c 80E0      		ldi r24,0
 118 002e 90E0      		ldi r25,0
 119               	.L20:
 120 0030 9D83      		std Y+5,r25
 121 0032 8C83      		std Y+4,r24
 122 0034 80E0      		ldi r24,0
 123 0036 90E0      		ldi r25,0
 124 0038 00C0      		rjmp .L19
 125               	.L21:
 126 003a 8FEF      		ldi r24,lo8(-1)
 127 003c 9FEF      		ldi r25,lo8(-1)
 128               	.L19:
 129               	/* epilogue start */
 130 003e DF91      		pop r29
 131 0040 CF91      		pop r28
 132 0042 1F91      		pop r17
 133 0044 0F91      		pop r16
 134 0046 0895      		ret
 135               		.size	SoapProcArgSet, .-SoapProcArgSet
 136               		.section	.rodata.str1.1,"aMS",@progbits,1
 137               	.LC0:
 138 0000 2564 00   		.string	"%d"
 139               		.section	.text.SoapProcArgSetInt,"ax",@progbits
 140               	.global	SoapProcArgSetInt
 141               		.type	SoapProcArgSetInt, @function
 142               	SoapProcArgSetInt:
 143 0000 0F93      		push r16
 144 0002 1F93      		push r17
 145 0004 CF93      		push r28
 146 0006 DF93      		push r29
 147 0008 00D0      		rcall .
 148 000a 1F92      		push __zero_reg__
 149 000c CDB7      		in r28,__SP_L__
 150 000e DEB7      		in r29,__SP_H__
 151               	/* prologue: function */
 152               	/* frame size = 4 */
 153               	/* stack size = 8 */
 154               	.L__stack_usage = 8
 155 0010 8C01      		movw r16,r24
 156 0012 5F93      		push r21
 157 0014 4F93      		push r20
 158 0016 80E0      		ldi r24,lo8(.LC0)
 159 0018 90E0      		ldi r25,hi8(.LC0)
 160 001a 9F93      		push r25
 161 001c 8F93      		push r24
 162 001e 80E0      		ldi r24,lo8(str.2655)
 163 0020 90E0      		ldi r25,hi8(str.2655)
 164 0022 9F93      		push r25
 165 0024 8F93      		push r24
 166 0026 2B83      		std Y+3,r18
 167 0028 3C83      		std Y+4,r19
 168 002a 6983      		std Y+1,r22
 169 002c 7A83      		std Y+2,r23
 170 002e 0E94 0000 		call sprintf
 171 0032 0F90      		pop __tmp_reg__
GAS LISTING /tmp/ccANhZkH.s 			page 4


 172 0034 0F90      		pop __tmp_reg__
 173 0036 0F90      		pop __tmp_reg__
 174 0038 0F90      		pop __tmp_reg__
 175 003a 0F90      		pop __tmp_reg__
 176 003c 0F90      		pop __tmp_reg__
 177 003e 2B81      		ldd r18,Y+3
 178 0040 3C81      		ldd r19,Y+4
 179 0042 40E0      		ldi r20,lo8(str.2655)
 180 0044 50E0      		ldi r21,hi8(str.2655)
 181 0046 6981      		ldd r22,Y+1
 182 0048 7A81      		ldd r23,Y+2
 183 004a C801      		movw r24,r16
 184               	/* epilogue start */
 185 004c 0F90      		pop __tmp_reg__
 186 004e 0F90      		pop __tmp_reg__
 187 0050 0F90      		pop __tmp_reg__
 188 0052 0F90      		pop __tmp_reg__
 189 0054 DF91      		pop r29
 190 0056 CF91      		pop r28
 191 0058 1F91      		pop r17
 192 005a 0F91      		pop r16
 193 005c 0C94 0000 		jmp SoapProcArgSet
 194               		.size	SoapProcArgSetInt, .-SoapProcArgSetInt
 195               		.section	.text.SoapProcArgGet,"ax",@progbits
 196               	.global	SoapProcArgGet
 197               		.type	SoapProcArgGet, @function
 198               	SoapProcArgGet:
 199               	/* prologue: function */
 200               	/* frame size = 0 */
 201               	/* stack size = 0 */
 202               	.L__stack_usage = 0
 203 0000 0E94 0000 		call SoapArgByName
 204 0004 0097      		sbiw r24,0
 205 0006 01F0      		breq .L26
 206 0008 FC01      		movw r30,r24
 207 000a 8481      		ldd r24,Z+4
 208 000c 9581      		ldd r25,Z+5
 209 000e 0895      		ret
 210               	.L26:
 211 0010 80E0      		ldi r24,0
 212 0012 90E0      		ldi r25,0
 213 0014 0895      		ret
 214               		.size	SoapProcArgGet, .-SoapProcArgGet
 215               		.section	.text.SoapProcArgGetInt,"ax",@progbits
 216               	.global	SoapProcArgGetInt
 217               		.type	SoapProcArgGetInt, @function
 218               	SoapProcArgGetInt:
 219               	/* prologue: function */
 220               	/* frame size = 0 */
 221               	/* stack size = 0 */
 222               	.L__stack_usage = 0
 223 0000 0E94 0000 		call SoapProcArgGet
 224 0004 0097      		sbiw r24,0
 225 0006 01F0      		breq .L28
 226 0008 0C94 0000 		jmp atoi
 227               	.L28:
 228 000c 80E0      		ldi r24,0
GAS LISTING /tmp/ccANhZkH.s 			page 5


 229 000e 90E0      		ldi r25,0
 230 0010 0895      		ret
 231               		.size	SoapProcArgGetInt, .-SoapProcArgGetInt
 232               		.local	str.2655
 233               		.comm	str.2655,16,1
 234               		.ident	"GCC: (GNU) 5.3.0"
 235               	.global __do_copy_data
 236               	.global __do_clear_bss
GAS LISTING /tmp/ccANhZkH.s 			page 6


DEFINED SYMBOLS
                            *ABS*:0000000000000000 soap.c
     /tmp/ccANhZkH.s:2      *ABS*:000000000000003e __SP_H__
     /tmp/ccANhZkH.s:3      *ABS*:000000000000003d __SP_L__
     /tmp/ccANhZkH.s:4      *ABS*:000000000000003f __SREG__
     /tmp/ccANhZkH.s:5      *ABS*:000000000000003b __RAMPZ__
     /tmp/ccANhZkH.s:6      *ABS*:0000000000000000 __tmp_reg__
     /tmp/ccANhZkH.s:7      *ABS*:0000000000000001 __zero_reg__
     /tmp/ccANhZkH.s:11     .text.SoapProcByName:0000000000000000 SoapProcByName
     /tmp/ccANhZkH.s:47     .text.SoapArgByName:0000000000000000 SoapArgByName
     /tmp/ccANhZkH.s:92     .text.SoapProcArgSet:0000000000000000 SoapProcArgSet
     /tmp/ccANhZkH.s:142    .text.SoapProcArgSetInt:0000000000000000 SoapProcArgSetInt
                             .bss:0000000000000000 str.2655
     /tmp/ccANhZkH.s:198    .text.SoapProcArgGet:0000000000000000 SoapProcArgGet
     /tmp/ccANhZkH.s:218    .text.SoapProcArgGetInt:0000000000000000 SoapProcArgGetInt

UNDEFINED SYMBOLS
strcasecmp
free
strdup
sprintf
atoi
__do_copy_data
__do_clear_bss
