GAS LISTING /tmp/ccCB8bF8.s 			page 1


   1               		.file	"lapi.c"
   2               	__SP_H__ = 0x3e
   3               	__SP_L__ = 0x3d
   4               	__SREG__ = 0x3f
   5               	__RAMPZ__ = 0x3b
   6               	__tmp_reg__ = 0
   7               	__zero_reg__ = 1
   8               		.section	.text.getcurrenv,"ax",@progbits
   9               		.type	getcurrenv, @function
  10               	getcurrenv:
  11               	/* prologue: function */
  12               	/* frame size = 0 */
  13               	/* stack size = 0 */
  14               	.L__stack_usage = 0
  15 0000 FC01      		movw r30,r24
  16 0002 A385      		ldd r26,Z+11
  17 0004 B485      		ldd r27,Z+12
  18 0006 8589      		ldd r24,Z+21
  19 0008 9689      		ldd r25,Z+22
  20 000a A817      		cp r26,r24
  21 000c B907      		cpc r27,r25
  22 000e 01F4      		brne .L2
  23               	.L4:
  24 0010 87A1      		ldd r24,Z+39
  25 0012 90A5      		ldd r25,Z+40
  26 0014 0895      		ret
  27               	.L2:
  28 0016 1296      		adiw r26,2
  29 0018 0D90      		ld __tmp_reg__,X+
  30 001a BC91      		ld r27,X
  31 001c A02D      		mov r26,__tmp_reg__
  32 001e 1496      		adiw r26,4
  33 0020 8D91      		ld r24,X+
  34 0022 9C91      		ld r25,X
  35 0024 1597      		sbiw r26,4+1
  36 0026 0897      		sbiw r24,8
  37 0028 01F4      		brne .L4
  38 002a 0D90      		ld __tmp_reg__,X+
  39 002c BC91      		ld r27,X
  40 002e A02D      		mov r26,__tmp_reg__
  41 0030 1097      		sbiw r26,0
  42 0032 01F0      		breq .L4
  43 0034 1896      		adiw r26,8
  44 0036 8D91      		ld r24,X+
  45 0038 9C91      		ld r25,X
  46 003a 1997      		sbiw r26,8+1
  47 003c 0895      		ret
  48               		.size	getcurrenv, .-getcurrenv
  49               		.section	.rodata.str1.1,"aMS",@progbits,1
  50               	.LC0:
  51 0000 00        		.string	""
  52               		.section	.text.aux_upvalue,"ax",@progbits
  53               		.type	aux_upvalue, @function
  54               	aux_upvalue:
  55               	/* prologue: function */
  56               	/* frame size = 0 */
  57               	/* stack size = 0 */
GAS LISTING /tmp/ccCB8bF8.s 			page 2


  58               	.L__stack_usage = 0
  59 0000 DC01      		movw r26,r24
  60 0002 1496      		adiw r26,4
  61 0004 2D91      		ld r18,X+
  62 0006 3C91      		ld r19,X
  63 0008 1597      		sbiw r26,4+1
  64 000a 2830      		cpi r18,8
  65 000c 3105      		cpc r19,__zero_reg__
  66 000e 01F0      		breq .+2
  67 0010 00C0      		rjmp .L16
  68 0012 ED91      		ld r30,X+
  69 0014 FC91      		ld r31,X
  70 0016 8481      		ldd r24,Z+4
  71 0018 8823      		tst r24
  72 001a 01F0      		breq .L11
  73 001c 1616      		cp __zero_reg__,r22
  74 001e 1706      		cpc __zero_reg__,r23
  75 0020 04F4      		brge .L16
  76 0022 8581      		ldd r24,Z+5
  77 0024 90E0      		ldi r25,0
  78 0026 8617      		cp r24,r22
  79 0028 9707      		cpc r25,r23
  80 002a 04F0      		brlt .L16
  81 002c 6150      		subi r22,1
  82 002e 7109      		sbc r23,__zero_reg__
  83 0030 26E0      		ldi r18,lo8(6)
  84 0032 269F      		mul r18,r22
  85 0034 C001      		movw r24,r0
  86 0036 279F      		mul r18,r23
  87 0038 900D      		add r25,r0
  88 003a 1124      		clr __zero_reg__
  89 003c 0C96      		adiw r24,12
  90 003e E80F      		add r30,r24
  91 0040 F91F      		adc r31,r25
  92 0042 DA01      		movw r26,r20
  93 0044 ED93      		st X+,r30
  94 0046 FC93      		st X,r31
  95 0048 80E0      		ldi r24,lo8(.LC0)
  96 004a 90E0      		ldi r25,hi8(.LC0)
  97 004c 0895      		ret
  98               	.L11:
  99 004e A285      		ldd r26,Z+10
 100 0050 B385      		ldd r27,Z+11
 101 0052 1616      		cp __zero_reg__,r22
 102 0054 1706      		cpc __zero_reg__,r23
 103 0056 04F4      		brge .L16
 104 0058 5296      		adiw r26,18
 105 005a 8D91      		ld r24,X+
 106 005c 9C91      		ld r25,X
 107 005e 5397      		sbiw r26,18+1
 108 0060 8617      		cp r24,r22
 109 0062 9707      		cpc r25,r23
 110 0064 04F0      		brlt .L16
 111 0066 CB01      		movw r24,r22
 112 0068 0596      		adiw r24,5
 113 006a 880F      		lsl r24
 114 006c 991F      		rol r25
GAS LISTING /tmp/ccCB8bF8.s 			page 3


 115 006e E80F      		add r30,r24
 116 0070 F91F      		adc r31,r25
 117 0072 0190      		ld __tmp_reg__,Z+
 118 0074 F081      		ld r31,Z
 119 0076 E02D      		mov r30,__tmp_reg__
 120 0078 8481      		ldd r24,Z+4
 121 007a 9581      		ldd r25,Z+5
 122 007c FA01      		movw r30,r20
 123 007e 9183      		std Z+1,r25
 124 0080 8083      		st Z,r24
 125 0082 6150      		subi r22,1
 126 0084 7048      		sbci r23,-128
 127 0086 660F      		lsl r22
 128 0088 771F      		rol r23
 129 008a 1E96      		adiw r26,14
 130 008c ED91      		ld r30,X+
 131 008e FC91      		ld r31,X
 132 0090 1F97      		sbiw r26,14+1
 133 0092 E60F      		add r30,r22
 134 0094 F71F      		adc r31,r23
 135 0096 8081      		ld r24,Z
 136 0098 9181      		ldd r25,Z+1
 137 009a 0996      		adiw r24,9
 138 009c 0895      		ret
 139               	.L16:
 140 009e 80E0      		ldi r24,0
 141 00a0 90E0      		ldi r25,0
 142 00a2 0895      		ret
 143               		.size	aux_upvalue, .-aux_upvalue
 144               		.section	.text.f_call,"ax",@progbits
 145               		.type	f_call, @function
 146               	f_call:
 147               	/* prologue: function */
 148               	/* frame size = 0 */
 149               	/* stack size = 0 */
 150               	.L__stack_usage = 0
 151 0000 FB01      		movw r30,r22
 152 0002 4281      		ldd r20,Z+2
 153 0004 5381      		ldd r21,Z+3
 154 0006 6081      		ld r22,Z
 155 0008 7181      		ldd r23,Z+1
 156 000a 0C94 0000 		jmp luaD_call
 157               		.size	f_call, .-f_call
 158               		.section	.text.f_Ccall,"ax",@progbits
 159               		.type	f_Ccall, @function
 160               	f_Ccall:
 161 0000 0F93      		push r16
 162 0002 1F93      		push r17
 163 0004 CF93      		push r28
 164 0006 DF93      		push r29
 165               	/* prologue: function */
 166               	/* frame size = 0 */
 167               	/* stack size = 4 */
 168               	.L__stack_usage = 4
 169 0008 EC01      		movw r28,r24
 170 000a 8B01      		movw r16,r22
 171 000c 0E94 0000 		call getcurrenv
GAS LISTING /tmp/ccCB8bF8.s 			page 4


 172 0010 AC01      		movw r20,r24
 173 0012 60E0      		ldi r22,0
 174 0014 70E0      		ldi r23,0
 175 0016 CE01      		movw r24,r28
 176 0018 0E94 0000 		call luaF_newCclosure
 177 001c D801      		movw r26,r16
 178 001e 2D91      		ld r18,X+
 179 0020 3C91      		ld r19,X
 180 0022 1197      		sbiw r26,1
 181 0024 FC01      		movw r30,r24
 182 0026 3387      		std Z+11,r19
 183 0028 2287      		std Z+10,r18
 184 002a ED81      		ldd r30,Y+5
 185 002c FE81      		ldd r31,Y+6
 186 002e 9183      		std Z+1,r25
 187 0030 8083      		st Z,r24
 188 0032 88E0      		ldi r24,lo8(8)
 189 0034 90E0      		ldi r25,0
 190 0036 9583      		std Z+5,r25
 191 0038 8483      		std Z+4,r24
 192 003a ED81      		ldd r30,Y+5
 193 003c FE81      		ldd r31,Y+6
 194 003e CF01      		movw r24,r30
 195 0040 0696      		adiw r24,6
 196 0042 9E83      		std Y+6,r25
 197 0044 8D83      		std Y+5,r24
 198 0046 1296      		adiw r26,2
 199 0048 8D91      		ld r24,X+
 200 004a 9C91      		ld r25,X
 201 004c 1397      		sbiw r26,2+1
 202 004e 9783      		std Z+7,r25
 203 0050 8683      		std Z+6,r24
 204 0052 84E0      		ldi r24,lo8(4)
 205 0054 90E0      		ldi r25,0
 206 0056 9387      		std Z+11,r25
 207 0058 8287      		std Z+10,r24
 208 005a 6D81      		ldd r22,Y+5
 209 005c 7E81      		ldd r23,Y+6
 210 005e CB01      		movw r24,r22
 211 0060 0696      		adiw r24,6
 212 0062 9E83      		std Y+6,r25
 213 0064 8D83      		std Y+5,r24
 214 0066 6650      		subi r22,6
 215 0068 7109      		sbc r23,__zero_reg__
 216 006a 40E0      		ldi r20,0
 217 006c 50E0      		ldi r21,0
 218 006e CE01      		movw r24,r28
 219               	/* epilogue start */
 220 0070 DF91      		pop r29
 221 0072 CF91      		pop r28
 222 0074 1F91      		pop r17
 223 0076 0F91      		pop r16
 224 0078 0C94 0000 		jmp luaD_call
 225               		.size	f_Ccall, .-f_Ccall
 226               		.section	.text.index2adr,"ax",@progbits
 227               		.type	index2adr, @function
 228               	index2adr:
GAS LISTING /tmp/ccCB8bF8.s 			page 5


 229               	/* prologue: function */
 230               	/* frame size = 0 */
 231               	/* stack size = 0 */
 232               	.L__stack_usage = 0
 233 0000 FC01      		movw r30,r24
 234 0002 1616      		cp __zero_reg__,r22
 235 0004 1706      		cpc __zero_reg__,r23
 236 0006 04F4      		brge .L20
 237 0008 26E0      		ldi r18,lo8(6)
 238 000a 269F      		mul r18,r22
 239 000c C001      		movw r24,r0
 240 000e 279F      		mul r18,r23
 241 0010 900D      		add r25,r0
 242 0012 1124      		clr __zero_reg__
 243 0014 0697      		sbiw r24,6
 244 0016 2781      		ldd r18,Z+7
 245 0018 3085      		ldd r19,Z+8
 246 001a 820F      		add r24,r18
 247 001c 931F      		adc r25,r19
 248 001e 2581      		ldd r18,Z+5
 249 0020 3681      		ldd r19,Z+6
 250 0022 8217      		cp r24,r18
 251 0024 9307      		cpc r25,r19
 252 0026 00F4      		brsh .+2
 253 0028 00C0      		rjmp .L21
 254 002a 00C0      		rjmp .L32
 255               	.L20:
 256 002c 613F      		cpi r22,-15
 257 002e 88ED      		ldi r24,-40
 258 0030 7807      		cpc r23,r24
 259 0032 04F0      		brlt .L22
 260 0034 86E0      		ldi r24,lo8(6)
 261 0036 869F      		mul r24,r22
 262 0038 9001      		movw r18,r0
 263 003a 879F      		mul r24,r23
 264 003c 300D      		add r19,r0
 265 003e 1124      		clr __zero_reg__
 266 0040 8581      		ldd r24,Z+5
 267 0042 9681      		ldd r25,Z+6
 268 0044 820F      		add r24,r18
 269 0046 931F      		adc r25,r19
 270 0048 0895      		ret
 271               	.L22:
 272 004a 6F3E      		cpi r22,-17
 273 004c 88ED      		ldi r24,-40
 274 004e 7807      		cpc r23,r24
 275 0050 01F0      		breq .L24
 276 0052 603F      		cpi r22,-16
 277 0054 88ED      		ldi r24,-40
 278 0056 7807      		cpc r23,r24
 279 0058 01F0      		breq .L25
 280 005a 6E3E      		cpi r22,-18
 281 005c 88ED      		ldi r24,-40
 282 005e 7807      		cpc r23,r24
 283 0060 01F4      		brne .L36
 284 0062 CF01      		movw r24,r30
 285 0064 8796      		adiw r24,39
GAS LISTING /tmp/ccCB8bF8.s 			page 6


 286 0066 0895      		ret
 287               	.L25:
 288 0068 8185      		ldd r24,Z+9
 289 006a 9285      		ldd r25,Z+10
 290 006c C896      		adiw r24,56
 291 006e 0895      		ret
 292               	.L24:
 293 0070 A385      		ldd r26,Z+11
 294 0072 B485      		ldd r27,Z+12
 295 0074 1296      		adiw r26,2
 296 0076 0D90      		ld __tmp_reg__,X+
 297 0078 BC91      		ld r27,X
 298 007a A02D      		mov r26,__tmp_reg__
 299 007c 1496      		adiw r26,4
 300 007e 8D91      		ld r24,X+
 301 0080 9C91      		ld r25,X
 302 0082 1597      		sbiw r26,4+1
 303 0084 0897      		sbiw r24,8
 304 0086 01F4      		brne .L27
 305 0088 0D90      		ld __tmp_reg__,X+
 306 008a BC91      		ld r27,X
 307 008c A02D      		mov r26,__tmp_reg__
 308 008e 1097      		sbiw r26,0
 309 0090 01F0      		breq .L27
 310 0092 1896      		adiw r26,8
 311 0094 8D91      		ld r24,X+
 312 0096 9C91      		ld r25,X
 313 0098 1997      		sbiw r26,8+1
 314 009a 00C0      		rjmp .L28
 315               	.L27:
 316 009c 87A1      		ldd r24,Z+39
 317 009e 90A5      		ldd r25,Z+40
 318               	.L28:
 319 00a0 96A7      		std Z+46,r25
 320 00a2 85A7      		std Z+45,r24
 321 00a4 87E0      		ldi r24,lo8(7)
 322 00a6 90E0      		ldi r25,0
 323 00a8 92AB      		std Z+50,r25
 324 00aa 81AB      		std Z+49,r24
 325 00ac CF01      		movw r24,r30
 326 00ae 8D96      		adiw r24,45
 327 00b0 0895      		ret
 328               	.L36:
 329 00b2 0384      		ldd __tmp_reg__,Z+11
 330 00b4 F485      		ldd r31,Z+12
 331 00b6 E02D      		mov r30,__tmp_reg__
 332 00b8 0280      		ldd __tmp_reg__,Z+2
 333 00ba F381      		ldd r31,Z+3
 334 00bc E02D      		mov r30,__tmp_reg__
 335 00be 8481      		ldd r24,Z+4
 336 00c0 9581      		ldd r25,Z+5
 337 00c2 0897      		sbiw r24,8
 338 00c4 01F4      		brne .L32
 339 00c6 0190      		ld __tmp_reg__,Z+
 340 00c8 F081      		ld r31,Z
 341 00ca E02D      		mov r30,__tmp_reg__
 342 00cc 3097      		sbiw r30,0
GAS LISTING /tmp/ccCB8bF8.s 			page 7


 343 00ce 01F0      		breq .L32
 344 00d0 2EEE      		ldi r18,lo8(-18)
 345 00d2 38ED      		ldi r19,lo8(-40)
 346 00d4 261B      		sub r18,r22
 347 00d6 370B      		sbc r19,r23
 348 00d8 8581      		ldd r24,Z+5
 349 00da 90E0      		ldi r25,0
 350 00dc 8217      		cp r24,r18
 351 00de 9307      		cpc r25,r19
 352 00e0 04F0      		brlt .L32
 353 00e2 2DEE      		ldi r18,lo8(-19)
 354 00e4 38ED      		ldi r19,lo8(-40)
 355 00e6 261B      		sub r18,r22
 356 00e8 370B      		sbc r19,r23
 357 00ea 46E0      		ldi r20,lo8(6)
 358 00ec 429F      		mul r20,r18
 359 00ee C001      		movw r24,r0
 360 00f0 439F      		mul r20,r19
 361 00f2 900D      		add r25,r0
 362 00f4 1124      		clr __zero_reg__
 363 00f6 0C96      		adiw r24,12
 364 00f8 8E0F      		add r24,r30
 365 00fa 9F1F      		adc r25,r31
 366 00fc 0895      		ret
 367               	.L32:
 368 00fe 80E0      		ldi r24,lo8(luaO_nilobject_)
 369 0100 90E0      		ldi r25,hi8(luaO_nilobject_)
 370               	.L21:
 371 0102 0895      		ret
 372               		.size	index2adr, .-index2adr
 373               		.section	.text.luaA_pushobject,"ax",@progbits
 374               	.global	luaA_pushobject
 375               		.hidden	luaA_pushobject
 376               		.type	luaA_pushobject, @function
 377               	luaA_pushobject:
 378 0000 0F93      		push r16
 379 0002 1F93      		push r17
 380               	/* prologue: function */
 381               	/* frame size = 0 */
 382               	/* stack size = 2 */
 383               	.L__stack_usage = 2
 384 0004 DC01      		movw r26,r24
 385 0006 1596      		adiw r26,5
 386 0008 ED91      		ld r30,X+
 387 000a FC91      		ld r31,X
 388 000c 1697      		sbiw r26,5+1
 389 000e DB01      		movw r26,r22
 390 0010 0D91      		ld r16,X+
 391 0012 1D91      		ld r17,X+
 392 0014 2D91      		ld r18,X+
 393 0016 3C91      		ld r19,X
 394 0018 1397      		sbiw r26,3
 395 001a 0083      		st Z,r16
 396 001c 1183      		std Z+1,r17
 397 001e 2283      		std Z+2,r18
 398 0020 3383      		std Z+3,r19
 399 0022 1496      		adiw r26,4
GAS LISTING /tmp/ccCB8bF8.s 			page 8


 400 0024 2D91      		ld r18,X+
 401 0026 3C91      		ld r19,X
 402 0028 1597      		sbiw r26,4+1
 403 002a 3583      		std Z+5,r19
 404 002c 2483      		std Z+4,r18
 405 002e 3696      		adiw r30,6
 406 0030 DC01      		movw r26,r24
 407 0032 1696      		adiw r26,5+1
 408 0034 FC93      		st X,r31
 409 0036 EE93      		st -X,r30
 410 0038 1597      		sbiw r26,5
 411               	/* epilogue start */
 412 003a 1F91      		pop r17
 413 003c 0F91      		pop r16
 414 003e 0895      		ret
 415               		.size	luaA_pushobject, .-luaA_pushobject
 416               		.section	.text.lua_checkstack,"ax",@progbits
 417               	.global	lua_checkstack
 418               		.type	lua_checkstack, @function
 419               	lua_checkstack:
 420 0000 0F93      		push r16
 421 0002 1F93      		push r17
 422 0004 CF93      		push r28
 423 0006 DF93      		push r29
 424               	/* prologue: function */
 425               	/* frame size = 0 */
 426               	/* stack size = 4 */
 427               	.L__stack_usage = 4
 428 0008 EC01      		movw r28,r24
 429 000a 8B01      		movw r16,r22
 430 000c 6134      		cpi r22,65
 431 000e 7F41      		sbci r23,31
 432 0010 04F0      		brlt .+2
 433 0012 00C0      		rjmp .L44
 434 0014 4D81      		ldd r20,Y+5
 435 0016 5E81      		ldd r21,Y+6
 436 0018 8F81      		ldd r24,Y+7
 437 001a 9885      		ldd r25,Y+8
 438 001c 9A01      		movw r18,r20
 439 001e 281B      		sub r18,r24
 440 0020 390B      		sbc r19,r25
 441 0022 3595      		asr r19
 442 0024 2795      		ror r18
 443 0026 6BEA      		ldi r22,lo8(-85)
 444 0028 7AEA      		ldi r23,lo8(-86)
 445 002a 269F      		mul r18,r22
 446 002c C001      		movw r24,r0
 447 002e 279F      		mul r18,r23
 448 0030 900D      		add r25,r0
 449 0032 369F      		mul r19,r22
 450 0034 900D      		add r25,r0
 451 0036 1124      		clr r1
 452 0038 800F      		add r24,r16
 453 003a 911F      		adc r25,r17
 454 003c 8134      		cpi r24,65
 455 003e 9F41      		sbci r25,31
 456 0040 04F4      		brge .L44
GAS LISTING /tmp/ccCB8bF8.s 			page 9


 457 0042 1016      		cp __zero_reg__,r16
 458 0044 1106      		cpc __zero_reg__,r17
 459 0046 04F4      		brge .L45
 460 0048 8F85      		ldd r24,Y+15
 461 004a 9889      		ldd r25,Y+16
 462 004c 841B      		sub r24,r20
 463 004e 950B      		sbc r25,r21
 464 0050 46E0      		ldi r20,lo8(6)
 465 0052 409F      		mul r20,r16
 466 0054 9001      		movw r18,r0
 467 0056 419F      		mul r20,r17
 468 0058 300D      		add r19,r0
 469 005a 1124      		clr __zero_reg__
 470 005c 2817      		cp r18,r24
 471 005e 3907      		cpc r19,r25
 472 0060 04F0      		brlt .L41
 473 0062 B801      		movw r22,r16
 474 0064 CE01      		movw r24,r28
 475 0066 0E94 0000 		call luaD_growstack
 476               	.L41:
 477 006a EB85      		ldd r30,Y+11
 478 006c FC85      		ldd r31,Y+12
 479 006e 26E0      		ldi r18,lo8(6)
 480 0070 209F      		mul r18,r16
 481 0072 C001      		movw r24,r0
 482 0074 219F      		mul r18,r17
 483 0076 900D      		add r25,r0
 484 0078 1124      		clr __zero_reg__
 485 007a 2D81      		ldd r18,Y+5
 486 007c 3E81      		ldd r19,Y+6
 487 007e 820F      		add r24,r18
 488 0080 931F      		adc r25,r19
 489 0082 2481      		ldd r18,Z+4
 490 0084 3581      		ldd r19,Z+5
 491 0086 2817      		cp r18,r24
 492 0088 3907      		cpc r19,r25
 493 008a 00F4      		brsh .L45
 494 008c 9583      		std Z+5,r25
 495 008e 8483      		std Z+4,r24
 496               	.L45:
 497 0090 81E0      		ldi r24,lo8(1)
 498 0092 90E0      		ldi r25,0
 499 0094 00C0      		rjmp .L39
 500               	.L44:
 501 0096 80E0      		ldi r24,0
 502 0098 90E0      		ldi r25,0
 503               	.L39:
 504               	/* epilogue start */
 505 009a DF91      		pop r29
 506 009c CF91      		pop r28
 507 009e 1F91      		pop r17
 508 00a0 0F91      		pop r16
 509 00a2 0895      		ret
 510               		.size	lua_checkstack, .-lua_checkstack
 511               		.section	.text.lua_xmove,"ax",@progbits
 512               	.global	lua_xmove
 513               		.type	lua_xmove, @function
GAS LISTING /tmp/ccCB8bF8.s 			page 10


 514               	lua_xmove:
 515 0000 CF92      		push r12
 516 0002 DF92      		push r13
 517 0004 EF92      		push r14
 518 0006 FF92      		push r15
 519 0008 0F93      		push r16
 520 000a 1F93      		push r17
 521 000c CF93      		push r28
 522 000e DF93      		push r29
 523               	/* prologue: function */
 524               	/* frame size = 0 */
 525               	/* stack size = 8 */
 526               	.L__stack_usage = 8
 527 0010 FC01      		movw r30,r24
 528 0012 8617      		cp r24,r22
 529 0014 9707      		cpc r25,r23
 530 0016 01F0      		breq .L46
 531 0018 86E0      		ldi r24,lo8(6)
 532 001a 849F      		mul r24,r20
 533 001c 9001      		movw r18,r0
 534 001e 859F      		mul r24,r21
 535 0020 300D      		add r19,r0
 536 0022 1124      		clr __zero_reg__
 537 0024 8581      		ldd r24,Z+5
 538 0026 9681      		ldd r25,Z+6
 539 0028 821B      		sub r24,r18
 540 002a 930B      		sbc r25,r19
 541 002c 9683      		std Z+6,r25
 542 002e 8583      		std Z+5,r24
 543 0030 20E0      		ldi r18,0
 544 0032 30E0      		ldi r19,0
 545 0034 80E0      		ldi r24,0
 546 0036 90E0      		ldi r25,0
 547               	.L48:
 548 0038 8417      		cp r24,r20
 549 003a 9507      		cpc r25,r21
 550 003c 04F4      		brge .L46
 551 003e A581      		ldd r26,Z+5
 552 0040 B681      		ldd r27,Z+6
 553 0042 8D01      		movw r16,r26
 554 0044 020F      		add r16,r18
 555 0046 131F      		adc r17,r19
 556 0048 DB01      		movw r26,r22
 557 004a 1596      		adiw r26,5
 558 004c CD91      		ld r28,X+
 559 004e DC91      		ld r29,X
 560 0050 1697      		sbiw r26,5+1
 561 0052 7E01      		movw r14,r28
 562 0054 B6E0      		ldi r27,6
 563 0056 EB0E      		add r14,r27
 564 0058 F11C      		adc r15,__zero_reg__
 565 005a DB01      		movw r26,r22
 566 005c 1696      		adiw r26,5+1
 567 005e FC92      		st X,r15
 568 0060 EE92      		st -X,r14
 569 0062 1597      		sbiw r26,5
 570 0064 D801      		movw r26,r16
GAS LISTING /tmp/ccCB8bF8.s 			page 11


 571 0066 CD90      		ld r12,X+
 572 0068 DD90      		ld r13,X+
 573 006a ED90      		ld r14,X+
 574 006c FC90      		ld r15,X
 575 006e 1397      		sbiw r26,3
 576 0070 C882      		st Y,r12
 577 0072 D982      		std Y+1,r13
 578 0074 EA82      		std Y+2,r14
 579 0076 FB82      		std Y+3,r15
 580 0078 1496      		adiw r26,4
 581 007a 0D91      		ld r16,X+
 582 007c 1C91      		ld r17,X
 583 007e 1597      		sbiw r26,4+1
 584 0080 1D83      		std Y+5,r17
 585 0082 0C83      		std Y+4,r16
 586 0084 0196      		adiw r24,1
 587 0086 2A5F      		subi r18,-6
 588 0088 3F4F      		sbci r19,-1
 589 008a 00C0      		rjmp .L48
 590               	.L46:
 591               	/* epilogue start */
 592 008c DF91      		pop r29
 593 008e CF91      		pop r28
 594 0090 1F91      		pop r17
 595 0092 0F91      		pop r16
 596 0094 FF90      		pop r15
 597 0096 EF90      		pop r14
 598 0098 DF90      		pop r13
 599 009a CF90      		pop r12
 600 009c 0895      		ret
 601               		.size	lua_xmove, .-lua_xmove
 602               		.section	.text.lua_setlevel,"ax",@progbits
 603               	.global	lua_setlevel
 604               		.type	lua_setlevel, @function
 605               	lua_setlevel:
 606               	/* prologue: function */
 607               	/* frame size = 0 */
 608               	/* stack size = 0 */
 609               	.L__stack_usage = 0
 610 0000 FC01      		movw r30,r24
 611 0002 838D      		ldd r24,Z+27
 612 0004 948D      		ldd r25,Z+28
 613 0006 FB01      		movw r30,r22
 614 0008 948F      		std Z+28,r25
 615 000a 838F      		std Z+27,r24
 616 000c 0895      		ret
 617               		.size	lua_setlevel, .-lua_setlevel
 618               		.section	.text.lua_atpanic,"ax",@progbits
 619               	.global	lua_atpanic
 620               		.type	lua_atpanic, @function
 621               	lua_atpanic:
 622               	/* prologue: function */
 623               	/* frame size = 0 */
 624               	/* stack size = 0 */
 625               	.L__stack_usage = 0
 626 0000 DC01      		movw r26,r24
 627 0002 1996      		adiw r26,9
GAS LISTING /tmp/ccCB8bF8.s 			page 12


 628 0004 ED91      		ld r30,X+
 629 0006 FC91      		ld r31,X
 630 0008 1A97      		sbiw r26,9+1
 631 000a 86A9      		ldd r24,Z+54
 632 000c 97A9      		ldd r25,Z+55
 633 000e 77AB      		std Z+55,r23
 634 0010 66AB      		std Z+54,r22
 635 0012 0895      		ret
 636               		.size	lua_atpanic, .-lua_atpanic
 637               		.section	.text.lua_newthread,"ax",@progbits
 638               	.global	lua_newthread
 639               		.type	lua_newthread, @function
 640               	lua_newthread:
 641 0000 CF93      		push r28
 642 0002 DF93      		push r29
 643               	/* prologue: function */
 644               	/* frame size = 0 */
 645               	/* stack size = 2 */
 646               	.L__stack_usage = 2
 647 0004 EC01      		movw r28,r24
 648 0006 E985      		ldd r30,Y+9
 649 0008 FA85      		ldd r31,Y+10
 650 000a 46A1      		ldd r20,Z+38
 651 000c 57A1      		ldd r21,Z+39
 652 000e 60A5      		ldd r22,Z+40
 653 0010 71A5      		ldd r23,Z+41
 654 0012 82A1      		ldd r24,Z+34
 655 0014 93A1      		ldd r25,Z+35
 656 0016 A4A1      		ldd r26,Z+36
 657 0018 B5A1      		ldd r27,Z+37
 658 001a 4817      		cp r20,r24
 659 001c 5907      		cpc r21,r25
 660 001e 6A07      		cpc r22,r26
 661 0020 7B07      		cpc r23,r27
 662 0022 00F0      		brlo .L54
 663 0024 CE01      		movw r24,r28
 664 0026 0E94 0000 		call luaC_step
 665               	.L54:
 666 002a CE01      		movw r24,r28
 667 002c 0E94 0000 		call luaE_newthread
 668 0030 ED81      		ldd r30,Y+5
 669 0032 FE81      		ldd r31,Y+6
 670 0034 9183      		std Z+1,r25
 671 0036 8083      		st Z,r24
 672 0038 2AE0      		ldi r18,lo8(10)
 673 003a 30E0      		ldi r19,0
 674 003c 3583      		std Z+5,r19
 675 003e 2483      		std Z+4,r18
 676 0040 2D81      		ldd r18,Y+5
 677 0042 3E81      		ldd r19,Y+6
 678 0044 2A5F      		subi r18,-6
 679 0046 3F4F      		sbci r19,-1
 680 0048 3E83      		std Y+6,r19
 681 004a 2D83      		std Y+5,r18
 682               	/* epilogue start */
 683 004c DF91      		pop r29
 684 004e CF91      		pop r28
GAS LISTING /tmp/ccCB8bF8.s 			page 13


 685 0050 0895      		ret
 686               		.size	lua_newthread, .-lua_newthread
 687               		.section	.text.lua_gettop,"ax",@progbits
 688               	.global	lua_gettop
 689               		.type	lua_gettop, @function
 690               	lua_gettop:
 691               	/* prologue: function */
 692               	/* frame size = 0 */
 693               	/* stack size = 0 */
 694               	.L__stack_usage = 0
 695 0000 FC01      		movw r30,r24
 696 0002 8581      		ldd r24,Z+5
 697 0004 9681      		ldd r25,Z+6
 698 0006 2781      		ldd r18,Z+7
 699 0008 3085      		ldd r19,Z+8
 700 000a 821B      		sub r24,r18
 701 000c 930B      		sbc r25,r19
 702 000e 9595      		asr r25
 703 0010 8795      		ror r24
 704 0012 2BEA      		ldi r18,lo8(-85)
 705 0014 3AEA      		ldi r19,lo8(-86)
 706 0016 AC01      		movw r20,r24
 707 0018 429F      		mul r20,r18
 708 001a C001      		movw r24,r0
 709 001c 439F      		mul r20,r19
 710 001e 900D      		add r25,r0
 711 0020 529F      		mul r21,r18
 712 0022 900D      		add r25,r0
 713 0024 1124      		clr r1
 714 0026 0895      		ret
 715               		.size	lua_gettop, .-lua_gettop
 716               		.section	.text.lua_settop,"ax",@progbits
 717               	.global	lua_settop
 718               		.type	lua_settop, @function
 719               	lua_settop:
 720               	/* prologue: function */
 721               	/* frame size = 0 */
 722               	/* stack size = 0 */
 723               	.L__stack_usage = 0
 724 0000 FC01      		movw r30,r24
 725 0002 77FD      		sbrc r23,7
 726 0004 00C0      		rjmp .L57
 727 0006 26E0      		ldi r18,lo8(6)
 728 0008 269F      		mul r18,r22
 729 000a C001      		movw r24,r0
 730 000c 279F      		mul r18,r23
 731 000e 900D      		add r25,r0
 732 0010 1124      		clr __zero_reg__
 733 0012 2781      		ldd r18,Z+7
 734 0014 3085      		ldd r19,Z+8
 735 0016 820F      		add r24,r18
 736 0018 931F      		adc r25,r19
 737               	.L58:
 738 001a A581      		ldd r26,Z+5
 739 001c B681      		ldd r27,Z+6
 740 001e A817      		cp r26,r24
 741 0020 B907      		cpc r27,r25
GAS LISTING /tmp/ccCB8bF8.s 			page 14


 742 0022 00F4      		brsh .L61
 743 0024 9D01      		movw r18,r26
 744 0026 2A5F      		subi r18,-6
 745 0028 3F4F      		sbci r19,-1
 746 002a 3683      		std Z+6,r19
 747 002c 2583      		std Z+5,r18
 748 002e 1596      		adiw r26,4+1
 749 0030 1C92      		st X,__zero_reg__
 750 0032 1E92      		st -X,__zero_reg__
 751 0034 1497      		sbiw r26,4
 752 0036 00C0      		rjmp .L58
 753               	.L57:
 754 0038 6F5F      		subi r22,-1
 755 003a 7F4F      		sbci r23,-1
 756 003c 26E0      		ldi r18,lo8(6)
 757 003e 269F      		mul r18,r22
 758 0040 C001      		movw r24,r0
 759 0042 279F      		mul r18,r23
 760 0044 900D      		add r25,r0
 761 0046 1124      		clr __zero_reg__
 762 0048 2581      		ldd r18,Z+5
 763 004a 3681      		ldd r19,Z+6
 764 004c 820F      		add r24,r18
 765 004e 931F      		adc r25,r19
 766               	.L61:
 767 0050 9683      		std Z+6,r25
 768 0052 8583      		std Z+5,r24
 769 0054 0895      		ret
 770               		.size	lua_settop, .-lua_settop
 771               		.section	.text.lua_remove,"ax",@progbits
 772               	.global	lua_remove
 773               		.type	lua_remove, @function
 774               	lua_remove:
 775 0000 CF93      		push r28
 776 0002 DF93      		push r29
 777               	/* prologue: function */
 778               	/* frame size = 0 */
 779               	/* stack size = 2 */
 780               	.L__stack_usage = 2
 781 0004 EC01      		movw r28,r24
 782 0006 0E94 0000 		call index2adr
 783               	.L63:
 784 000a 0696      		adiw r24,6
 785 000c 2D81      		ldd r18,Y+5
 786 000e 3E81      		ldd r19,Y+6
 787 0010 8217      		cp r24,r18
 788 0012 9307      		cpc r25,r19
 789 0014 00F4      		brsh .L65
 790 0016 FC01      		movw r30,r24
 791 0018 4081      		ld r20,Z
 792 001a 5181      		ldd r21,Z+1
 793 001c 6281      		ldd r22,Z+2
 794 001e 7381      		ldd r23,Z+3
 795 0020 3697      		sbiw r30,6
 796 0022 4083      		st Z,r20
 797 0024 5183      		std Z+1,r21
 798 0026 6283      		std Z+2,r22
GAS LISTING /tmp/ccCB8bF8.s 			page 15


 799 0028 7383      		std Z+3,r23
 800 002a FC01      		movw r30,r24
 801 002c 2481      		ldd r18,Z+4
 802 002e 3581      		ldd r19,Z+5
 803 0030 3297      		sbiw r30,2
 804 0032 3183      		std Z+1,r19
 805 0034 2083      		st Z,r18
 806 0036 00C0      		rjmp .L63
 807               	.L65:
 808 0038 2650      		subi r18,6
 809 003a 3109      		sbc r19,__zero_reg__
 810 003c 3E83      		std Y+6,r19
 811 003e 2D83      		std Y+5,r18
 812               	/* epilogue start */
 813 0040 DF91      		pop r29
 814 0042 CF91      		pop r28
 815 0044 0895      		ret
 816               		.size	lua_remove, .-lua_remove
 817               		.section	.text.lua_insert,"ax",@progbits
 818               	.global	lua_insert
 819               		.type	lua_insert, @function
 820               	lua_insert:
 821 0000 0F93      		push r16
 822 0002 1F93      		push r17
 823 0004 CF93      		push r28
 824 0006 DF93      		push r29
 825               	/* prologue: function */
 826               	/* frame size = 0 */
 827               	/* stack size = 4 */
 828               	.L__stack_usage = 4
 829 0008 EC01      		movw r28,r24
 830 000a 0E94 0000 		call index2adr
 831 000e AD81      		ldd r26,Y+5
 832 0010 BE81      		ldd r27,Y+6
 833 0012 FD01      		movw r30,r26
 834               	.L67:
 835 0014 8E17      		cp r24,r30
 836 0016 9F07      		cpc r25,r31
 837 0018 00F4      		brsh .L69
 838 001a 8F01      		movw r16,r30
 839 001c 0650      		subi r16,6
 840 001e 1109      		sbc r17,__zero_reg__
 841 0020 E801      		movw r28,r16
 842 0022 4881      		ld r20,Y
 843 0024 5981      		ldd r21,Y+1
 844 0026 6A81      		ldd r22,Y+2
 845 0028 7B81      		ldd r23,Y+3
 846 002a 4083      		st Z,r20
 847 002c 5183      		std Z+1,r21
 848 002e 6283      		std Z+2,r22
 849 0030 7383      		std Z+3,r23
 850 0032 9F01      		movw r18,r30
 851 0034 2250      		subi r18,2
 852 0036 3109      		sbc r19,__zero_reg__
 853 0038 E901      		movw r28,r18
 854 003a 2881      		ld r18,Y
 855 003c 3981      		ldd r19,Y+1
GAS LISTING /tmp/ccCB8bF8.s 			page 16


 856 003e 3583      		std Z+5,r19
 857 0040 2483      		std Z+4,r18
 858 0042 F801      		movw r30,r16
 859 0044 00C0      		rjmp .L67
 860               	.L69:
 861 0046 4D91      		ld r20,X+
 862 0048 5D91      		ld r21,X+
 863 004a 6D91      		ld r22,X+
 864 004c 7C91      		ld r23,X
 865 004e 1397      		sbiw r26,3
 866 0050 FC01      		movw r30,r24
 867 0052 4083      		st Z,r20
 868 0054 5183      		std Z+1,r21
 869 0056 6283      		std Z+2,r22
 870 0058 7383      		std Z+3,r23
 871 005a 1496      		adiw r26,4
 872 005c 2D91      		ld r18,X+
 873 005e 3C91      		ld r19,X
 874 0060 1597      		sbiw r26,4+1
 875 0062 3583      		std Z+5,r19
 876 0064 2483      		std Z+4,r18
 877               	/* epilogue start */
 878 0066 DF91      		pop r29
 879 0068 CF91      		pop r28
 880 006a 1F91      		pop r17
 881 006c 0F91      		pop r16
 882 006e 0895      		ret
 883               		.size	lua_insert, .-lua_insert
 884               		.section	.rodata.str1.1
 885               	.LC1:
 886 0001 6E6F 2063 		.string	"no calling environment"
 886      616C 6C69 
 886      6E67 2065 
 886      6E76 6972 
 886      6F6E 6D65 
 887               	.LC2:
 888 0018 6174 7465 		.string	"attempt to set environment on lightfunction"
 888      6D70 7420 
 888      746F 2073 
 888      6574 2065 
 888      6E76 6972 
 889               		.section	.text.lua_replace,"ax",@progbits
 890               	.global	lua_replace
 891               		.type	lua_replace, @function
 892               	lua_replace:
 893 0000 EF92      		push r14
 894 0002 FF92      		push r15
 895 0004 0F93      		push r16
 896 0006 1F93      		push r17
 897 0008 CF93      		push r28
 898 000a DF93      		push r29
 899               	/* prologue: function */
 900               	/* frame size = 0 */
 901               	/* stack size = 6 */
 902               	.L__stack_usage = 6
 903 000c EC01      		movw r28,r24
 904 000e 8B01      		movw r16,r22
GAS LISTING /tmp/ccCB8bF8.s 			page 17


 905 0010 6F3E      		cpi r22,-17
 906 0012 784D      		sbci r23,-40
 907 0014 01F4      		brne .L71
 908 0016 2B85      		ldd r18,Y+11
 909 0018 3C85      		ldd r19,Y+12
 910 001a 8D89      		ldd r24,Y+21
 911 001c 9E89      		ldd r25,Y+22
 912 001e 2817      		cp r18,r24
 913 0020 3907      		cpc r19,r25
 914 0022 01F4      		brne .L71
 915 0024 80E0      		ldi r24,lo8(.LC1)
 916 0026 90E0      		ldi r25,hi8(.LC1)
 917 0028 9F93      		push r25
 918 002a 8F93      		push r24
 919 002c DF93      		push r29
 920 002e CF93      		push r28
 921 0030 0E94 0000 		call luaG_runerror
 922 0034 0F90      		pop __tmp_reg__
 923 0036 0F90      		pop __tmp_reg__
 924 0038 0F90      		pop __tmp_reg__
 925 003a 0F90      		pop __tmp_reg__
 926               	.L71:
 927 003c B801      		movw r22,r16
 928 003e CE01      		movw r24,r28
 929 0040 0E94 0000 		call index2adr
 930 0044 EB84      		ldd r14,Y+11
 931 0046 FC84      		ldd r15,Y+12
 932 0048 0F3E      		cpi r16,-17
 933 004a B8ED      		ldi r27,-40
 934 004c 1B07      		cpc r17,r27
 935 004e 01F4      		brne .L72
 936 0050 D701      		movw r26,r14
 937 0052 1296      		adiw r26,2
 938 0054 ED91      		ld r30,X+
 939 0056 FC91      		ld r31,X
 940 0058 1397      		sbiw r26,2+1
 941 005a 8481      		ldd r24,Z+4
 942 005c 9581      		ldd r25,Z+5
 943 005e 0897      		sbiw r24,8
 944 0060 01F4      		brne .L73
 945 0062 6081      		ld r22,Z
 946 0064 7181      		ldd r23,Z+1
 947 0066 6115      		cp r22,__zero_reg__
 948 0068 7105      		cpc r23,__zero_reg__
 949 006a 01F4      		brne .L74
 950               	.L73:
 951 006c 80E0      		ldi r24,lo8(.LC2)
 952 006e 90E0      		ldi r25,hi8(.LC2)
 953 0070 9F93      		push r25
 954 0072 8F93      		push r24
 955 0074 DF93      		push r29
 956 0076 CF93      		push r28
 957 0078 0E94 0000 		call luaG_runerror
 958 007c 0F90      		pop __tmp_reg__
 959 007e 0F90      		pop __tmp_reg__
 960 0080 0F90      		pop __tmp_reg__
 961 0082 0F90      		pop __tmp_reg__
GAS LISTING /tmp/ccCB8bF8.s 			page 18


 962 0084 00C0      		rjmp .L75
 963               	.L74:
 964 0086 ED81      		ldd r30,Y+5
 965 0088 FE81      		ldd r31,Y+6
 966 008a 3697      		sbiw r30,6
 967 008c 8081      		ld r24,Z
 968 008e 9181      		ldd r25,Z+1
 969 0090 DB01      		movw r26,r22
 970 0092 1996      		adiw r26,8+1
 971 0094 9C93      		st X,r25
 972 0096 8E93      		st -X,r24
 973 0098 1897      		sbiw r26,8
 974 009a ED81      		ldd r30,Y+5
 975 009c FE81      		ldd r31,Y+6
 976 009e 3697      		sbiw r30,6
 977 00a0 8481      		ldd r24,Z+4
 978 00a2 9581      		ldd r25,Z+5
 979 00a4 0697      		sbiw r24,6
 980 00a6 04F4      		brge .+2
 981 00a8 00C0      		rjmp .L75
 982 00aa 4081      		ld r20,Z
 983 00ac 5181      		ldd r21,Z+1
 984 00ae FA01      		movw r30,r20
 985 00b0 8381      		ldd r24,Z+3
 986 00b2 8370      		andi r24,lo8(3)
 987 00b4 01F4      		brne .L95
 988 00b6 00C0      		rjmp .L75
 989               	.L72:
 990 00b8 ED81      		ldd r30,Y+5
 991 00ba FE81      		ldd r31,Y+6
 992 00bc 3697      		sbiw r30,6
 993 00be 4081      		ld r20,Z
 994 00c0 5181      		ldd r21,Z+1
 995 00c2 6281      		ldd r22,Z+2
 996 00c4 7381      		ldd r23,Z+3
 997 00c6 DC01      		movw r26,r24
 998 00c8 4D93      		st X+,r20
 999 00ca 5D93      		st X+,r21
 1000 00cc 6D93      		st X+,r22
 1001 00ce 7C93      		st X,r23
 1002 00d0 1397      		sbiw r26,3
 1003 00d2 2481      		ldd r18,Z+4
 1004 00d4 3581      		ldd r19,Z+5
 1005 00d6 1596      		adiw r26,4+1
 1006 00d8 3C93      		st X,r19
 1007 00da 2E93      		st -X,r18
 1008 00dc 1497      		sbiw r26,4
 1009 00de D701      		movw r26,r14
 1010 00e0 1296      		adiw r26,2
 1011 00e2 2D91      		ld r18,X+
 1012 00e4 3C91      		ld r19,X
 1013 00e6 1397      		sbiw r26,2+1
 1014 00e8 D901      		movw r26,r18
 1015 00ea 1496      		adiw r26,4
 1016 00ec 8D91      		ld r24,X+
 1017 00ee 9C91      		ld r25,X
 1018 00f0 1597      		sbiw r26,4+1
GAS LISTING /tmp/ccCB8bF8.s 			page 19


 1019 00f2 0897      		sbiw r24,8
 1020 00f4 01F4      		brne .L75
 1021 00f6 6D91      		ld r22,X+
 1022 00f8 7C91      		ld r23,X
 1023 00fa 6115      		cp r22,__zero_reg__
 1024 00fc 7105      		cpc r23,__zero_reg__
 1025 00fe 01F0      		breq .L75
 1026 0100 0E3E      		cpi r16,-18
 1027 0102 184D      		sbci r17,-40
 1028 0104 04F4      		brge .L75
 1029 0106 8481      		ldd r24,Z+4
 1030 0108 9581      		ldd r25,Z+5
 1031 010a 0697      		sbiw r24,6
 1032 010c 04F0      		brlt .L75
 1033 010e 4081      		ld r20,Z
 1034 0110 5181      		ldd r21,Z+1
 1035 0112 FA01      		movw r30,r20
 1036 0114 8381      		ldd r24,Z+3
 1037 0116 8370      		andi r24,lo8(3)
 1038 0118 01F0      		breq .L75
 1039 011a DB01      		movw r26,r22
 1040               	.L95:
 1041 011c 1396      		adiw r26,3
 1042 011e 8C91      		ld r24,X
 1043 0120 82FF      		sbrs r24,2
 1044 0122 00C0      		rjmp .L75
 1045 0124 CE01      		movw r24,r28
 1046 0126 0E94 0000 		call luaC_barrierf
 1047               	.L75:
 1048 012a 8D81      		ldd r24,Y+5
 1049 012c 9E81      		ldd r25,Y+6
 1050 012e 0697      		sbiw r24,6
 1051 0130 9E83      		std Y+6,r25
 1052 0132 8D83      		std Y+5,r24
 1053               	/* epilogue start */
 1054 0134 DF91      		pop r29
 1055 0136 CF91      		pop r28
 1056 0138 1F91      		pop r17
 1057 013a 0F91      		pop r16
 1058 013c FF90      		pop r15
 1059 013e EF90      		pop r14
 1060 0140 0895      		ret
 1061               		.size	lua_replace, .-lua_replace
 1062               		.section	.text.lua_pushvalue,"ax",@progbits
 1063               	.global	lua_pushvalue
 1064               		.type	lua_pushvalue, @function
 1065               	lua_pushvalue:
 1066 0000 CF93      		push r28
 1067 0002 DF93      		push r29
 1068               	/* prologue: function */
 1069               	/* frame size = 0 */
 1070               	/* stack size = 2 */
 1071               	.L__stack_usage = 2
 1072 0004 EC01      		movw r28,r24
 1073 0006 0E94 0000 		call index2adr
 1074 000a ED81      		ldd r30,Y+5
 1075 000c FE81      		ldd r31,Y+6
GAS LISTING /tmp/ccCB8bF8.s 			page 20


 1076 000e DC01      		movw r26,r24
 1077 0010 4D91      		ld r20,X+
 1078 0012 5D91      		ld r21,X+
 1079 0014 6D91      		ld r22,X+
 1080 0016 7C91      		ld r23,X
 1081 0018 1397      		sbiw r26,3
 1082 001a 4083      		st Z,r20
 1083 001c 5183      		std Z+1,r21
 1084 001e 6283      		std Z+2,r22
 1085 0020 7383      		std Z+3,r23
 1086 0022 1496      		adiw r26,4
 1087 0024 8D91      		ld r24,X+
 1088 0026 9C91      		ld r25,X
 1089 0028 1597      		sbiw r26,4+1
 1090 002a 9583      		std Z+5,r25
 1091 002c 8483      		std Z+4,r24
 1092 002e 3696      		adiw r30,6
 1093 0030 FE83      		std Y+6,r31
 1094 0032 ED83      		std Y+5,r30
 1095               	/* epilogue start */
 1096 0034 DF91      		pop r29
 1097 0036 CF91      		pop r28
 1098 0038 0895      		ret
 1099               		.size	lua_pushvalue, .-lua_pushvalue
 1100               		.section	.text.lua_type,"ax",@progbits
 1101               	.global	lua_type
 1102               		.type	lua_type, @function
 1103               	lua_type:
 1104               	/* prologue: function */
 1105               	/* frame size = 0 */
 1106               	/* stack size = 0 */
 1107               	.L__stack_usage = 0
 1108 0000 0E94 0000 		call index2adr
 1109 0004 20E0      		ldi r18,hi8(luaO_nilobject_)
 1110 0006 8030      		cpi r24,lo8(luaO_nilobject_)
 1111 0008 9207      		cpc r25,r18
 1112 000a 01F0      		breq .L99
 1113 000c FC01      		movw r30,r24
 1114 000e 8481      		ldd r24,Z+4
 1115 0010 9581      		ldd r25,Z+5
 1116 0012 0895      		ret
 1117               	.L99:
 1118 0014 8FEF      		ldi r24,lo8(-1)
 1119 0016 9FEF      		ldi r25,lo8(-1)
 1120 0018 0895      		ret
 1121               		.size	lua_type, .-lua_type
 1122               		.section	.rodata.str1.1
 1123               	.LC3:
 1124 0044 6E6F 2076 		.string	"no value"
 1124      616C 7565 
 1124      00
 1125               		.section	.text.lua_typename,"ax",@progbits
 1126               	.global	lua_typename
 1127               		.type	lua_typename, @function
 1128               	lua_typename:
 1129               	/* prologue: function */
 1130               	/* frame size = 0 */
GAS LISTING /tmp/ccCB8bF8.s 			page 21


 1131               	/* stack size = 0 */
 1132               	.L__stack_usage = 0
 1133 0000 6F3F      		cpi r22,-1
 1134 0002 8FEF      		ldi r24,-1
 1135 0004 7807      		cpc r23,r24
 1136 0006 01F0      		breq .L102
 1137 0008 660F      		lsl r22
 1138 000a 771F      		rol r23
 1139 000c FB01      		movw r30,r22
 1140 000e E050      		subi r30,lo8(-(luaT_typenames))
 1141 0010 F040      		sbci r31,hi8(-(luaT_typenames))
 1142 0012 8081      		ld r24,Z
 1143 0014 9181      		ldd r25,Z+1
 1144 0016 0895      		ret
 1145               	.L102:
 1146 0018 80E0      		ldi r24,lo8(.LC3)
 1147 001a 90E0      		ldi r25,hi8(.LC3)
 1148 001c 0895      		ret
 1149               		.size	lua_typename, .-lua_typename
 1150               		.section	.text.lua_iscfunction,"ax",@progbits
 1151               	.global	lua_iscfunction
 1152               		.type	lua_iscfunction, @function
 1153               	lua_iscfunction:
 1154               	/* prologue: function */
 1155               	/* frame size = 0 */
 1156               	/* stack size = 0 */
 1157               	.L__stack_usage = 0
 1158 0000 0E94 0000 		call index2adr
 1159 0004 DC01      		movw r26,r24
 1160 0006 1496      		adiw r26,4
 1161 0008 2D91      		ld r18,X+
 1162 000a 3C91      		ld r19,X
 1163 000c 1597      		sbiw r26,4+1
 1164 000e 2830      		cpi r18,8
 1165 0010 3105      		cpc r19,__zero_reg__
 1166 0012 01F4      		brne .L104
 1167 0014 ED91      		ld r30,X+
 1168 0016 FC91      		ld r31,X
 1169 0018 81E0      		ldi r24,lo8(1)
 1170 001a 90E0      		ldi r25,0
 1171 001c 2481      		ldd r18,Z+4
 1172 001e 2111      		cpse r18,__zero_reg__
 1173 0020 00C0      		rjmp .L106
 1174 0022 00C0      		rjmp .L111
 1175               	.L104:
 1176 0024 81E0      		ldi r24,lo8(1)
 1177 0026 90E0      		ldi r25,0
 1178 0028 2330      		cpi r18,3
 1179 002a 3105      		cpc r19,__zero_reg__
 1180 002c 01F0      		breq .L106
 1181               	.L111:
 1182 002e 80E0      		ldi r24,0
 1183               	.L106:
 1184 0030 0895      		ret
 1185               		.size	lua_iscfunction, .-lua_iscfunction
 1186               		.section	.text.lua_isnumber,"ax",@progbits
 1187               	.global	lua_isnumber
GAS LISTING /tmp/ccCB8bF8.s 			page 22


 1188               		.type	lua_isnumber, @function
 1189               	lua_isnumber:
 1190 0000 CF93      		push r28
 1191 0002 DF93      		push r29
 1192 0004 00D0      		rcall .
 1193 0006 00D0      		rcall .
 1194 0008 CDB7      		in r28,__SP_L__
 1195 000a DEB7      		in r29,__SP_H__
 1196               	/* prologue: function */
 1197               	/* frame size = 6 */
 1198               	/* stack size = 8 */
 1199               	.L__stack_usage = 8
 1200 000c 0E94 0000 		call index2adr
 1201 0010 FC01      		movw r30,r24
 1202 0012 2481      		ldd r18,Z+4
 1203 0014 3581      		ldd r19,Z+5
 1204 0016 2530      		cpi r18,5
 1205 0018 3105      		cpc r19,__zero_reg__
 1206 001a 01F0      		breq .L115
 1207 001c BE01      		movw r22,r28
 1208 001e 6F5F      		subi r22,-1
 1209 0020 7F4F      		sbci r23,-1
 1210 0022 0E94 0000 		call luaV_tonumber
 1211 0026 31E0      		ldi r19,lo8(1)
 1212 0028 20E0      		ldi r18,0
 1213 002a 892B      		or r24,r25
 1214 002c 01F4      		brne .L114
 1215 002e 30E0      		ldi r19,0
 1216               	.L114:
 1217 0030 832F      		mov r24,r19
 1218 0032 922F      		mov r25,r18
 1219 0034 00C0      		rjmp .L113
 1220               	.L115:
 1221 0036 81E0      		ldi r24,lo8(1)
 1222 0038 90E0      		ldi r25,0
 1223               	.L113:
 1224               	/* epilogue start */
 1225 003a 2696      		adiw r28,6
 1226 003c 0FB6      		in __tmp_reg__,__SREG__
 1227 003e F894      		cli
 1228 0040 DEBF      		out __SP_H__,r29
 1229 0042 0FBE      		out __SREG__,__tmp_reg__
 1230 0044 CDBF      		out __SP_L__,r28
 1231 0046 DF91      		pop r29
 1232 0048 CF91      		pop r28
 1233 004a 0895      		ret
 1234               		.size	lua_isnumber, .-lua_isnumber
 1235               		.section	.text.lua_isstring,"ax",@progbits
 1236               	.global	lua_isstring
 1237               		.type	lua_isstring, @function
 1238               	lua_isstring:
 1239               	/* prologue: function */
 1240               	/* frame size = 0 */
 1241               	/* stack size = 0 */
 1242               	.L__stack_usage = 0
 1243 0000 0E94 0000 		call lua_type
 1244 0004 9C01      		movw r18,r24
GAS LISTING /tmp/ccCB8bF8.s 			page 23


 1245 0006 2550      		subi r18,5
 1246 0008 3109      		sbc r19,__zero_reg__
 1247 000a 81E0      		ldi r24,lo8(1)
 1248 000c 90E0      		ldi r25,0
 1249 000e 2230      		cpi r18,2
 1250 0010 3105      		cpc r19,__zero_reg__
 1251 0012 00F0      		brlo .L117
 1252 0014 80E0      		ldi r24,0
 1253 0016 90E0      		ldi r25,0
 1254               	.L117:
 1255 0018 0895      		ret
 1256               		.size	lua_isstring, .-lua_isstring
 1257               		.section	.text.lua_isuserdata,"ax",@progbits
 1258               	.global	lua_isuserdata
 1259               		.type	lua_isuserdata, @function
 1260               	lua_isuserdata:
 1261               	/* prologue: function */
 1262               	/* frame size = 0 */
 1263               	/* stack size = 0 */
 1264               	.L__stack_usage = 0
 1265 0000 0E94 0000 		call index2adr
 1266 0004 FC01      		movw r30,r24
 1267 0006 2481      		ldd r18,Z+4
 1268 0008 3581      		ldd r19,Z+5
 1269 000a 81E0      		ldi r24,lo8(1)
 1270 000c 90E0      		ldi r25,0
 1271 000e 2930      		cpi r18,9
 1272 0010 3105      		cpc r19,__zero_reg__
 1273 0012 01F0      		breq .L119
 1274 0014 2430      		cpi r18,4
 1275 0016 3105      		cpc r19,__zero_reg__
 1276 0018 01F0      		breq .L119
 1277 001a 80E0      		ldi r24,0
 1278 001c 0895      		ret
 1279               	.L119:
 1280 001e 0895      		ret
 1281               		.size	lua_isuserdata, .-lua_isuserdata
 1282               		.section	.text.lua_rawequal,"ax",@progbits
 1283               	.global	lua_rawequal
 1284               		.type	lua_rawequal, @function
 1285               	lua_rawequal:
 1286 0000 EF92      		push r14
 1287 0002 FF92      		push r15
 1288 0004 0F93      		push r16
 1289 0006 1F93      		push r17
 1290 0008 CF93      		push r28
 1291 000a DF93      		push r29
 1292               	/* prologue: function */
 1293               	/* frame size = 0 */
 1294               	/* stack size = 6 */
 1295               	.L__stack_usage = 6
 1296 000c 8C01      		movw r16,r24
 1297 000e 7A01      		movw r14,r20
 1298 0010 0E94 0000 		call index2adr
 1299 0014 EC01      		movw r28,r24
 1300 0016 B701      		movw r22,r14
 1301 0018 C801      		movw r24,r16
GAS LISTING /tmp/ccCB8bF8.s 			page 24


 1302 001a 0E94 0000 		call index2adr
 1303 001e 20E0      		ldi r18,hi8(luaO_nilobject_)
 1304 0020 C030      		cpi r28,lo8(luaO_nilobject_)
 1305 0022 D207      		cpc r29,r18
 1306 0024 01F0      		breq .L126
 1307 0026 20E0      		ldi r18,hi8(luaO_nilobject_)
 1308 0028 8030      		cpi r24,lo8(luaO_nilobject_)
 1309 002a 9207      		cpc r25,r18
 1310 002c 01F0      		breq .L126
 1311 002e BC01      		movw r22,r24
 1312 0030 CE01      		movw r24,r28
 1313               	/* epilogue start */
 1314 0032 DF91      		pop r29
 1315 0034 CF91      		pop r28
 1316 0036 1F91      		pop r17
 1317 0038 0F91      		pop r16
 1318 003a FF90      		pop r15
 1319 003c EF90      		pop r14
 1320 003e 0C94 0000 		jmp luaO_rawequalObj
 1321               	.L126:
 1322 0042 80E0      		ldi r24,0
 1323 0044 90E0      		ldi r25,0
 1324               	/* epilogue start */
 1325 0046 DF91      		pop r29
 1326 0048 CF91      		pop r28
 1327 004a 1F91      		pop r17
 1328 004c 0F91      		pop r16
 1329 004e FF90      		pop r15
 1330 0050 EF90      		pop r14
 1331 0052 0895      		ret
 1332               		.size	lua_rawequal, .-lua_rawequal
 1333               		.section	.text.lua_equal,"ax",@progbits
 1334               	.global	lua_equal
 1335               		.type	lua_equal, @function
 1336               	lua_equal:
 1337 0000 EF92      		push r14
 1338 0002 FF92      		push r15
 1339 0004 0F93      		push r16
 1340 0006 1F93      		push r17
 1341 0008 CF93      		push r28
 1342 000a DF93      		push r29
 1343               	/* prologue: function */
 1344               	/* frame size = 0 */
 1345               	/* stack size = 6 */
 1346               	.L__stack_usage = 6
 1347 000c EC01      		movw r28,r24
 1348 000e 7A01      		movw r14,r20
 1349 0010 0E94 0000 		call index2adr
 1350 0014 8C01      		movw r16,r24
 1351 0016 B701      		movw r22,r14
 1352 0018 CE01      		movw r24,r28
 1353 001a 0E94 0000 		call index2adr
 1354 001e 20E0      		ldi r18,hi8(luaO_nilobject_)
 1355 0020 0030      		cpi r16,lo8(luaO_nilobject_)
 1356 0022 1207      		cpc r17,r18
 1357 0024 01F0      		breq .L136
 1358 0026 E0E0      		ldi r30,hi8(luaO_nilobject_)
GAS LISTING /tmp/ccCB8bF8.s 			page 25


 1359 0028 8030      		cpi r24,lo8(luaO_nilobject_)
 1360 002a 9E07      		cpc r25,r30
 1361 002c 01F0      		breq .L136
 1362 002e F801      		movw r30,r16
 1363 0030 4481      		ldd r20,Z+4
 1364 0032 5581      		ldd r21,Z+5
 1365 0034 FC01      		movw r30,r24
 1366 0036 2481      		ldd r18,Z+4
 1367 0038 3581      		ldd r19,Z+5
 1368 003a 4217      		cp r20,r18
 1369 003c 5307      		cpc r21,r19
 1370 003e 01F4      		brne .L136
 1371 0040 AC01      		movw r20,r24
 1372 0042 B801      		movw r22,r16
 1373 0044 CE01      		movw r24,r28
 1374 0046 0E94 0000 		call luaV_equalval
 1375 004a 31E0      		ldi r19,lo8(1)
 1376 004c 20E0      		ldi r18,0
 1377 004e 892B      		or r24,r25
 1378 0050 01F4      		brne .L133
 1379 0052 30E0      		ldi r19,0
 1380               	.L133:
 1381 0054 832F      		mov r24,r19
 1382 0056 922F      		mov r25,r18
 1383 0058 00C0      		rjmp .L132
 1384               	.L136:
 1385 005a 80E0      		ldi r24,0
 1386 005c 90E0      		ldi r25,0
 1387               	.L132:
 1388               	/* epilogue start */
 1389 005e DF91      		pop r29
 1390 0060 CF91      		pop r28
 1391 0062 1F91      		pop r17
 1392 0064 0F91      		pop r16
 1393 0066 FF90      		pop r15
 1394 0068 EF90      		pop r14
 1395 006a 0895      		ret
 1396               		.size	lua_equal, .-lua_equal
 1397               		.section	.text.lua_lessthan,"ax",@progbits
 1398               	.global	lua_lessthan
 1399               		.type	lua_lessthan, @function
 1400               	lua_lessthan:
 1401 0000 EF92      		push r14
 1402 0002 FF92      		push r15
 1403 0004 0F93      		push r16
 1404 0006 1F93      		push r17
 1405 0008 CF93      		push r28
 1406 000a DF93      		push r29
 1407               	/* prologue: function */
 1408               	/* frame size = 0 */
 1409               	/* stack size = 6 */
 1410               	.L__stack_usage = 6
 1411 000c EC01      		movw r28,r24
 1412 000e 7A01      		movw r14,r20
 1413 0010 0E94 0000 		call index2adr
 1414 0014 8C01      		movw r16,r24
 1415 0016 B701      		movw r22,r14
GAS LISTING /tmp/ccCB8bF8.s 			page 26


 1416 0018 CE01      		movw r24,r28
 1417 001a 0E94 0000 		call index2adr
 1418 001e 20E0      		ldi r18,hi8(luaO_nilobject_)
 1419 0020 0030      		cpi r16,lo8(luaO_nilobject_)
 1420 0022 1207      		cpc r17,r18
 1421 0024 01F0      		breq .L138
 1422 0026 20E0      		ldi r18,hi8(luaO_nilobject_)
 1423 0028 8030      		cpi r24,lo8(luaO_nilobject_)
 1424 002a 9207      		cpc r25,r18
 1425 002c 01F0      		breq .L138
 1426 002e AC01      		movw r20,r24
 1427 0030 B801      		movw r22,r16
 1428 0032 CE01      		movw r24,r28
 1429               	/* epilogue start */
 1430 0034 DF91      		pop r29
 1431 0036 CF91      		pop r28
 1432 0038 1F91      		pop r17
 1433 003a 0F91      		pop r16
 1434 003c FF90      		pop r15
 1435 003e EF90      		pop r14
 1436 0040 0C94 0000 		jmp luaV_lessthan
 1437               	.L138:
 1438 0044 80E0      		ldi r24,0
 1439 0046 90E0      		ldi r25,0
 1440               	/* epilogue start */
 1441 0048 DF91      		pop r29
 1442 004a CF91      		pop r28
 1443 004c 1F91      		pop r17
 1444 004e 0F91      		pop r16
 1445 0050 FF90      		pop r15
 1446 0052 EF90      		pop r14
 1447 0054 0895      		ret
 1448               		.size	lua_lessthan, .-lua_lessthan
 1449               		.section	.text.lua_tonumber,"ax",@progbits
 1450               	.global	lua_tonumber
 1451               		.type	lua_tonumber, @function
 1452               	lua_tonumber:
 1453 0000 CF93      		push r28
 1454 0002 DF93      		push r29
 1455 0004 00D0      		rcall .
 1456 0006 00D0      		rcall .
 1457 0008 CDB7      		in r28,__SP_L__
 1458 000a DEB7      		in r29,__SP_H__
 1459               	/* prologue: function */
 1460               	/* frame size = 6 */
 1461               	/* stack size = 8 */
 1462               	.L__stack_usage = 8
 1463 000c 0E94 0000 		call index2adr
 1464 0010 FC01      		movw r30,r24
 1465 0012 2481      		ldd r18,Z+4
 1466 0014 3581      		ldd r19,Z+5
 1467 0016 2530      		cpi r18,5
 1468 0018 3105      		cpc r19,__zero_reg__
 1469 001a 01F0      		breq .L144
 1470 001c BE01      		movw r22,r28
 1471 001e 6F5F      		subi r22,-1
 1472 0020 7F4F      		sbci r23,-1
GAS LISTING /tmp/ccCB8bF8.s 			page 27


 1473 0022 0E94 0000 		call luaV_tonumber
 1474 0026 0097      		sbiw r24,0
 1475 0028 01F0      		breq .L146
 1476               	.L144:
 1477 002a FC01      		movw r30,r24
 1478 002c 6081      		ld r22,Z
 1479 002e 7181      		ldd r23,Z+1
 1480 0030 8281      		ldd r24,Z+2
 1481 0032 9381      		ldd r25,Z+3
 1482 0034 00C0      		rjmp .L145
 1483               	.L146:
 1484 0036 60E0      		ldi r22,0
 1485 0038 70E0      		ldi r23,0
 1486 003a CB01      		movw r24,r22
 1487               	.L145:
 1488               	/* epilogue start */
 1489 003c 2696      		adiw r28,6
 1490 003e 0FB6      		in __tmp_reg__,__SREG__
 1491 0040 F894      		cli
 1492 0042 DEBF      		out __SP_H__,r29
 1493 0044 0FBE      		out __SREG__,__tmp_reg__
 1494 0046 CDBF      		out __SP_L__,r28
 1495 0048 DF91      		pop r29
 1496 004a CF91      		pop r28
 1497 004c 0895      		ret
 1498               		.size	lua_tonumber, .-lua_tonumber
 1499               		.section	.text.lua_tointeger,"ax",@progbits
 1500               	.global	lua_tointeger
 1501               		.type	lua_tointeger, @function
 1502               	lua_tointeger:
 1503 0000 CF93      		push r28
 1504 0002 DF93      		push r29
 1505 0004 00D0      		rcall .
 1506 0006 00D0      		rcall .
 1507 0008 CDB7      		in r28,__SP_L__
 1508 000a DEB7      		in r29,__SP_H__
 1509               	/* prologue: function */
 1510               	/* frame size = 6 */
 1511               	/* stack size = 8 */
 1512               	.L__stack_usage = 8
 1513 000c 0E94 0000 		call index2adr
 1514 0010 FC01      		movw r30,r24
 1515 0012 2481      		ldd r18,Z+4
 1516 0014 3581      		ldd r19,Z+5
 1517 0016 2530      		cpi r18,5
 1518 0018 3105      		cpc r19,__zero_reg__
 1519 001a 01F0      		breq .L151
 1520 001c BE01      		movw r22,r28
 1521 001e 6F5F      		subi r22,-1
 1522 0020 7F4F      		sbci r23,-1
 1523 0022 0E94 0000 		call luaV_tonumber
 1524 0026 0097      		sbiw r24,0
 1525 0028 01F0      		breq .L153
 1526               	.L151:
 1527 002a FC01      		movw r30,r24
 1528 002c 8081      		ld r24,Z
 1529 002e 9181      		ldd r25,Z+1
GAS LISTING /tmp/ccCB8bF8.s 			page 28


 1530 0030 00C0      		rjmp .L152
 1531               	.L153:
 1532 0032 80E0      		ldi r24,0
 1533 0034 90E0      		ldi r25,0
 1534               	.L152:
 1535               	/* epilogue start */
 1536 0036 2696      		adiw r28,6
 1537 0038 0FB6      		in __tmp_reg__,__SREG__
 1538 003a F894      		cli
 1539 003c DEBF      		out __SP_H__,r29
 1540 003e 0FBE      		out __SREG__,__tmp_reg__
 1541 0040 CDBF      		out __SP_L__,r28
 1542 0042 DF91      		pop r29
 1543 0044 CF91      		pop r28
 1544 0046 0895      		ret
 1545               		.size	lua_tointeger, .-lua_tointeger
 1546               		.section	.text.lua_toboolean,"ax",@progbits
 1547               	.global	lua_toboolean
 1548               		.type	lua_toboolean, @function
 1549               	lua_toboolean:
 1550               	/* prologue: function */
 1551               	/* frame size = 0 */
 1552               	/* stack size = 0 */
 1553               	.L__stack_usage = 0
 1554 0000 0E94 0000 		call index2adr
 1555 0004 FC01      		movw r30,r24
 1556 0006 8481      		ldd r24,Z+4
 1557 0008 9581      		ldd r25,Z+5
 1558 000a 0097      		sbiw r24,0
 1559 000c 01F0      		breq .L158
 1560 000e 0197      		sbiw r24,1
 1561 0010 01F4      		brne .L160
 1562 0012 31E0      		ldi r19,lo8(1)
 1563 0014 20E0      		ldi r18,0
 1564 0016 8081      		ld r24,Z
 1565 0018 9181      		ldd r25,Z+1
 1566 001a 892B      		or r24,r25
 1567 001c 01F4      		brne .L159
 1568 001e 30E0      		ldi r19,0
 1569               	.L159:
 1570 0020 832F      		mov r24,r19
 1571 0022 922F      		mov r25,r18
 1572 0024 0895      		ret
 1573               	.L160:
 1574 0026 81E0      		ldi r24,lo8(1)
 1575 0028 90E0      		ldi r25,0
 1576               	.L158:
 1577 002a 0895      		ret
 1578               		.size	lua_toboolean, .-lua_toboolean
 1579               		.section	.text.lua_tolstring,"ax",@progbits
 1580               	.global	lua_tolstring
 1581               		.type	lua_tolstring, @function
 1582               	lua_tolstring:
 1583 0000 EF92      		push r14
 1584 0002 FF92      		push r15
 1585 0004 0F93      		push r16
 1586 0006 1F93      		push r17
GAS LISTING /tmp/ccCB8bF8.s 			page 29


 1587 0008 CF93      		push r28
 1588 000a DF93      		push r29
 1589               	/* prologue: function */
 1590               	/* frame size = 0 */
 1591               	/* stack size = 6 */
 1592               	.L__stack_usage = 6
 1593 000c EC01      		movw r28,r24
 1594 000e 7B01      		movw r14,r22
 1595 0010 8A01      		movw r16,r20
 1596 0012 0E94 0000 		call index2adr
 1597 0016 DC01      		movw r26,r24
 1598 0018 1496      		adiw r26,4
 1599 001a 2D91      		ld r18,X+
 1600 001c 3C91      		ld r19,X
 1601 001e 1597      		sbiw r26,4+1
 1602 0020 2630      		cpi r18,6
 1603 0022 3105      		cpc r19,__zero_reg__
 1604 0024 01F0      		breq .L165
 1605 0026 BC01      		movw r22,r24
 1606 0028 CE01      		movw r24,r28
 1607 002a 0E94 0000 		call luaV_tostring
 1608 002e 892B      		or r24,r25
 1609 0030 01F4      		brne .L166
 1610 0032 0115      		cp r16,__zero_reg__
 1611 0034 1105      		cpc r17,__zero_reg__
 1612 0036 01F0      		breq .L170
 1613 0038 F801      		movw r30,r16
 1614 003a 1182      		std Z+1,__zero_reg__
 1615 003c 1082      		st Z,__zero_reg__
 1616 003e 00C0      		rjmp .L170
 1617               	.L166:
 1618 0040 E985      		ldd r30,Y+9
 1619 0042 FA85      		ldd r31,Y+10
 1620 0044 46A1      		ldd r20,Z+38
 1621 0046 57A1      		ldd r21,Z+39
 1622 0048 60A5      		ldd r22,Z+40
 1623 004a 71A5      		ldd r23,Z+41
 1624 004c 82A1      		ldd r24,Z+34
 1625 004e 93A1      		ldd r25,Z+35
 1626 0050 A4A1      		ldd r26,Z+36
 1627 0052 B5A1      		ldd r27,Z+37
 1628 0054 4817      		cp r20,r24
 1629 0056 5907      		cpc r21,r25
 1630 0058 6A07      		cpc r22,r26
 1631 005a 7B07      		cpc r23,r27
 1632 005c 00F0      		brlo .L168
 1633 005e CE01      		movw r24,r28
 1634 0060 0E94 0000 		call luaC_step
 1635               	.L168:
 1636 0064 B701      		movw r22,r14
 1637 0066 CE01      		movw r24,r28
 1638 0068 0E94 0000 		call index2adr
 1639               	.L165:
 1640 006c 0115      		cp r16,__zero_reg__
 1641 006e 1105      		cpc r17,__zero_reg__
 1642 0070 01F0      		breq .L169
 1643 0072 DC01      		movw r26,r24
GAS LISTING /tmp/ccCB8bF8.s 			page 30


 1644 0074 ED91      		ld r30,X+
 1645 0076 FC91      		ld r31,X
 1646 0078 2781      		ldd r18,Z+7
 1647 007a 3085      		ldd r19,Z+8
 1648 007c F801      		movw r30,r16
 1649 007e 3183      		std Z+1,r19
 1650 0080 2083      		st Z,r18
 1651               	.L169:
 1652 0082 DC01      		movw r26,r24
 1653 0084 8D91      		ld r24,X+
 1654 0086 9C91      		ld r25,X
 1655 0088 0996      		adiw r24,9
 1656 008a 00C0      		rjmp .L167
 1657               	.L170:
 1658 008c 80E0      		ldi r24,0
 1659 008e 90E0      		ldi r25,0
 1660               	.L167:
 1661               	/* epilogue start */
 1662 0090 DF91      		pop r29
 1663 0092 CF91      		pop r28
 1664 0094 1F91      		pop r17
 1665 0096 0F91      		pop r16
 1666 0098 FF90      		pop r15
 1667 009a EF90      		pop r14
 1668 009c 0895      		ret
 1669               		.size	lua_tolstring, .-lua_tolstring
 1670               		.section	.text.lua_objlen,"ax",@progbits
 1671               	.global	lua_objlen
 1672               		.type	lua_objlen, @function
 1673               	lua_objlen:
 1674 0000 0F93      		push r16
 1675 0002 1F93      		push r17
 1676 0004 CF93      		push r28
 1677 0006 DF93      		push r29
 1678               	/* prologue: function */
 1679               	/* frame size = 0 */
 1680               	/* stack size = 4 */
 1681               	.L__stack_usage = 4
 1682 0008 8C01      		movw r16,r24
 1683 000a 0E94 0000 		call index2adr
 1684 000e EC01      		movw r28,r24
 1685 0010 8C81      		ldd r24,Y+4
 1686 0012 9D81      		ldd r25,Y+5
 1687 0014 8630      		cpi r24,6
 1688 0016 9105      		cpc r25,__zero_reg__
 1689 0018 01F0      		breq .L186
 1690 001a 04F4      		brge .L180
 1691 001c 0597      		sbiw r24,5
 1692 001e 01F0      		breq .L181
 1693 0020 00C0      		rjmp .L185
 1694               	.L180:
 1695 0022 8730      		cpi r24,7
 1696 0024 9105      		cpc r25,__zero_reg__
 1697 0026 01F0      		breq .L182
 1698 0028 0997      		sbiw r24,9
 1699 002a 01F4      		brne .L185
 1700 002c E881      		ld r30,Y
GAS LISTING /tmp/ccCB8bF8.s 			page 31


 1701 002e F981      		ldd r31,Y+1
 1702 0030 8085      		ldd r24,Z+8
 1703 0032 9185      		ldd r25,Z+9
 1704 0034 00C0      		rjmp .L178
 1705               	.L182:
 1706 0036 8881      		ld r24,Y
 1707 0038 9981      		ldd r25,Y+1
 1708               	/* epilogue start */
 1709 003a DF91      		pop r29
 1710 003c CF91      		pop r28
 1711 003e 1F91      		pop r17
 1712 0040 0F91      		pop r16
 1713 0042 0C94 0000 		jmp luaH_getn
 1714               	.L181:
 1715 0046 BE01      		movw r22,r28
 1716 0048 C801      		movw r24,r16
 1717 004a 0E94 0000 		call luaV_tostring
 1718 004e 892B      		or r24,r25
 1719 0050 01F0      		breq .L185
 1720               	.L186:
 1721 0052 E881      		ld r30,Y
 1722 0054 F981      		ldd r31,Y+1
 1723 0056 8781      		ldd r24,Z+7
 1724 0058 9085      		ldd r25,Z+8
 1725 005a 00C0      		rjmp .L178
 1726               	.L185:
 1727 005c 80E0      		ldi r24,0
 1728 005e 90E0      		ldi r25,0
 1729               	.L178:
 1730               	/* epilogue start */
 1731 0060 DF91      		pop r29
 1732 0062 CF91      		pop r28
 1733 0064 1F91      		pop r17
 1734 0066 0F91      		pop r16
 1735 0068 0895      		ret
 1736               		.size	lua_objlen, .-lua_objlen
 1737               		.section	.text.lua_tocfunction,"ax",@progbits
 1738               	.global	lua_tocfunction
 1739               		.type	lua_tocfunction, @function
 1740               	lua_tocfunction:
 1741               	/* prologue: function */
 1742               	/* frame size = 0 */
 1743               	/* stack size = 0 */
 1744               	.L__stack_usage = 0
 1745 0000 0E94 0000 		call index2adr
 1746 0004 FC01      		movw r30,r24
 1747 0006 8481      		ldd r24,Z+4
 1748 0008 9581      		ldd r25,Z+5
 1749 000a 8830      		cpi r24,8
 1750 000c 9105      		cpc r25,__zero_reg__
 1751 000e 01F4      		brne .L188
 1752 0010 A081      		ld r26,Z
 1753 0012 B181      		ldd r27,Z+1
 1754 0014 1496      		adiw r26,4
 1755 0016 8C91      		ld r24,X
 1756 0018 8111      		cpse r24,__zero_reg__
 1757 001a 00C0      		rjmp .L189
GAS LISTING /tmp/ccCB8bF8.s 			page 32


 1758 001c 00C0      		rjmp .L191
 1759               	.L188:
 1760 001e 0397      		sbiw r24,3
 1761 0020 01F4      		brne .L191
 1762               	.L189:
 1763 0022 0190      		ld __tmp_reg__,Z+
 1764 0024 F081      		ld r31,Z
 1765 0026 E02D      		mov r30,__tmp_reg__
 1766 0028 8285      		ldd r24,Z+10
 1767 002a 9385      		ldd r25,Z+11
 1768 002c 0895      		ret
 1769               	.L191:
 1770 002e 80E0      		ldi r24,0
 1771 0030 90E0      		ldi r25,0
 1772 0032 0895      		ret
 1773               		.size	lua_tocfunction, .-lua_tocfunction
 1774               		.section	.text.lua_touserdata,"ax",@progbits
 1775               	.global	lua_touserdata
 1776               		.type	lua_touserdata, @function
 1777               	lua_touserdata:
 1778               	/* prologue: function */
 1779               	/* frame size = 0 */
 1780               	/* stack size = 0 */
 1781               	.L__stack_usage = 0
 1782 0000 0E94 0000 		call index2adr
 1783 0004 FC01      		movw r30,r24
 1784 0006 8481      		ldd r24,Z+4
 1785 0008 9581      		ldd r25,Z+5
 1786 000a 8430      		cpi r24,4
 1787 000c 9105      		cpc r25,__zero_reg__
 1788 000e 01F0      		breq .L194
 1789 0010 0997      		sbiw r24,9
 1790 0012 01F4      		brne .L197
 1791 0014 8081      		ld r24,Z
 1792 0016 9181      		ldd r25,Z+1
 1793 0018 0A96      		adiw r24,10
 1794 001a 0895      		ret
 1795               	.L194:
 1796 001c 8081      		ld r24,Z
 1797 001e 9181      		ldd r25,Z+1
 1798 0020 0895      		ret
 1799               	.L197:
 1800 0022 80E0      		ldi r24,0
 1801 0024 90E0      		ldi r25,0
 1802 0026 0895      		ret
 1803               		.size	lua_touserdata, .-lua_touserdata
 1804               		.section	.text.lua_tothread,"ax",@progbits
 1805               	.global	lua_tothread
 1806               		.type	lua_tothread, @function
 1807               	lua_tothread:
 1808               	/* prologue: function */
 1809               	/* frame size = 0 */
 1810               	/* stack size = 0 */
 1811               	.L__stack_usage = 0
 1812 0000 0E94 0000 		call index2adr
 1813 0004 FC01      		movw r30,r24
 1814 0006 2481      		ldd r18,Z+4
GAS LISTING /tmp/ccCB8bF8.s 			page 33


 1815 0008 3581      		ldd r19,Z+5
 1816 000a 2A30      		cpi r18,10
 1817 000c 3105      		cpc r19,__zero_reg__
 1818 000e 01F4      		brne .L200
 1819 0010 8081      		ld r24,Z
 1820 0012 9181      		ldd r25,Z+1
 1821 0014 0895      		ret
 1822               	.L200:
 1823 0016 80E0      		ldi r24,0
 1824 0018 90E0      		ldi r25,0
 1825 001a 0895      		ret
 1826               		.size	lua_tothread, .-lua_tothread
 1827               		.section	.text.lua_topointer,"ax",@progbits
 1828               	.global	lua_topointer
 1829               		.type	lua_topointer, @function
 1830               	lua_topointer:
 1831 0000 0F93      		push r16
 1832 0002 1F93      		push r17
 1833 0004 CF93      		push r28
 1834 0006 DF93      		push r29
 1835               	/* prologue: function */
 1836               	/* frame size = 0 */
 1837               	/* stack size = 4 */
 1838               	.L__stack_usage = 4
 1839 0008 EC01      		movw r28,r24
 1840 000a 8B01      		movw r16,r22
 1841 000c 0E94 0000 		call index2adr
 1842 0010 DC01      		movw r26,r24
 1843 0012 1496      		adiw r26,4
 1844 0014 ED91      		ld r30,X+
 1845 0016 FC91      		ld r31,X
 1846 0018 1597      		sbiw r26,4+1
 1847 001a 3297      		sbiw r30,2
 1848 001c E930      		cpi r30,9
 1849 001e F105      		cpc r31,__zero_reg__
 1850 0020 00F4      		brsh .L209
 1851 0022 8827      		clr r24
 1852 0024 E050      		subi r30,pm_lo8(-(.L204))
 1853 0026 F040      		sbci r31,pm_hi8(-(.L204))
 1854 0028 8040      		sbci r24,pm_hh8(-(.L204))
 1855 002a 0C94 0000 		jmp __tablejump2__
 1856               		.section	.progmem.gcc_sw_table.lua_topointer,"a",@progbits
 1857               		.p2align	1
 1858               	.L204:
 1859 0000 0000      		.word gs(.L203)
 1860 0002 0000      		.word gs(.L203)
 1861 0004 0000      		.word gs(.L205)
 1862 0006 0000      		.word gs(.L209)
 1863 0008 0000      		.word gs(.L209)
 1864 000a 0000      		.word gs(.L203)
 1865 000c 0000      		.word gs(.L203)
 1866 000e 0000      		.word gs(.L205)
 1867 0010 0000      		.word gs(.L203)
 1868               		.section	.text.lua_topointer
 1869               	.L205:
 1870 002e B801      		movw r22,r16
 1871 0030 CE01      		movw r24,r28
GAS LISTING /tmp/ccCB8bF8.s 			page 34


 1872               	/* epilogue start */
 1873 0032 DF91      		pop r29
 1874 0034 CF91      		pop r28
 1875 0036 1F91      		pop r17
 1876 0038 0F91      		pop r16
 1877 003a 0C94 0000 		jmp lua_touserdata
 1878               	.L203:
 1879 003e 8D91      		ld r24,X+
 1880 0040 9C91      		ld r25,X
 1881 0042 00C0      		rjmp .L202
 1882               	.L209:
 1883 0044 80E0      		ldi r24,0
 1884 0046 90E0      		ldi r25,0
 1885               	.L202:
 1886               	/* epilogue start */
 1887 0048 DF91      		pop r29
 1888 004a CF91      		pop r28
 1889 004c 1F91      		pop r17
 1890 004e 0F91      		pop r16
 1891 0050 0895      		ret
 1892               		.size	lua_topointer, .-lua_topointer
 1893               		.section	.text.lua_pushnil,"ax",@progbits
 1894               	.global	lua_pushnil
 1895               		.type	lua_pushnil, @function
 1896               	lua_pushnil:
 1897               	/* prologue: function */
 1898               	/* frame size = 0 */
 1899               	/* stack size = 0 */
 1900               	.L__stack_usage = 0
 1901 0000 DC01      		movw r26,r24
 1902 0002 1596      		adiw r26,5
 1903 0004 ED91      		ld r30,X+
 1904 0006 FC91      		ld r31,X
 1905 0008 1697      		sbiw r26,5+1
 1906 000a 1582      		std Z+5,__zero_reg__
 1907 000c 1482      		std Z+4,__zero_reg__
 1908 000e 3696      		adiw r30,6
 1909 0010 1696      		adiw r26,5+1
 1910 0012 FC93      		st X,r31
 1911 0014 EE93      		st -X,r30
 1912 0016 1597      		sbiw r26,5
 1913 0018 0895      		ret
 1914               		.size	lua_pushnil, .-lua_pushnil
 1915               		.section	.text.lua_pushnumber,"ax",@progbits
 1916               	.global	lua_pushnumber
 1917               		.type	lua_pushnumber, @function
 1918               	lua_pushnumber:
 1919               	/* prologue: function */
 1920               	/* frame size = 0 */
 1921               	/* stack size = 0 */
 1922               	.L__stack_usage = 0
 1923 0000 FC01      		movw r30,r24
 1924 0002 A581      		ldd r26,Z+5
 1925 0004 B681      		ldd r27,Z+6
 1926 0006 4D93      		st X+,r20
 1927 0008 5D93      		st X+,r21
 1928 000a 6D93      		st X+,r22
GAS LISTING /tmp/ccCB8bF8.s 			page 35


 1929 000c 7C93      		st X,r23
 1930 000e 1397      		sbiw r26,3
 1931 0010 85E0      		ldi r24,lo8(5)
 1932 0012 90E0      		ldi r25,0
 1933 0014 1596      		adiw r26,4+1
 1934 0016 9C93      		st X,r25
 1935 0018 8E93      		st -X,r24
 1936 001a 1497      		sbiw r26,4
 1937 001c 8581      		ldd r24,Z+5
 1938 001e 9681      		ldd r25,Z+6
 1939 0020 0696      		adiw r24,6
 1940 0022 9683      		std Z+6,r25
 1941 0024 8583      		std Z+5,r24
 1942 0026 0895      		ret
 1943               		.size	lua_pushnumber, .-lua_pushnumber
 1944               		.section	.text.lua_pushinteger,"ax",@progbits
 1945               	.global	lua_pushinteger
 1946               		.type	lua_pushinteger, @function
 1947               	lua_pushinteger:
 1948 0000 CF93      		push r28
 1949 0002 DF93      		push r29
 1950               	/* prologue: function */
 1951               	/* frame size = 0 */
 1952               	/* stack size = 2 */
 1953               	.L__stack_usage = 2
 1954 0004 FC01      		movw r30,r24
 1955 0006 C581      		ldd r28,Z+5
 1956 0008 D681      		ldd r29,Z+6
 1957 000a CB01      		movw r24,r22
 1958 000c 770F      		lsl r23
 1959 000e AA0B      		sbc r26,r26
 1960 0010 BB0B      		sbc r27,r27
 1961 0012 8883      		st Y,r24
 1962 0014 9983      		std Y+1,r25
 1963 0016 AA83      		std Y+2,r26
 1964 0018 BB83      		std Y+3,r27
 1965 001a 85E0      		ldi r24,lo8(5)
 1966 001c 90E0      		ldi r25,0
 1967 001e 9D83      		std Y+5,r25
 1968 0020 8C83      		std Y+4,r24
 1969 0022 8581      		ldd r24,Z+5
 1970 0024 9681      		ldd r25,Z+6
 1971 0026 0696      		adiw r24,6
 1972 0028 9683      		std Z+6,r25
 1973 002a 8583      		std Z+5,r24
 1974               	/* epilogue start */
 1975 002c DF91      		pop r29
 1976 002e CF91      		pop r28
 1977 0030 0895      		ret
 1978               		.size	lua_pushinteger, .-lua_pushinteger
 1979               		.section	.text.lua_pushlstring,"ax",@progbits
 1980               	.global	lua_pushlstring
 1981               		.type	lua_pushlstring, @function
 1982               	lua_pushlstring:
 1983 0000 EF92      		push r14
 1984 0002 FF92      		push r15
 1985 0004 0F93      		push r16
GAS LISTING /tmp/ccCB8bF8.s 			page 36


 1986 0006 1F93      		push r17
 1987 0008 CF93      		push r28
 1988 000a DF93      		push r29
 1989 000c 00D0      		rcall .
 1990 000e 1F92      		push __zero_reg__
 1991 0010 CDB7      		in r28,__SP_L__
 1992 0012 DEB7      		in r29,__SP_H__
 1993               	/* prologue: function */
 1994               	/* frame size = 4 */
 1995               	/* stack size = 10 */
 1996               	.L__stack_usage = 10
 1997 0014 7C01      		movw r14,r24
 1998 0016 DC01      		movw r26,r24
 1999 0018 1996      		adiw r26,9
 2000 001a ED91      		ld r30,X+
 2001 001c FC91      		ld r31,X
 2002 001e 1A97      		sbiw r26,9+1
 2003 0020 06A1      		ldd r16,Z+38
 2004 0022 17A1      		ldd r17,Z+39
 2005 0024 20A5      		ldd r18,Z+40
 2006 0026 31A5      		ldd r19,Z+41
 2007 0028 82A1      		ldd r24,Z+34
 2008 002a 93A1      		ldd r25,Z+35
 2009 002c A4A1      		ldd r26,Z+36
 2010 002e B5A1      		ldd r27,Z+37
 2011 0030 0817      		cp r16,r24
 2012 0032 1907      		cpc r17,r25
 2013 0034 2A07      		cpc r18,r26
 2014 0036 3B07      		cpc r19,r27
 2015 0038 00F0      		brlo .L214
 2016 003a C701      		movw r24,r14
 2017 003c 4B83      		std Y+3,r20
 2018 003e 5C83      		std Y+4,r21
 2019 0040 6983      		std Y+1,r22
 2020 0042 7A83      		std Y+2,r23
 2021 0044 0E94 0000 		call luaC_step
 2022 0048 7A81      		ldd r23,Y+2
 2023 004a 6981      		ldd r22,Y+1
 2024 004c 5C81      		ldd r21,Y+4
 2025 004e 4B81      		ldd r20,Y+3
 2026               	.L214:
 2027 0050 F701      		movw r30,r14
 2028 0052 0581      		ldd r16,Z+5
 2029 0054 1681      		ldd r17,Z+6
 2030 0056 C701      		movw r24,r14
 2031 0058 0E94 0000 		call luaS_newlstr
 2032 005c D801      		movw r26,r16
 2033 005e 1196      		adiw r26,1
 2034 0060 9C93      		st X,r25
 2035 0062 8E93      		st -X,r24
 2036 0064 86E0      		ldi r24,lo8(6)
 2037 0066 90E0      		ldi r25,0
 2038 0068 1596      		adiw r26,4+1
 2039 006a 9C93      		st X,r25
 2040 006c 8E93      		st -X,r24
 2041 006e 1497      		sbiw r26,4
 2042 0070 F701      		movw r30,r14
GAS LISTING /tmp/ccCB8bF8.s 			page 37


 2043 0072 8581      		ldd r24,Z+5
 2044 0074 9681      		ldd r25,Z+6
 2045 0076 0696      		adiw r24,6
 2046 0078 9683      		std Z+6,r25
 2047 007a 8583      		std Z+5,r24
 2048               	/* epilogue start */
 2049 007c 0F90      		pop __tmp_reg__
 2050 007e 0F90      		pop __tmp_reg__
 2051 0080 0F90      		pop __tmp_reg__
 2052 0082 0F90      		pop __tmp_reg__
 2053 0084 DF91      		pop r29
 2054 0086 CF91      		pop r28
 2055 0088 1F91      		pop r17
 2056 008a 0F91      		pop r16
 2057 008c FF90      		pop r15
 2058 008e EF90      		pop r14
 2059 0090 0895      		ret
 2060               		.size	lua_pushlstring, .-lua_pushlstring
 2061               		.section	.text.lua_pushstring,"ax",@progbits
 2062               	.global	lua_pushstring
 2063               		.type	lua_pushstring, @function
 2064               	lua_pushstring:
 2065               	/* prologue: function */
 2066               	/* frame size = 0 */
 2067               	/* stack size = 0 */
 2068               	.L__stack_usage = 0
 2069 0000 6115      		cp r22,__zero_reg__
 2070 0002 7105      		cpc r23,__zero_reg__
 2071 0004 01F4      		brne .L216
 2072 0006 0C94 0000 		jmp lua_pushnil
 2073               	.L216:
 2074 000a FB01      		movw r30,r22
 2075               		0:
 2076 000c 0190      		ld __tmp_reg__,Z+
 2077 000e 0020      		tst __tmp_reg__
 2078 0010 01F4      		brne 0b
 2079 0012 3197      		sbiw r30,1
 2080 0014 AF01      		movw r20,r30
 2081 0016 461B      		sub r20,r22
 2082 0018 570B      		sbc r21,r23
 2083 001a 0C94 0000 		jmp lua_pushlstring
 2084               		.size	lua_pushstring, .-lua_pushstring
 2085               		.section	.text.lua_pushvfstring,"ax",@progbits
 2086               	.global	lua_pushvfstring
 2087               		.type	lua_pushvfstring, @function
 2088               	lua_pushvfstring:
 2089 0000 EF92      		push r14
 2090 0002 FF92      		push r15
 2091 0004 0F93      		push r16
 2092 0006 1F93      		push r17
 2093 0008 CF93      		push r28
 2094 000a DF93      		push r29
 2095 000c 00D0      		rcall .
 2096 000e 1F92      		push __zero_reg__
 2097 0010 CDB7      		in r28,__SP_L__
 2098 0012 DEB7      		in r29,__SP_H__
 2099               	/* prologue: function */
GAS LISTING /tmp/ccCB8bF8.s 			page 38


 2100               	/* frame size = 4 */
 2101               	/* stack size = 10 */
 2102               	.L__stack_usage = 10
 2103 0014 7C01      		movw r14,r24
 2104 0016 DC01      		movw r26,r24
 2105 0018 1996      		adiw r26,9
 2106 001a ED91      		ld r30,X+
 2107 001c FC91      		ld r31,X
 2108 001e 1A97      		sbiw r26,9+1
 2109 0020 06A1      		ldd r16,Z+38
 2110 0022 17A1      		ldd r17,Z+39
 2111 0024 20A5      		ldd r18,Z+40
 2112 0026 31A5      		ldd r19,Z+41
 2113 0028 82A1      		ldd r24,Z+34
 2114 002a 93A1      		ldd r25,Z+35
 2115 002c A4A1      		ldd r26,Z+36
 2116 002e B5A1      		ldd r27,Z+37
 2117 0030 0817      		cp r16,r24
 2118 0032 1907      		cpc r17,r25
 2119 0034 2A07      		cpc r18,r26
 2120 0036 3B07      		cpc r19,r27
 2121 0038 00F0      		brlo .L218
 2122 003a C701      		movw r24,r14
 2123 003c 4B83      		std Y+3,r20
 2124 003e 5C83      		std Y+4,r21
 2125 0040 6983      		std Y+1,r22
 2126 0042 7A83      		std Y+2,r23
 2127 0044 0E94 0000 		call luaC_step
 2128 0048 7A81      		ldd r23,Y+2
 2129 004a 6981      		ldd r22,Y+1
 2130 004c 5C81      		ldd r21,Y+4
 2131 004e 4B81      		ldd r20,Y+3
 2132               	.L218:
 2133 0050 C701      		movw r24,r14
 2134               	/* epilogue start */
 2135 0052 0F90      		pop __tmp_reg__
 2136 0054 0F90      		pop __tmp_reg__
 2137 0056 0F90      		pop __tmp_reg__
 2138 0058 0F90      		pop __tmp_reg__
 2139 005a DF91      		pop r29
 2140 005c CF91      		pop r28
 2141 005e 1F91      		pop r17
 2142 0060 0F91      		pop r16
 2143 0062 FF90      		pop r15
 2144 0064 EF90      		pop r14
 2145 0066 0C94 0000 		jmp luaO_pushvfstring
 2146               		.size	lua_pushvfstring, .-lua_pushvfstring
 2147               		.section	.text.lua_pushfstring,"ax",@progbits
 2148               	.global	lua_pushfstring
 2149               		.type	lua_pushfstring, @function
 2150               	lua_pushfstring:
 2151 0000 0F93      		push r16
 2152 0002 1F93      		push r17
 2153 0004 CF93      		push r28
 2154 0006 DF93      		push r29
 2155 0008 CDB7      		in r28,__SP_L__
 2156 000a DEB7      		in r29,__SP_H__
GAS LISTING /tmp/ccCB8bF8.s 			page 39


 2157               	/* prologue: function */
 2158               	/* frame size = 0 */
 2159               	/* stack size = 4 */
 2160               	.L__stack_usage = 4
 2161 000c 0885      		ldd r16,Y+8
 2162 000e 1985      		ldd r17,Y+9
 2163 0010 D801      		movw r26,r16
 2164 0012 1996      		adiw r26,9
 2165 0014 ED91      		ld r30,X+
 2166 0016 FC91      		ld r31,X
 2167 0018 1A97      		sbiw r26,9+1
 2168 001a 46A1      		ldd r20,Z+38
 2169 001c 57A1      		ldd r21,Z+39
 2170 001e 60A5      		ldd r22,Z+40
 2171 0020 71A5      		ldd r23,Z+41
 2172 0022 82A1      		ldd r24,Z+34
 2173 0024 93A1      		ldd r25,Z+35
 2174 0026 A4A1      		ldd r26,Z+36
 2175 0028 B5A1      		ldd r27,Z+37
 2176 002a 4817      		cp r20,r24
 2177 002c 5907      		cpc r21,r25
 2178 002e 6A07      		cpc r22,r26
 2179 0030 7B07      		cpc r23,r27
 2180 0032 00F0      		brlo .L220
 2181 0034 C801      		movw r24,r16
 2182 0036 0E94 0000 		call luaC_step
 2183               	.L220:
 2184 003a AE01      		movw r20,r28
 2185 003c 445F      		subi r20,-12
 2186 003e 5F4F      		sbci r21,-1
 2187 0040 6A85      		ldd r22,Y+10
 2188 0042 7B85      		ldd r23,Y+11
 2189 0044 C801      		movw r24,r16
 2190 0046 0E94 0000 		call luaO_pushvfstring
 2191               	/* epilogue start */
 2192 004a DF91      		pop r29
 2193 004c CF91      		pop r28
 2194 004e 1F91      		pop r17
 2195 0050 0F91      		pop r16
 2196 0052 0895      		ret
 2197               		.size	lua_pushfstring, .-lua_pushfstring
 2198               		.section	.text.lua_pushcclosure,"ax",@progbits
 2199               	.global	lua_pushcclosure
 2200               		.type	lua_pushcclosure, @function
 2201               	lua_pushcclosure:
 2202 0000 EF92      		push r14
 2203 0002 FF92      		push r15
 2204 0004 0F93      		push r16
 2205 0006 1F93      		push r17
 2206 0008 CF93      		push r28
 2207 000a DF93      		push r29
 2208               	/* prologue: function */
 2209               	/* frame size = 0 */
 2210               	/* stack size = 6 */
 2211               	.L__stack_usage = 6
 2212 000c EC01      		movw r28,r24
 2213 000e 7B01      		movw r14,r22
GAS LISTING /tmp/ccCB8bF8.s 			page 40


 2214 0010 8A01      		movw r16,r20
 2215 0012 E985      		ldd r30,Y+9
 2216 0014 FA85      		ldd r31,Y+10
 2217 0016 46A1      		ldd r20,Z+38
 2218 0018 57A1      		ldd r21,Z+39
 2219 001a 60A5      		ldd r22,Z+40
 2220 001c 71A5      		ldd r23,Z+41
 2221 001e 82A1      		ldd r24,Z+34
 2222 0020 93A1      		ldd r25,Z+35
 2223 0022 A4A1      		ldd r26,Z+36
 2224 0024 B5A1      		ldd r27,Z+37
 2225 0026 4817      		cp r20,r24
 2226 0028 5907      		cpc r21,r25
 2227 002a 6A07      		cpc r22,r26
 2228 002c 7B07      		cpc r23,r27
 2229 002e 00F0      		brlo .L222
 2230 0030 CE01      		movw r24,r28
 2231 0032 0E94 0000 		call luaC_step
 2232               	.L222:
 2233 0036 CE01      		movw r24,r28
 2234 0038 0E94 0000 		call getcurrenv
 2235 003c AC01      		movw r20,r24
 2236 003e B801      		movw r22,r16
 2237 0040 CE01      		movw r24,r28
 2238 0042 0E94 0000 		call luaF_newCclosure
 2239 0046 FC01      		movw r30,r24
 2240 0048 F386      		std Z+11,r15
 2241 004a E286      		std Z+10,r14
 2242 004c 26E0      		ldi r18,lo8(6)
 2243 004e 209F      		mul r18,r16
 2244 0050 F001      		movw r30,r0
 2245 0052 219F      		mul r18,r17
 2246 0054 F00D      		add r31,r0
 2247 0056 1124      		clr __zero_reg__
 2248 0058 2D81      		ldd r18,Y+5
 2249 005a 3E81      		ldd r19,Y+6
 2250 005c 2E1B      		sub r18,r30
 2251 005e 3F0B      		sbc r19,r31
 2252 0060 3E83      		std Y+6,r19
 2253 0062 2D83      		std Y+5,r18
 2254 0064 E80F      		add r30,r24
 2255 0066 F91F      		adc r31,r25
 2256 0068 AC01      		movw r20,r24
 2257 006a 4650      		subi r20,6
 2258 006c 5109      		sbc r21,__zero_reg__
 2259               	.L223:
 2260 006e 3697      		sbiw r30,6
 2261 0070 AD81      		ldd r26,Y+5
 2262 0072 BE81      		ldd r27,Y+6
 2263 0074 E417      		cp r30,r20
 2264 0076 F507      		cpc r31,r21
 2265 0078 01F0      		breq .L225
 2266 007a 9F01      		movw r18,r30
 2267 007c 281B      		sub r18,r24
 2268 007e 390B      		sbc r19,r25
 2269 0080 A20F      		add r26,r18
 2270 0082 B31F      		adc r27,r19
GAS LISTING /tmp/ccCB8bF8.s 			page 41


 2271 0084 0D91      		ld r16,X+
 2272 0086 1D91      		ld r17,X+
 2273 0088 2D91      		ld r18,X+
 2274 008a 3C91      		ld r19,X
 2275 008c 1397      		sbiw r26,3
 2276 008e 0487      		std Z+12,r16
 2277 0090 1587      		std Z+13,r17
 2278 0092 2687      		std Z+14,r18
 2279 0094 3787      		std Z+15,r19
 2280 0096 1496      		adiw r26,4
 2281 0098 2D91      		ld r18,X+
 2282 009a 3C91      		ld r19,X
 2283 009c 1597      		sbiw r26,4+1
 2284 009e 318B      		std Z+17,r19
 2285 00a0 208B      		std Z+16,r18
 2286 00a2 00C0      		rjmp .L223
 2287               	.L225:
 2288 00a4 1196      		adiw r26,1
 2289 00a6 9C93      		st X,r25
 2290 00a8 8E93      		st -X,r24
 2291 00aa 88E0      		ldi r24,lo8(8)
 2292 00ac 90E0      		ldi r25,0
 2293 00ae 1596      		adiw r26,4+1
 2294 00b0 9C93      		st X,r25
 2295 00b2 8E93      		st -X,r24
 2296 00b4 1497      		sbiw r26,4
 2297 00b6 8D81      		ldd r24,Y+5
 2298 00b8 9E81      		ldd r25,Y+6
 2299 00ba 0696      		adiw r24,6
 2300 00bc 9E83      		std Y+6,r25
 2301 00be 8D83      		std Y+5,r24
 2302               	/* epilogue start */
 2303 00c0 DF91      		pop r29
 2304 00c2 CF91      		pop r28
 2305 00c4 1F91      		pop r17
 2306 00c6 0F91      		pop r16
 2307 00c8 FF90      		pop r15
 2308 00ca EF90      		pop r14
 2309 00cc 0895      		ret
 2310               		.size	lua_pushcclosure, .-lua_pushcclosure
 2311               		.section	.text.lua_pushboolean,"ax",@progbits
 2312               	.global	lua_pushboolean
 2313               		.type	lua_pushboolean, @function
 2314               	lua_pushboolean:
 2315               	/* prologue: function */
 2316               	/* frame size = 0 */
 2317               	/* stack size = 0 */
 2318               	.L__stack_usage = 0
 2319 0000 FC01      		movw r30,r24
 2320 0002 A581      		ldd r26,Z+5
 2321 0004 B681      		ldd r27,Z+6
 2322 0006 81E0      		ldi r24,lo8(1)
 2323 0008 90E0      		ldi r25,0
 2324 000a 672B      		or r22,r23
 2325 000c 01F4      		brne .L227
 2326 000e 80E0      		ldi r24,0
 2327 0010 90E0      		ldi r25,0
GAS LISTING /tmp/ccCB8bF8.s 			page 42


 2328               	.L227:
 2329 0012 1196      		adiw r26,1
 2330 0014 9C93      		st X,r25
 2331 0016 8E93      		st -X,r24
 2332 0018 81E0      		ldi r24,lo8(1)
 2333 001a 90E0      		ldi r25,0
 2334 001c 1596      		adiw r26,4+1
 2335 001e 9C93      		st X,r25
 2336 0020 8E93      		st -X,r24
 2337 0022 1497      		sbiw r26,4
 2338 0024 8581      		ldd r24,Z+5
 2339 0026 9681      		ldd r25,Z+6
 2340 0028 0696      		adiw r24,6
 2341 002a 9683      		std Z+6,r25
 2342 002c 8583      		std Z+5,r24
 2343 002e 0895      		ret
 2344               		.size	lua_pushboolean, .-lua_pushboolean
 2345               		.section	.text.lua_pushlightuserdata,"ax",@progbits
 2346               	.global	lua_pushlightuserdata
 2347               		.type	lua_pushlightuserdata, @function
 2348               	lua_pushlightuserdata:
 2349               	/* prologue: function */
 2350               	/* frame size = 0 */
 2351               	/* stack size = 0 */
 2352               	.L__stack_usage = 0
 2353 0000 FC01      		movw r30,r24
 2354 0002 A581      		ldd r26,Z+5
 2355 0004 B681      		ldd r27,Z+6
 2356 0006 1196      		adiw r26,1
 2357 0008 7C93      		st X,r23
 2358 000a 6E93      		st -X,r22
 2359 000c 84E0      		ldi r24,lo8(4)
 2360 000e 90E0      		ldi r25,0
 2361 0010 1596      		adiw r26,4+1
 2362 0012 9C93      		st X,r25
 2363 0014 8E93      		st -X,r24
 2364 0016 1497      		sbiw r26,4
 2365 0018 8581      		ldd r24,Z+5
 2366 001a 9681      		ldd r25,Z+6
 2367 001c 0696      		adiw r24,6
 2368 001e 9683      		std Z+6,r25
 2369 0020 8583      		std Z+5,r24
 2370 0022 0895      		ret
 2371               		.size	lua_pushlightuserdata, .-lua_pushlightuserdata
 2372               		.section	.text.lua_pushrotable,"ax",@progbits
 2373               	.global	lua_pushrotable
 2374               		.type	lua_pushrotable, @function
 2375               	lua_pushrotable:
 2376               	/* prologue: function */
 2377               	/* frame size = 0 */
 2378               	/* stack size = 0 */
 2379               	.L__stack_usage = 0
 2380 0000 FC01      		movw r30,r24
 2381 0002 A581      		ldd r26,Z+5
 2382 0004 B681      		ldd r27,Z+6
 2383 0006 1196      		adiw r26,1
 2384 0008 7C93      		st X,r23
GAS LISTING /tmp/ccCB8bF8.s 			page 43


 2385 000a 6E93      		st -X,r22
 2386 000c 82E0      		ldi r24,lo8(2)
 2387 000e 90E0      		ldi r25,0
 2388 0010 1596      		adiw r26,4+1
 2389 0012 9C93      		st X,r25
 2390 0014 8E93      		st -X,r24
 2391 0016 1497      		sbiw r26,4
 2392 0018 8581      		ldd r24,Z+5
 2393 001a 9681      		ldd r25,Z+6
 2394 001c 0696      		adiw r24,6
 2395 001e 9683      		std Z+6,r25
 2396 0020 8583      		std Z+5,r24
 2397 0022 0895      		ret
 2398               		.size	lua_pushrotable, .-lua_pushrotable
 2399               		.section	.text.lua_pushlightfunction,"ax",@progbits
 2400               	.global	lua_pushlightfunction
 2401               		.type	lua_pushlightfunction, @function
 2402               	lua_pushlightfunction:
 2403               	/* prologue: function */
 2404               	/* frame size = 0 */
 2405               	/* stack size = 0 */
 2406               	.L__stack_usage = 0
 2407 0000 FC01      		movw r30,r24
 2408 0002 A581      		ldd r26,Z+5
 2409 0004 B681      		ldd r27,Z+6
 2410 0006 1196      		adiw r26,1
 2411 0008 7C93      		st X,r23
 2412 000a 6E93      		st -X,r22
 2413 000c 83E0      		ldi r24,lo8(3)
 2414 000e 90E0      		ldi r25,0
 2415 0010 1596      		adiw r26,4+1
 2416 0012 9C93      		st X,r25
 2417 0014 8E93      		st -X,r24
 2418 0016 1497      		sbiw r26,4
 2419 0018 8581      		ldd r24,Z+5
 2420 001a 9681      		ldd r25,Z+6
 2421 001c 0696      		adiw r24,6
 2422 001e 9683      		std Z+6,r25
 2423 0020 8583      		std Z+5,r24
 2424 0022 0895      		ret
 2425               		.size	lua_pushlightfunction, .-lua_pushlightfunction
 2426               		.section	.text.lua_pushthread,"ax",@progbits
 2427               	.global	lua_pushthread
 2428               		.type	lua_pushthread, @function
 2429               	lua_pushthread:
 2430               	/* prologue: function */
 2431               	/* frame size = 0 */
 2432               	/* stack size = 0 */
 2433               	.L__stack_usage = 0
 2434 0000 FC01      		movw r30,r24
 2435 0002 A581      		ldd r26,Z+5
 2436 0004 B681      		ldd r27,Z+6
 2437 0006 1196      		adiw r26,1
 2438 0008 9C93      		st X,r25
 2439 000a 8E93      		st -X,r24
 2440 000c 8AE0      		ldi r24,lo8(10)
 2441 000e 90E0      		ldi r25,0
GAS LISTING /tmp/ccCB8bF8.s 			page 44


 2442 0010 1596      		adiw r26,4+1
 2443 0012 9C93      		st X,r25
 2444 0014 8E93      		st -X,r24
 2445 0016 1497      		sbiw r26,4
 2446 0018 8581      		ldd r24,Z+5
 2447 001a 9681      		ldd r25,Z+6
 2448 001c 0696      		adiw r24,6
 2449 001e 9683      		std Z+6,r25
 2450 0020 8583      		std Z+5,r24
 2451 0022 A185      		ldd r26,Z+9
 2452 0024 B285      		ldd r27,Z+10
 2453 0026 81E0      		ldi r24,lo8(1)
 2454 0028 90E0      		ldi r25,0
 2455 002a DE96      		adiw r26,62
 2456 002c 2D91      		ld r18,X+
 2457 002e 3C91      		ld r19,X
 2458 0030 DF97      		sbiw r26,62+1
 2459 0032 2E17      		cp r18,r30
 2460 0034 3F07      		cpc r19,r31
 2461 0036 01F0      		breq .L232
 2462 0038 80E0      		ldi r24,0
 2463 003a 90E0      		ldi r25,0
 2464               	.L232:
 2465 003c 0895      		ret
 2466               		.size	lua_pushthread, .-lua_pushthread
 2467               		.section	.text.lua_gettable,"ax",@progbits
 2468               	.global	lua_gettable
 2469               		.type	lua_gettable, @function
 2470               	lua_gettable:
 2471 0000 CF93      		push r28
 2472 0002 DF93      		push r29
 2473               	/* prologue: function */
 2474               	/* frame size = 0 */
 2475               	/* stack size = 2 */
 2476               	.L__stack_usage = 2
 2477 0004 EC01      		movw r28,r24
 2478 0006 0E94 0000 		call index2adr
 2479 000a 4D81      		ldd r20,Y+5
 2480 000c 5E81      		ldd r21,Y+6
 2481 000e 4650      		subi r20,6
 2482 0010 5109      		sbc r21,__zero_reg__
 2483 0012 9A01      		movw r18,r20
 2484 0014 BC01      		movw r22,r24
 2485 0016 CE01      		movw r24,r28
 2486               	/* epilogue start */
 2487 0018 DF91      		pop r29
 2488 001a CF91      		pop r28
 2489 001c 0C94 0000 		jmp luaV_gettable
 2490               		.size	lua_gettable, .-lua_gettable
 2491               		.section	.text.lua_getfield,"ax",@progbits
 2492               	.global	lua_getfield
 2493               		.type	lua_getfield, @function
 2494               	lua_getfield:
 2495 0000 CF92      		push r12
 2496 0002 DF92      		push r13
 2497 0004 EF92      		push r14
 2498 0006 FF92      		push r15
GAS LISTING /tmp/ccCB8bF8.s 			page 45


 2499 0008 0F93      		push r16
 2500 000a 1F93      		push r17
 2501 000c CF93      		push r28
 2502 000e DF93      		push r29
 2503 0010 00D0      		rcall .
 2504 0012 00D0      		rcall .
 2505 0014 CDB7      		in r28,__SP_L__
 2506 0016 DEB7      		in r29,__SP_H__
 2507               	/* prologue: function */
 2508               	/* frame size = 6 */
 2509               	/* stack size = 14 */
 2510               	.L__stack_usage = 14
 2511 0018 8C01      		movw r16,r24
 2512 001a 7A01      		movw r14,r20
 2513 001c 0E94 0000 		call index2adr
 2514 0020 6C01      		movw r12,r24
 2515 0022 F701      		movw r30,r14
 2516               		0:
 2517 0024 0190      		ld __tmp_reg__,Z+
 2518 0026 0020      		tst __tmp_reg__
 2519 0028 01F4      		brne 0b
 2520 002a 3197      		sbiw r30,1
 2521 002c AF01      		movw r20,r30
 2522 002e 4E19      		sub r20,r14
 2523 0030 5F09      		sbc r21,r15
 2524 0032 B701      		movw r22,r14
 2525 0034 C801      		movw r24,r16
 2526 0036 0E94 0000 		call luaS_newlstr
 2527 003a 9A83      		std Y+2,r25
 2528 003c 8983      		std Y+1,r24
 2529 003e 86E0      		ldi r24,lo8(6)
 2530 0040 90E0      		ldi r25,0
 2531 0042 9E83      		std Y+6,r25
 2532 0044 8D83      		std Y+5,r24
 2533 0046 F801      		movw r30,r16
 2534 0048 2581      		ldd r18,Z+5
 2535 004a 3681      		ldd r19,Z+6
 2536 004c AE01      		movw r20,r28
 2537 004e 4F5F      		subi r20,-1
 2538 0050 5F4F      		sbci r21,-1
 2539 0052 B601      		movw r22,r12
 2540 0054 C801      		movw r24,r16
 2541 0056 0E94 0000 		call luaV_gettable
 2542 005a F801      		movw r30,r16
 2543 005c 8581      		ldd r24,Z+5
 2544 005e 9681      		ldd r25,Z+6
 2545 0060 0696      		adiw r24,6
 2546 0062 9683      		std Z+6,r25
 2547 0064 8583      		std Z+5,r24
 2548               	/* epilogue start */
 2549 0066 2696      		adiw r28,6
 2550 0068 0FB6      		in __tmp_reg__,__SREG__
 2551 006a F894      		cli
 2552 006c DEBF      		out __SP_H__,r29
 2553 006e 0FBE      		out __SREG__,__tmp_reg__
 2554 0070 CDBF      		out __SP_L__,r28
 2555 0072 DF91      		pop r29
GAS LISTING /tmp/ccCB8bF8.s 			page 46


 2556 0074 CF91      		pop r28
 2557 0076 1F91      		pop r17
 2558 0078 0F91      		pop r16
 2559 007a FF90      		pop r15
 2560 007c EF90      		pop r14
 2561 007e DF90      		pop r13
 2562 0080 CF90      		pop r12
 2563 0082 0895      		ret
 2564               		.size	lua_getfield, .-lua_getfield
 2565               		.section	.text.lua_rawget,"ax",@progbits
 2566               	.global	lua_rawget
 2567               		.type	lua_rawget, @function
 2568               	lua_rawget:
 2569 0000 CF93      		push r28
 2570 0002 DF93      		push r29
 2571               	/* prologue: function */
 2572               	/* frame size = 0 */
 2573               	/* stack size = 2 */
 2574               	.L__stack_usage = 2
 2575 0004 EC01      		movw r28,r24
 2576 0006 0E94 0000 		call index2adr
 2577 000a 6D81      		ldd r22,Y+5
 2578 000c 7E81      		ldd r23,Y+6
 2579 000e 6650      		subi r22,6
 2580 0010 7109      		sbc r23,__zero_reg__
 2581 0012 DC01      		movw r26,r24
 2582 0014 8D91      		ld r24,X+
 2583 0016 9C91      		ld r25,X
 2584 0018 0E94 0000 		call luaH_get
 2585 001c ED81      		ldd r30,Y+5
 2586 001e FE81      		ldd r31,Y+6
 2587 0020 3697      		sbiw r30,6
 2588 0022 DC01      		movw r26,r24
 2589 0024 4D91      		ld r20,X+
 2590 0026 5D91      		ld r21,X+
 2591 0028 6D91      		ld r22,X+
 2592 002a 7C91      		ld r23,X
 2593 002c 1397      		sbiw r26,3
 2594 002e 4083      		st Z,r20
 2595 0030 5183      		std Z+1,r21
 2596 0032 6283      		std Z+2,r22
 2597 0034 7383      		std Z+3,r23
 2598 0036 1496      		adiw r26,4
 2599 0038 8D91      		ld r24,X+
 2600 003a 9C91      		ld r25,X
 2601 003c 1597      		sbiw r26,4+1
 2602 003e 9583      		std Z+5,r25
 2603 0040 8483      		std Z+4,r24
 2604               	/* epilogue start */
 2605 0042 DF91      		pop r29
 2606 0044 CF91      		pop r28
 2607 0046 0895      		ret
 2608               		.size	lua_rawget, .-lua_rawget
 2609               		.section	.text.lua_rawgeti,"ax",@progbits
 2610               	.global	lua_rawgeti
 2611               		.type	lua_rawgeti, @function
 2612               	lua_rawgeti:
GAS LISTING /tmp/ccCB8bF8.s 			page 47


 2613 0000 0F93      		push r16
 2614 0002 1F93      		push r17
 2615 0004 CF93      		push r28
 2616 0006 DF93      		push r29
 2617               	/* prologue: function */
 2618               	/* frame size = 0 */
 2619               	/* stack size = 4 */
 2620               	.L__stack_usage = 4
 2621 0008 EC01      		movw r28,r24
 2622 000a 8A01      		movw r16,r20
 2623 000c 0E94 0000 		call index2adr
 2624 0010 B801      		movw r22,r16
 2625 0012 DC01      		movw r26,r24
 2626 0014 8D91      		ld r24,X+
 2627 0016 9C91      		ld r25,X
 2628 0018 0E94 0000 		call luaH_getnum
 2629 001c ED81      		ldd r30,Y+5
 2630 001e FE81      		ldd r31,Y+6
 2631 0020 DC01      		movw r26,r24
 2632 0022 4D91      		ld r20,X+
 2633 0024 5D91      		ld r21,X+
 2634 0026 6D91      		ld r22,X+
 2635 0028 7C91      		ld r23,X
 2636 002a 1397      		sbiw r26,3
 2637 002c 4083      		st Z,r20
 2638 002e 5183      		std Z+1,r21
 2639 0030 6283      		std Z+2,r22
 2640 0032 7383      		std Z+3,r23
 2641 0034 1496      		adiw r26,4
 2642 0036 8D91      		ld r24,X+
 2643 0038 9C91      		ld r25,X
 2644 003a 1597      		sbiw r26,4+1
 2645 003c 9583      		std Z+5,r25
 2646 003e 8483      		std Z+4,r24
 2647 0040 3696      		adiw r30,6
 2648 0042 FE83      		std Y+6,r31
 2649 0044 ED83      		std Y+5,r30
 2650               	/* epilogue start */
 2651 0046 DF91      		pop r29
 2652 0048 CF91      		pop r28
 2653 004a 1F91      		pop r17
 2654 004c 0F91      		pop r16
 2655 004e 0895      		ret
 2656               		.size	lua_rawgeti, .-lua_rawgeti
 2657               		.section	.text.lua_createtable,"ax",@progbits
 2658               	.global	lua_createtable
 2659               		.type	lua_createtable, @function
 2660               	lua_createtable:
 2661 0000 EF92      		push r14
 2662 0002 FF92      		push r15
 2663 0004 0F93      		push r16
 2664 0006 1F93      		push r17
 2665 0008 CF93      		push r28
 2666 000a DF93      		push r29
 2667 000c 00D0      		rcall .
 2668 000e 1F92      		push __zero_reg__
 2669 0010 CDB7      		in r28,__SP_L__
GAS LISTING /tmp/ccCB8bF8.s 			page 48


 2670 0012 DEB7      		in r29,__SP_H__
 2671               	/* prologue: function */
 2672               	/* frame size = 4 */
 2673               	/* stack size = 10 */
 2674               	.L__stack_usage = 10
 2675 0014 7C01      		movw r14,r24
 2676 0016 DC01      		movw r26,r24
 2677 0018 1996      		adiw r26,9
 2678 001a ED91      		ld r30,X+
 2679 001c FC91      		ld r31,X
 2680 001e 1A97      		sbiw r26,9+1
 2681 0020 06A1      		ldd r16,Z+38
 2682 0022 17A1      		ldd r17,Z+39
 2683 0024 20A5      		ldd r18,Z+40
 2684 0026 31A5      		ldd r19,Z+41
 2685 0028 82A1      		ldd r24,Z+34
 2686 002a 93A1      		ldd r25,Z+35
 2687 002c A4A1      		ldd r26,Z+36
 2688 002e B5A1      		ldd r27,Z+37
 2689 0030 0817      		cp r16,r24
 2690 0032 1907      		cpc r17,r25
 2691 0034 2A07      		cpc r18,r26
 2692 0036 3B07      		cpc r19,r27
 2693 0038 00F0      		brlo .L238
 2694 003a C701      		movw r24,r14
 2695 003c 4B83      		std Y+3,r20
 2696 003e 5C83      		std Y+4,r21
 2697 0040 6983      		std Y+1,r22
 2698 0042 7A83      		std Y+2,r23
 2699 0044 0E94 0000 		call luaC_step
 2700 0048 7A81      		ldd r23,Y+2
 2701 004a 6981      		ldd r22,Y+1
 2702 004c 5C81      		ldd r21,Y+4
 2703 004e 4B81      		ldd r20,Y+3
 2704               	.L238:
 2705 0050 F701      		movw r30,r14
 2706 0052 0581      		ldd r16,Z+5
 2707 0054 1681      		ldd r17,Z+6
 2708 0056 C701      		movw r24,r14
 2709 0058 0E94 0000 		call luaH_new
 2710 005c D801      		movw r26,r16
 2711 005e 1196      		adiw r26,1
 2712 0060 9C93      		st X,r25
 2713 0062 8E93      		st -X,r24
 2714 0064 87E0      		ldi r24,lo8(7)
 2715 0066 90E0      		ldi r25,0
 2716 0068 1596      		adiw r26,4+1
 2717 006a 9C93      		st X,r25
 2718 006c 8E93      		st -X,r24
 2719 006e 1497      		sbiw r26,4
 2720 0070 F701      		movw r30,r14
 2721 0072 8581      		ldd r24,Z+5
 2722 0074 9681      		ldd r25,Z+6
 2723 0076 0696      		adiw r24,6
 2724 0078 9683      		std Z+6,r25
 2725 007a 8583      		std Z+5,r24
 2726               	/* epilogue start */
GAS LISTING /tmp/ccCB8bF8.s 			page 49


 2727 007c 0F90      		pop __tmp_reg__
 2728 007e 0F90      		pop __tmp_reg__
 2729 0080 0F90      		pop __tmp_reg__
 2730 0082 0F90      		pop __tmp_reg__
 2731 0084 DF91      		pop r29
 2732 0086 CF91      		pop r28
 2733 0088 1F91      		pop r17
 2734 008a 0F91      		pop r16
 2735 008c FF90      		pop r15
 2736 008e EF90      		pop r14
 2737 0090 0895      		ret
 2738               		.size	lua_createtable, .-lua_createtable
 2739               		.section	.text.lua_getmetatable,"ax",@progbits
 2740               	.global	lua_getmetatable
 2741               		.type	lua_getmetatable, @function
 2742               	lua_getmetatable:
 2743 0000 CF93      		push r28
 2744 0002 DF93      		push r29
 2745               	/* prologue: function */
 2746               	/* frame size = 0 */
 2747               	/* stack size = 2 */
 2748               	.L__stack_usage = 2
 2749 0004 EC01      		movw r28,r24
 2750 0006 0E94 0000 		call index2adr
 2751 000a FC01      		movw r30,r24
 2752 000c 2481      		ldd r18,Z+4
 2753 000e 3581      		ldd r19,Z+5
 2754 0010 2730      		cpi r18,7
 2755 0012 3105      		cpc r19,__zero_reg__
 2756 0014 01F0      		breq .L241
 2757 0016 2930      		cpi r18,9
 2758 0018 3105      		cpc r19,__zero_reg__
 2759 001a 01F4      		brne .L247
 2760 001c 0190      		ld __tmp_reg__,Z+
 2761 001e F081      		ld r31,Z
 2762 0020 E02D      		mov r30,__tmp_reg__
 2763 0022 8481      		ldd r24,Z+4
 2764 0024 9581      		ldd r25,Z+5
 2765 0026 00C0      		rjmp .L243
 2766               	.L241:
 2767 0028 0190      		ld __tmp_reg__,Z+
 2768 002a F081      		ld r31,Z
 2769 002c E02D      		mov r30,__tmp_reg__
 2770 002e 8681      		ldd r24,Z+6
 2771 0030 9781      		ldd r25,Z+7
 2772 0032 00C0      		rjmp .L243
 2773               	.L247:
 2774 0034 E985      		ldd r30,Y+9
 2775 0036 FA85      		ldd r31,Y+10
 2776 0038 2A5D      		subi r18,-38
 2777 003a 3F4F      		sbci r19,-1
 2778 003c 220F      		lsl r18
 2779 003e 331F      		rol r19
 2780 0040 E20F      		add r30,r18
 2781 0042 F31F      		adc r31,r19
 2782 0044 8081      		ld r24,Z
 2783 0046 9181      		ldd r25,Z+1
GAS LISTING /tmp/ccCB8bF8.s 			page 50


 2784               	.L243:
 2785 0048 0097      		sbiw r24,0
 2786 004a 01F0      		breq .L245
 2787 004c ED81      		ldd r30,Y+5
 2788 004e FE81      		ldd r31,Y+6
 2789 0050 9183      		std Z+1,r25
 2790 0052 8083      		st Z,r24
 2791 0054 87E0      		ldi r24,lo8(7)
 2792 0056 90E0      		ldi r25,0
 2793 0058 9583      		std Z+5,r25
 2794 005a 8483      		std Z+4,r24
 2795 005c 8D81      		ldd r24,Y+5
 2796 005e 9E81      		ldd r25,Y+6
 2797 0060 0696      		adiw r24,6
 2798 0062 9E83      		std Y+6,r25
 2799 0064 8D83      		std Y+5,r24
 2800 0066 81E0      		ldi r24,lo8(1)
 2801 0068 90E0      		ldi r25,0
 2802 006a 00C0      		rjmp .L244
 2803               	.L245:
 2804 006c 80E0      		ldi r24,0
 2805 006e 90E0      		ldi r25,0
 2806               	.L244:
 2807               	/* epilogue start */
 2808 0070 DF91      		pop r29
 2809 0072 CF91      		pop r28
 2810 0074 0895      		ret
 2811               		.size	lua_getmetatable, .-lua_getmetatable
 2812               		.section	.text.lua_getfenv,"ax",@progbits
 2813               	.global	lua_getfenv
 2814               		.type	lua_getfenv, @function
 2815               	lua_getfenv:
 2816 0000 CF93      		push r28
 2817 0002 DF93      		push r29
 2818               	/* prologue: function */
 2819               	/* frame size = 0 */
 2820               	/* stack size = 2 */
 2821               	.L__stack_usage = 2
 2822 0004 EC01      		movw r28,r24
 2823 0006 0E94 0000 		call index2adr
 2824 000a DC01      		movw r26,r24
 2825 000c 1496      		adiw r26,4
 2826 000e 8D91      		ld r24,X+
 2827 0010 9C91      		ld r25,X
 2828 0012 1597      		sbiw r26,4+1
 2829 0014 ED81      		ldd r30,Y+5
 2830 0016 FE81      		ldd r31,Y+6
 2831 0018 8930      		cpi r24,9
 2832 001a 9105      		cpc r25,__zero_reg__
 2833 001c 01F0      		breq .L250
 2834 001e 8A30      		cpi r24,10
 2835 0020 9105      		cpc r25,__zero_reg__
 2836 0022 01F0      		breq .L251
 2837 0024 0897      		sbiw r24,8
 2838 0026 01F4      		brne .L254
 2839 0028 0D90      		ld __tmp_reg__,X+
 2840 002a BC91      		ld r27,X
GAS LISTING /tmp/ccCB8bF8.s 			page 51


 2841 002c A02D      		mov r26,__tmp_reg__
 2842 002e 1896      		adiw r26,8
 2843 0030 8D91      		ld r24,X+
 2844 0032 9C91      		ld r25,X
 2845 0034 1997      		sbiw r26,8+1
 2846 0036 00C0      		rjmp .L255
 2847               	.L250:
 2848 0038 0D90      		ld __tmp_reg__,X+
 2849 003a BC91      		ld r27,X
 2850 003c A02D      		mov r26,__tmp_reg__
 2851 003e 1696      		adiw r26,6
 2852 0040 8D91      		ld r24,X+
 2853 0042 9C91      		ld r25,X
 2854 0044 1797      		sbiw r26,6+1
 2855               	.L255:
 2856 0046 9183      		std Z+1,r25
 2857 0048 8083      		st Z,r24
 2858 004a 87E0      		ldi r24,lo8(7)
 2859 004c 90E0      		ldi r25,0
 2860               	.L256:
 2861 004e 9583      		std Z+5,r25
 2862 0050 8483      		std Z+4,r24
 2863 0052 00C0      		rjmp .L253
 2864               	.L251:
 2865 0054 0D90      		ld __tmp_reg__,X+
 2866 0056 BC91      		ld r27,X
 2867 0058 A02D      		mov r26,__tmp_reg__
 2868 005a 9796      		adiw r26,39
 2869 005c 4D91      		ld r20,X+
 2870 005e 5D91      		ld r21,X+
 2871 0060 6D91      		ld r22,X+
 2872 0062 7C91      		ld r23,X
 2873 0064 9A97      		sbiw r26,39+3
 2874 0066 4083      		st Z,r20
 2875 0068 5183      		std Z+1,r21
 2876 006a 6283      		std Z+2,r22
 2877 006c 7383      		std Z+3,r23
 2878 006e 9B96      		adiw r26,43
 2879 0070 8D91      		ld r24,X+
 2880 0072 9C91      		ld r25,X
 2881 0074 9C97      		sbiw r26,43+1
 2882 0076 00C0      		rjmp .L256
 2883               	.L254:
 2884 0078 1582      		std Z+5,__zero_reg__
 2885 007a 1482      		std Z+4,__zero_reg__
 2886               	.L253:
 2887 007c 8D81      		ldd r24,Y+5
 2888 007e 9E81      		ldd r25,Y+6
 2889 0080 0696      		adiw r24,6
 2890 0082 9E83      		std Y+6,r25
 2891 0084 8D83      		std Y+5,r24
 2892               	/* epilogue start */
 2893 0086 DF91      		pop r29
 2894 0088 CF91      		pop r28
 2895 008a 0895      		ret
 2896               		.size	lua_getfenv, .-lua_getfenv
 2897               		.section	.text.lua_settable,"ax",@progbits
GAS LISTING /tmp/ccCB8bF8.s 			page 52


 2898               	.global	lua_settable
 2899               		.type	lua_settable, @function
 2900               	lua_settable:
 2901 0000 CF93      		push r28
 2902 0002 DF93      		push r29
 2903               	/* prologue: function */
 2904               	/* frame size = 0 */
 2905               	/* stack size = 2 */
 2906               	.L__stack_usage = 2
 2907 0004 EC01      		movw r28,r24
 2908 0006 0E94 0000 		call index2adr
 2909 000a 4D81      		ldd r20,Y+5
 2910 000c 5E81      		ldd r21,Y+6
 2911 000e 9A01      		movw r18,r20
 2912 0010 2650      		subi r18,6
 2913 0012 3109      		sbc r19,__zero_reg__
 2914 0014 4C50      		subi r20,12
 2915 0016 5109      		sbc r21,__zero_reg__
 2916 0018 BC01      		movw r22,r24
 2917 001a CE01      		movw r24,r28
 2918 001c 0E94 0000 		call luaV_settable
 2919 0020 8D81      		ldd r24,Y+5
 2920 0022 9E81      		ldd r25,Y+6
 2921 0024 0C97      		sbiw r24,12
 2922 0026 9E83      		std Y+6,r25
 2923 0028 8D83      		std Y+5,r24
 2924               	/* epilogue start */
 2925 002a DF91      		pop r29
 2926 002c CF91      		pop r28
 2927 002e 0895      		ret
 2928               		.size	lua_settable, .-lua_settable
 2929               		.section	.text.lua_setfield,"ax",@progbits
 2930               	.global	lua_setfield
 2931               		.type	lua_setfield, @function
 2932               	lua_setfield:
 2933 0000 CF92      		push r12
 2934 0002 DF92      		push r13
 2935 0004 EF92      		push r14
 2936 0006 FF92      		push r15
 2937 0008 0F93      		push r16
 2938 000a 1F93      		push r17
 2939 000c CF93      		push r28
 2940 000e DF93      		push r29
 2941 0010 00D0      		rcall .
 2942 0012 00D0      		rcall .
 2943 0014 CDB7      		in r28,__SP_L__
 2944 0016 DEB7      		in r29,__SP_H__
 2945               	/* prologue: function */
 2946               	/* frame size = 6 */
 2947               	/* stack size = 14 */
 2948               	.L__stack_usage = 14
 2949 0018 8C01      		movw r16,r24
 2950 001a 6A01      		movw r12,r20
 2951 001c 0E94 0000 		call index2adr
 2952 0020 7C01      		movw r14,r24
 2953 0022 F601      		movw r30,r12
 2954               		0:
GAS LISTING /tmp/ccCB8bF8.s 			page 53


 2955 0024 0190      		ld __tmp_reg__,Z+
 2956 0026 0020      		tst __tmp_reg__
 2957 0028 01F4      		brne 0b
 2958 002a 3197      		sbiw r30,1
 2959 002c AF01      		movw r20,r30
 2960 002e 4C19      		sub r20,r12
 2961 0030 5D09      		sbc r21,r13
 2962 0032 B601      		movw r22,r12
 2963 0034 C801      		movw r24,r16
 2964 0036 0E94 0000 		call luaS_newlstr
 2965 003a 9A83      		std Y+2,r25
 2966 003c 8983      		std Y+1,r24
 2967 003e 86E0      		ldi r24,lo8(6)
 2968 0040 90E0      		ldi r25,0
 2969 0042 9E83      		std Y+6,r25
 2970 0044 8D83      		std Y+5,r24
 2971 0046 F801      		movw r30,r16
 2972 0048 2581      		ldd r18,Z+5
 2973 004a 3681      		ldd r19,Z+6
 2974 004c 2650      		subi r18,6
 2975 004e 3109      		sbc r19,__zero_reg__
 2976 0050 AE01      		movw r20,r28
 2977 0052 4F5F      		subi r20,-1
 2978 0054 5F4F      		sbci r21,-1
 2979 0056 B701      		movw r22,r14
 2980 0058 C801      		movw r24,r16
 2981 005a 0E94 0000 		call luaV_settable
 2982 005e F801      		movw r30,r16
 2983 0060 8581      		ldd r24,Z+5
 2984 0062 9681      		ldd r25,Z+6
 2985 0064 0697      		sbiw r24,6
 2986 0066 9683      		std Z+6,r25
 2987 0068 8583      		std Z+5,r24
 2988               	/* epilogue start */
 2989 006a 2696      		adiw r28,6
 2990 006c 0FB6      		in __tmp_reg__,__SREG__
 2991 006e F894      		cli
 2992 0070 DEBF      		out __SP_H__,r29
 2993 0072 0FBE      		out __SREG__,__tmp_reg__
 2994 0074 CDBF      		out __SP_L__,r28
 2995 0076 DF91      		pop r29
 2996 0078 CF91      		pop r28
 2997 007a 1F91      		pop r17
 2998 007c 0F91      		pop r16
 2999 007e FF90      		pop r15
 3000 0080 EF90      		pop r14
 3001 0082 DF90      		pop r13
 3002 0084 CF90      		pop r12
 3003 0086 0895      		ret
 3004               		.size	lua_setfield, .-lua_setfield
 3005               		.section	.text.lua_rawset,"ax",@progbits
 3006               	.global	lua_rawset
 3007               		.type	lua_rawset, @function
 3008               	lua_rawset:
 3009 0000 EF92      		push r14
 3010 0002 FF92      		push r15
 3011 0004 0F93      		push r16
GAS LISTING /tmp/ccCB8bF8.s 			page 54


 3012 0006 1F93      		push r17
 3013 0008 CF93      		push r28
 3014 000a DF93      		push r29
 3015               	/* prologue: function */
 3016               	/* frame size = 0 */
 3017               	/* stack size = 6 */
 3018               	.L__stack_usage = 6
 3019 000c EC01      		movw r28,r24
 3020 000e 0E94 0000 		call index2adr
 3021 0012 7C01      		movw r14,r24
 3022 0014 0D81      		ldd r16,Y+5
 3023 0016 1E81      		ldd r17,Y+6
 3024 0018 A801      		movw r20,r16
 3025 001a 4C50      		subi r20,12
 3026 001c 5109      		sbc r21,__zero_reg__
 3027 001e DC01      		movw r26,r24
 3028 0020 6D91      		ld r22,X+
 3029 0022 7C91      		ld r23,X
 3030 0024 CE01      		movw r24,r28
 3031 0026 0E94 0000 		call luaH_set
 3032 002a F801      		movw r30,r16
 3033 002c 3697      		sbiw r30,6
 3034 002e 4081      		ld r20,Z
 3035 0030 5181      		ldd r21,Z+1
 3036 0032 6281      		ldd r22,Z+2
 3037 0034 7381      		ldd r23,Z+3
 3038 0036 DC01      		movw r26,r24
 3039 0038 4D93      		st X+,r20
 3040 003a 5D93      		st X+,r21
 3041 003c 6D93      		st X+,r22
 3042 003e 7C93      		st X,r23
 3043 0040 1397      		sbiw r26,3
 3044 0042 2481      		ldd r18,Z+4
 3045 0044 3581      		ldd r19,Z+5
 3046 0046 1596      		adiw r26,4+1
 3047 0048 3C93      		st X,r19
 3048 004a 2E93      		st -X,r18
 3049 004c 1497      		sbiw r26,4
 3050 004e ED81      		ldd r30,Y+5
 3051 0050 FE81      		ldd r31,Y+6
 3052 0052 3697      		sbiw r30,6
 3053 0054 8481      		ldd r24,Z+4
 3054 0056 9581      		ldd r25,Z+5
 3055 0058 0697      		sbiw r24,6
 3056 005a 04F0      		brlt .L260
 3057 005c 0190      		ld __tmp_reg__,Z+
 3058 005e F081      		ld r31,Z
 3059 0060 E02D      		mov r30,__tmp_reg__
 3060 0062 8381      		ldd r24,Z+3
 3061 0064 8370      		andi r24,lo8(3)
 3062 0066 01F0      		breq .L260
 3063 0068 F701      		movw r30,r14
 3064 006a 6081      		ld r22,Z
 3065 006c 7181      		ldd r23,Z+1
 3066 006e DB01      		movw r26,r22
 3067 0070 1396      		adiw r26,3
 3068 0072 8C91      		ld r24,X
GAS LISTING /tmp/ccCB8bF8.s 			page 55


 3069 0074 82FF      		sbrs r24,2
 3070 0076 00C0      		rjmp .L260
 3071 0078 CE01      		movw r24,r28
 3072 007a 0E94 0000 		call luaC_barrierback
 3073               	.L260:
 3074 007e 8D81      		ldd r24,Y+5
 3075 0080 9E81      		ldd r25,Y+6
 3076 0082 0C97      		sbiw r24,12
 3077 0084 9E83      		std Y+6,r25
 3078 0086 8D83      		std Y+5,r24
 3079               	/* epilogue start */
 3080 0088 DF91      		pop r29
 3081 008a CF91      		pop r28
 3082 008c 1F91      		pop r17
 3083 008e 0F91      		pop r16
 3084 0090 FF90      		pop r15
 3085 0092 EF90      		pop r14
 3086 0094 0895      		ret
 3087               		.size	lua_rawset, .-lua_rawset
 3088               		.section	.text.lua_rawseti,"ax",@progbits
 3089               	.global	lua_rawseti
 3090               		.type	lua_rawseti, @function
 3091               	lua_rawseti:
 3092 0000 CF92      		push r12
 3093 0002 DF92      		push r13
 3094 0004 EF92      		push r14
 3095 0006 FF92      		push r15
 3096 0008 0F93      		push r16
 3097 000a 1F93      		push r17
 3098 000c CF93      		push r28
 3099 000e DF93      		push r29
 3100 0010 1F92      		push __zero_reg__
 3101 0012 1F92      		push __zero_reg__
 3102 0014 CDB7      		in r28,__SP_L__
 3103 0016 DEB7      		in r29,__SP_H__
 3104               	/* prologue: function */
 3105               	/* frame size = 2 */
 3106               	/* stack size = 10 */
 3107               	.L__stack_usage = 10
 3108 0018 6C01      		movw r12,r24
 3109 001a 4983      		std Y+1,r20
 3110 001c 5A83      		std Y+2,r21
 3111 001e 0E94 0000 		call index2adr
 3112 0022 7C01      		movw r14,r24
 3113 0024 D601      		movw r26,r12
 3114 0026 1596      		adiw r26,5
 3115 0028 0D91      		ld r16,X+
 3116 002a 1C91      		ld r17,X
 3117 002c 1697      		sbiw r26,5+1
 3118 002e FC01      		movw r30,r24
 3119 0030 6081      		ld r22,Z
 3120 0032 7181      		ldd r23,Z+1
 3121 0034 4981      		ldd r20,Y+1
 3122 0036 5A81      		ldd r21,Y+2
 3123 0038 C601      		movw r24,r12
 3124 003a 0E94 0000 		call luaH_setnum
 3125 003e F801      		movw r30,r16
GAS LISTING /tmp/ccCB8bF8.s 			page 56


 3126 0040 3697      		sbiw r30,6
 3127 0042 4081      		ld r20,Z
 3128 0044 5181      		ldd r21,Z+1
 3129 0046 6281      		ldd r22,Z+2
 3130 0048 7381      		ldd r23,Z+3
 3131 004a DC01      		movw r26,r24
 3132 004c 4D93      		st X+,r20
 3133 004e 5D93      		st X+,r21
 3134 0050 6D93      		st X+,r22
 3135 0052 7C93      		st X,r23
 3136 0054 1397      		sbiw r26,3
 3137 0056 2481      		ldd r18,Z+4
 3138 0058 3581      		ldd r19,Z+5
 3139 005a 1596      		adiw r26,4+1
 3140 005c 3C93      		st X,r19
 3141 005e 2E93      		st -X,r18
 3142 0060 1497      		sbiw r26,4
 3143 0062 D601      		movw r26,r12
 3144 0064 1596      		adiw r26,5
 3145 0066 ED91      		ld r30,X+
 3146 0068 FC91      		ld r31,X
 3147 006a 1697      		sbiw r26,5+1
 3148 006c 3697      		sbiw r30,6
 3149 006e 8481      		ldd r24,Z+4
 3150 0070 9581      		ldd r25,Z+5
 3151 0072 0697      		sbiw r24,6
 3152 0074 04F0      		brlt .L268
 3153 0076 0190      		ld __tmp_reg__,Z+
 3154 0078 F081      		ld r31,Z
 3155 007a E02D      		mov r30,__tmp_reg__
 3156 007c 8381      		ldd r24,Z+3
 3157 007e 8370      		andi r24,lo8(3)
 3158 0080 01F0      		breq .L268
 3159 0082 F701      		movw r30,r14
 3160 0084 6081      		ld r22,Z
 3161 0086 7181      		ldd r23,Z+1
 3162 0088 DB01      		movw r26,r22
 3163 008a 1396      		adiw r26,3
 3164 008c 8C91      		ld r24,X
 3165 008e 82FF      		sbrs r24,2
 3166 0090 00C0      		rjmp .L268
 3167 0092 C601      		movw r24,r12
 3168 0094 0E94 0000 		call luaC_barrierback
 3169               	.L268:
 3170 0098 F601      		movw r30,r12
 3171 009a 8581      		ldd r24,Z+5
 3172 009c 9681      		ldd r25,Z+6
 3173 009e 0697      		sbiw r24,6
 3174 00a0 9683      		std Z+6,r25
 3175 00a2 8583      		std Z+5,r24
 3176               	/* epilogue start */
 3177 00a4 0F90      		pop __tmp_reg__
 3178 00a6 0F90      		pop __tmp_reg__
 3179 00a8 DF91      		pop r29
 3180 00aa CF91      		pop r28
 3181 00ac 1F91      		pop r17
 3182 00ae 0F91      		pop r16
GAS LISTING /tmp/ccCB8bF8.s 			page 57


 3183 00b0 FF90      		pop r15
 3184 00b2 EF90      		pop r14
 3185 00b4 DF90      		pop r13
 3186 00b6 CF90      		pop r12
 3187 00b8 0895      		ret
 3188               		.size	lua_rawseti, .-lua_rawseti
 3189               		.section	.text.lua_setmetatable,"ax",@progbits
 3190               	.global	lua_setmetatable
 3191               		.type	lua_setmetatable, @function
 3192               	lua_setmetatable:
 3193 0000 CF93      		push r28
 3194 0002 DF93      		push r29
 3195               	/* prologue: function */
 3196               	/* frame size = 0 */
 3197               	/* stack size = 2 */
 3198               	.L__stack_usage = 2
 3199 0004 EC01      		movw r28,r24
 3200 0006 0E94 0000 		call index2adr
 3201 000a FC01      		movw r30,r24
 3202 000c AD81      		ldd r26,Y+5
 3203 000e BE81      		ldd r27,Y+6
 3204 0010 1697      		sbiw r26,6
 3205 0012 1496      		adiw r26,4
 3206 0014 8D91      		ld r24,X+
 3207 0016 9C91      		ld r25,X
 3208 0018 1597      		sbiw r26,4+1
 3209 001a 892B      		or r24,r25
 3210 001c 01F0      		breq .L283
 3211 001e 4D91      		ld r20,X+
 3212 0020 5C91      		ld r21,X
 3213 0022 00C0      		rjmp .L276
 3214               	.L283:
 3215 0024 40E0      		ldi r20,0
 3216 0026 50E0      		ldi r21,0
 3217               	.L276:
 3218 0028 2481      		ldd r18,Z+4
 3219 002a 3581      		ldd r19,Z+5
 3220 002c 2730      		cpi r18,7
 3221 002e 3105      		cpc r19,__zero_reg__
 3222 0030 01F0      		breq .L278
 3223 0032 2930      		cpi r18,9
 3224 0034 3105      		cpc r19,__zero_reg__
 3225 0036 01F0      		breq .L279
 3226 0038 00C0      		rjmp .L300
 3227               	.L278:
 3228 003a A081      		ld r26,Z
 3229 003c B181      		ldd r27,Z+1
 3230 003e 1796      		adiw r26,6+1
 3231 0040 5C93      		st X,r21
 3232 0042 4E93      		st -X,r20
 3233 0044 1697      		sbiw r26,6
 3234 0046 4115      		cp r20,__zero_reg__
 3235 0048 5105      		cpc r21,__zero_reg__
 3236 004a 01F0      		breq .L281
 3237 004c DA01      		movw r26,r20
 3238 004e 1396      		adiw r26,3
 3239 0050 8C91      		ld r24,X
GAS LISTING /tmp/ccCB8bF8.s 			page 58


 3240 0052 8370      		andi r24,lo8(3)
 3241 0054 01F0      		breq .L281
 3242 0056 6081      		ld r22,Z
 3243 0058 7181      		ldd r23,Z+1
 3244 005a FB01      		movw r30,r22
 3245 005c 8381      		ldd r24,Z+3
 3246 005e 82FF      		sbrs r24,2
 3247 0060 00C0      		rjmp .L281
 3248 0062 CE01      		movw r24,r28
 3249 0064 0E94 0000 		call luaC_barrierback
 3250 0068 00C0      		rjmp .L281
 3251               	.L279:
 3252 006a A081      		ld r26,Z
 3253 006c B181      		ldd r27,Z+1
 3254 006e 1596      		adiw r26,4+1
 3255 0070 5C93      		st X,r21
 3256 0072 4E93      		st -X,r20
 3257 0074 1497      		sbiw r26,4
 3258 0076 4115      		cp r20,__zero_reg__
 3259 0078 5105      		cpc r21,__zero_reg__
 3260 007a 01F0      		breq .L281
 3261 007c DA01      		movw r26,r20
 3262 007e 1396      		adiw r26,3
 3263 0080 8C91      		ld r24,X
 3264 0082 8370      		andi r24,lo8(3)
 3265 0084 01F0      		breq .L281
 3266 0086 6081      		ld r22,Z
 3267 0088 7181      		ldd r23,Z+1
 3268 008a FB01      		movw r30,r22
 3269 008c 8381      		ldd r24,Z+3
 3270 008e 82FF      		sbrs r24,2
 3271 0090 00C0      		rjmp .L281
 3272 0092 CE01      		movw r24,r28
 3273 0094 0E94 0000 		call luaC_barrierf
 3274 0098 00C0      		rjmp .L281
 3275               	.L300:
 3276 009a E985      		ldd r30,Y+9
 3277 009c FA85      		ldd r31,Y+10
 3278 009e 2A5D      		subi r18,-38
 3279 00a0 3F4F      		sbci r19,-1
 3280 00a2 220F      		lsl r18
 3281 00a4 331F      		rol r19
 3282 00a6 E20F      		add r30,r18
 3283 00a8 F31F      		adc r31,r19
 3284 00aa 5183      		std Z+1,r21
 3285 00ac 4083      		st Z,r20
 3286               	.L281:
 3287 00ae 8D81      		ldd r24,Y+5
 3288 00b0 9E81      		ldd r25,Y+6
 3289 00b2 0697      		sbiw r24,6
 3290 00b4 9E83      		std Y+6,r25
 3291 00b6 8D83      		std Y+5,r24
 3292 00b8 81E0      		ldi r24,lo8(1)
 3293 00ba 90E0      		ldi r25,0
 3294               	/* epilogue start */
 3295 00bc DF91      		pop r29
 3296 00be CF91      		pop r28
GAS LISTING /tmp/ccCB8bF8.s 			page 59


 3297 00c0 0895      		ret
 3298               		.size	lua_setmetatable, .-lua_setmetatable
 3299               		.section	.text.lua_setfenv,"ax",@progbits
 3300               	.global	lua_setfenv
 3301               		.type	lua_setfenv, @function
 3302               	lua_setfenv:
 3303 0000 CF93      		push r28
 3304 0002 DF93      		push r29
 3305               	/* prologue: function */
 3306               	/* frame size = 0 */
 3307               	/* stack size = 2 */
 3308               	.L__stack_usage = 2
 3309 0004 EC01      		movw r28,r24
 3310 0006 0E94 0000 		call index2adr
 3311 000a FC01      		movw r30,r24
 3312 000c 8481      		ldd r24,Z+4
 3313 000e 9581      		ldd r25,Z+5
 3314 0010 2D81      		ldd r18,Y+5
 3315 0012 3E81      		ldd r19,Y+6
 3316 0014 8930      		cpi r24,9
 3317 0016 9105      		cpc r25,__zero_reg__
 3318 0018 01F0      		breq .L303
 3319 001a 8A30      		cpi r24,10
 3320 001c 9105      		cpc r25,__zero_reg__
 3321 001e 01F0      		breq .L304
 3322 0020 0897      		sbiw r24,8
 3323 0022 01F4      		brne .L310
 3324 0024 4081      		ld r20,Z
 3325 0026 5181      		ldd r21,Z+1
 3326 0028 2650      		subi r18,6
 3327 002a 3109      		sbc r19,__zero_reg__
 3328 002c D901      		movw r26,r18
 3329 002e 8D91      		ld r24,X+
 3330 0030 9C91      		ld r25,X
 3331 0032 DA01      		movw r26,r20
 3332 0034 1996      		adiw r26,8+1
 3333 0036 9C93      		st X,r25
 3334 0038 8E93      		st -X,r24
 3335 003a 1897      		sbiw r26,8
 3336 003c 00C0      		rjmp .L306
 3337               	.L303:
 3338 003e 4081      		ld r20,Z
 3339 0040 5181      		ldd r21,Z+1
 3340 0042 2650      		subi r18,6
 3341 0044 3109      		sbc r19,__zero_reg__
 3342 0046 D901      		movw r26,r18
 3343 0048 8D91      		ld r24,X+
 3344 004a 9C91      		ld r25,X
 3345 004c DA01      		movw r26,r20
 3346 004e 1796      		adiw r26,6+1
 3347 0050 9C93      		st X,r25
 3348 0052 8E93      		st -X,r24
 3349 0054 1697      		sbiw r26,6
 3350 0056 00C0      		rjmp .L306
 3351               	.L304:
 3352 0058 4081      		ld r20,Z
 3353 005a 5181      		ldd r21,Z+1
GAS LISTING /tmp/ccCB8bF8.s 			page 60


 3354 005c 2650      		subi r18,6
 3355 005e 3109      		sbc r19,__zero_reg__
 3356 0060 D901      		movw r26,r18
 3357 0062 8D91      		ld r24,X+
 3358 0064 9C91      		ld r25,X
 3359 0066 DA01      		movw r26,r20
 3360 0068 9896      		adiw r26,39+1
 3361 006a 9C93      		st X,r25
 3362 006c 8E93      		st -X,r24
 3363 006e 9797      		sbiw r26,39
 3364 0070 87E0      		ldi r24,lo8(7)
 3365 0072 90E0      		ldi r25,0
 3366 0074 9C96      		adiw r26,43+1
 3367 0076 9C93      		st X,r25
 3368 0078 8E93      		st -X,r24
 3369 007a 9B97      		sbiw r26,43
 3370 007c 00C0      		rjmp .L306
 3371               	.L310:
 3372 007e 80E0      		ldi r24,0
 3373 0080 90E0      		ldi r25,0
 3374 0082 00C0      		rjmp .L302
 3375               	.L306:
 3376 0084 AD81      		ldd r26,Y+5
 3377 0086 BE81      		ldd r27,Y+6
 3378 0088 1697      		sbiw r26,6
 3379 008a 4D91      		ld r20,X+
 3380 008c 5C91      		ld r21,X
 3381 008e DA01      		movw r26,r20
 3382 0090 1396      		adiw r26,3
 3383 0092 8C91      		ld r24,X
 3384 0094 8370      		andi r24,lo8(3)
 3385 0096 01F0      		breq .L309
 3386 0098 6081      		ld r22,Z
 3387 009a 7181      		ldd r23,Z+1
 3388 009c FB01      		movw r30,r22
 3389 009e 8381      		ldd r24,Z+3
 3390 00a0 82FF      		sbrs r24,2
 3391 00a2 00C0      		rjmp .L309
 3392 00a4 CE01      		movw r24,r28
 3393 00a6 0E94 0000 		call luaC_barrierf
 3394               	.L309:
 3395 00aa 81E0      		ldi r24,lo8(1)
 3396 00ac 90E0      		ldi r25,0
 3397               	.L302:
 3398 00ae 2D81      		ldd r18,Y+5
 3399 00b0 3E81      		ldd r19,Y+6
 3400 00b2 2650      		subi r18,6
 3401 00b4 3109      		sbc r19,__zero_reg__
 3402 00b6 3E83      		std Y+6,r19
 3403 00b8 2D83      		std Y+5,r18
 3404               	/* epilogue start */
 3405 00ba DF91      		pop r29
 3406 00bc CF91      		pop r28
 3407 00be 0895      		ret
 3408               		.size	lua_setfenv, .-lua_setfenv
 3409               		.section	.text.lua_call,"ax",@progbits
 3410               	.global	lua_call
GAS LISTING /tmp/ccCB8bF8.s 			page 61


 3411               		.type	lua_call, @function
 3412               	lua_call:
 3413 0000 0F93      		push r16
 3414 0002 1F93      		push r17
 3415 0004 CF93      		push r28
 3416 0006 DF93      		push r29
 3417               	/* prologue: function */
 3418               	/* frame size = 0 */
 3419               	/* stack size = 4 */
 3420               	.L__stack_usage = 4
 3421 0008 EC01      		movw r28,r24
 3422 000a 8A01      		movw r16,r20
 3423 000c 26E0      		ldi r18,lo8(6)
 3424 000e 269F      		mul r18,r22
 3425 0010 C001      		movw r24,r0
 3426 0012 279F      		mul r18,r23
 3427 0014 900D      		add r25,r0
 3428 0016 1124      		clr __zero_reg__
 3429 0018 6AEF      		ldi r22,lo8(-6)
 3430 001a 7FEF      		ldi r23,lo8(-1)
 3431 001c 681B      		sub r22,r24
 3432 001e 790B      		sbc r23,r25
 3433 0020 8D81      		ldd r24,Y+5
 3434 0022 9E81      		ldd r25,Y+6
 3435 0024 680F      		add r22,r24
 3436 0026 791F      		adc r23,r25
 3437 0028 CE01      		movw r24,r28
 3438 002a 0E94 0000 		call luaD_call
 3439 002e 0F3F      		cpi r16,-1
 3440 0030 1F4F      		sbci r17,-1
 3441 0032 01F4      		brne .L312
 3442 0034 8D81      		ldd r24,Y+5
 3443 0036 9E81      		ldd r25,Y+6
 3444 0038 EB85      		ldd r30,Y+11
 3445 003a FC85      		ldd r31,Y+12
 3446 003c 2481      		ldd r18,Z+4
 3447 003e 3581      		ldd r19,Z+5
 3448 0040 8217      		cp r24,r18
 3449 0042 9307      		cpc r25,r19
 3450 0044 00F0      		brlo .L312
 3451 0046 9583      		std Z+5,r25
 3452 0048 8483      		std Z+4,r24
 3453               	.L312:
 3454               	/* epilogue start */
 3455 004a DF91      		pop r29
 3456 004c CF91      		pop r28
 3457 004e 1F91      		pop r17
 3458 0050 0F91      		pop r16
 3459 0052 0895      		ret
 3460               		.size	lua_call, .-lua_call
 3461               		.section	.text.lua_pcall,"ax",@progbits
 3462               	.global	lua_pcall
 3463               		.type	lua_pcall, @function
 3464               	lua_pcall:
 3465 0000 AF92      		push r10
 3466 0002 BF92      		push r11
 3467 0004 CF92      		push r12
GAS LISTING /tmp/ccCB8bF8.s 			page 62


 3468 0006 DF92      		push r13
 3469 0008 EF92      		push r14
 3470 000a FF92      		push r15
 3471 000c 0F93      		push r16
 3472 000e 1F93      		push r17
 3473 0010 CF93      		push r28
 3474 0012 DF93      		push r29
 3475 0014 00D0      		rcall .
 3476 0016 1F92      		push __zero_reg__
 3477 0018 CDB7      		in r28,__SP_L__
 3478 001a DEB7      		in r29,__SP_H__
 3479               	/* prologue: function */
 3480               	/* frame size = 4 */
 3481               	/* stack size = 14 */
 3482               	.L__stack_usage = 14
 3483 001c 7C01      		movw r14,r24
 3484 001e 5B01      		movw r10,r22
 3485 0020 6A01      		movw r12,r20
 3486 0022 2115      		cp r18,__zero_reg__
 3487 0024 3105      		cpc r19,__zero_reg__
 3488 0026 01F0      		breq .L317
 3489 0028 B901      		movw r22,r18
 3490 002a 0E94 0000 		call index2adr
 3491 002e D701      		movw r26,r14
 3492 0030 5196      		adiw r26,17
 3493 0032 2D91      		ld r18,X+
 3494 0034 3C91      		ld r19,X
 3495 0036 5297      		sbiw r26,17+1
 3496 0038 8C01      		movw r16,r24
 3497 003a 021B      		sub r16,r18
 3498 003c 130B      		sbc r17,r19
 3499 003e 00C0      		rjmp .L315
 3500               	.L317:
 3501 0040 00E0      		ldi r16,0
 3502 0042 10E0      		ldi r17,0
 3503               	.L315:
 3504 0044 26E0      		ldi r18,lo8(6)
 3505 0046 2A9D      		mul r18,r10
 3506 0048 C001      		movw r24,r0
 3507 004a 2B9D      		mul r18,r11
 3508 004c 900D      		add r25,r0
 3509 004e 1124      		clr __zero_reg__
 3510 0050 2AEF      		ldi r18,lo8(-6)
 3511 0052 3FEF      		ldi r19,lo8(-1)
 3512 0054 281B      		sub r18,r24
 3513 0056 390B      		sbc r19,r25
 3514 0058 F701      		movw r30,r14
 3515 005a 8581      		ldd r24,Z+5
 3516 005c 9681      		ldd r25,Z+6
 3517 005e 280F      		add r18,r24
 3518 0060 391F      		adc r19,r25
 3519 0062 3A83      		std Y+2,r19
 3520 0064 2983      		std Y+1,r18
 3521 0066 DC82      		std Y+4,r13
 3522 0068 CB82      		std Y+3,r12
 3523 006a 8189      		ldd r24,Z+17
 3524 006c 9289      		ldd r25,Z+18
GAS LISTING /tmp/ccCB8bF8.s 			page 63


 3525 006e 281B      		sub r18,r24
 3526 0070 390B      		sbc r19,r25
 3527 0072 AE01      		movw r20,r28
 3528 0074 4F5F      		subi r20,-1
 3529 0076 5F4F      		sbci r21,-1
 3530 0078 60E0      		ldi r22,lo8(gs(f_call))
 3531 007a 70E0      		ldi r23,hi8(gs(f_call))
 3532 007c C701      		movw r24,r14
 3533 007e 0E94 0000 		call luaD_pcall
 3534 0082 CD20      		and r12,r13
 3535 0084 C094      		com r12
 3536 0086 01F4      		brne .L316
 3537 0088 D701      		movw r26,r14
 3538 008a 1596      		adiw r26,5
 3539 008c 2D91      		ld r18,X+
 3540 008e 3C91      		ld r19,X
 3541 0090 1697      		sbiw r26,5+1
 3542 0092 1B96      		adiw r26,11
 3543 0094 ED91      		ld r30,X+
 3544 0096 FC91      		ld r31,X
 3545 0098 1C97      		sbiw r26,11+1
 3546 009a 4481      		ldd r20,Z+4
 3547 009c 5581      		ldd r21,Z+5
 3548 009e 2417      		cp r18,r20
 3549 00a0 3507      		cpc r19,r21
 3550 00a2 00F0      		brlo .L316
 3551 00a4 3583      		std Z+5,r19
 3552 00a6 2483      		std Z+4,r18
 3553               	.L316:
 3554               	/* epilogue start */
 3555 00a8 0F90      		pop __tmp_reg__
 3556 00aa 0F90      		pop __tmp_reg__
 3557 00ac 0F90      		pop __tmp_reg__
 3558 00ae 0F90      		pop __tmp_reg__
 3559 00b0 DF91      		pop r29
 3560 00b2 CF91      		pop r28
 3561 00b4 1F91      		pop r17
 3562 00b6 0F91      		pop r16
 3563 00b8 FF90      		pop r15
 3564 00ba EF90      		pop r14
 3565 00bc DF90      		pop r13
 3566 00be CF90      		pop r12
 3567 00c0 BF90      		pop r11
 3568 00c2 AF90      		pop r10
 3569 00c4 0895      		ret
 3570               		.size	lua_pcall, .-lua_pcall
 3571               		.section	.text.lua_cpcall,"ax",@progbits
 3572               	.global	lua_cpcall
 3573               		.type	lua_cpcall, @function
 3574               	lua_cpcall:
 3575 0000 0F93      		push r16
 3576 0002 1F93      		push r17
 3577 0004 CF93      		push r28
 3578 0006 DF93      		push r29
 3579 0008 00D0      		rcall .
 3580 000a 1F92      		push __zero_reg__
 3581 000c CDB7      		in r28,__SP_L__
GAS LISTING /tmp/ccCB8bF8.s 			page 64


 3582 000e DEB7      		in r29,__SP_H__
 3583               	/* prologue: function */
 3584               	/* frame size = 4 */
 3585               	/* stack size = 8 */
 3586               	.L__stack_usage = 8
 3587 0010 7A83      		std Y+2,r23
 3588 0012 6983      		std Y+1,r22
 3589 0014 5C83      		std Y+4,r21
 3590 0016 4B83      		std Y+3,r20
 3591 0018 FC01      		movw r30,r24
 3592 001a 2581      		ldd r18,Z+5
 3593 001c 3681      		ldd r19,Z+6
 3594 001e 4189      		ldd r20,Z+17
 3595 0020 5289      		ldd r21,Z+18
 3596 0022 241B      		sub r18,r20
 3597 0024 350B      		sbc r19,r21
 3598 0026 00E0      		ldi r16,0
 3599 0028 10E0      		ldi r17,0
 3600 002a AE01      		movw r20,r28
 3601 002c 4F5F      		subi r20,-1
 3602 002e 5F4F      		sbci r21,-1
 3603 0030 60E0      		ldi r22,lo8(gs(f_Ccall))
 3604 0032 70E0      		ldi r23,hi8(gs(f_Ccall))
 3605 0034 0E94 0000 		call luaD_pcall
 3606               	/* epilogue start */
 3607 0038 0F90      		pop __tmp_reg__
 3608 003a 0F90      		pop __tmp_reg__
 3609 003c 0F90      		pop __tmp_reg__
 3610 003e 0F90      		pop __tmp_reg__
 3611 0040 DF91      		pop r29
 3612 0042 CF91      		pop r28
 3613 0044 1F91      		pop r17
 3614 0046 0F91      		pop r16
 3615 0048 0895      		ret
 3616               		.size	lua_cpcall, .-lua_cpcall
 3617               		.section	.rodata.str1.1
 3618               	.LC4:
 3619 004d 3F00      		.string	"?"
 3620               		.section	.text.lua_load,"ax",@progbits
 3621               	.global	lua_load
 3622               		.type	lua_load, @function
 3623               	lua_load:
 3624 0000 EF92      		push r14
 3625 0002 FF92      		push r15
 3626 0004 0F93      		push r16
 3627 0006 1F93      		push r17
 3628 0008 CF93      		push r28
 3629 000a DF93      		push r29
 3630 000c CDB7      		in r28,__SP_L__
 3631 000e DEB7      		in r29,__SP_H__
 3632 0010 2A97      		sbiw r28,10
 3633 0012 0FB6      		in __tmp_reg__,__SREG__
 3634 0014 F894      		cli
 3635 0016 DEBF      		out __SP_H__,r29
 3636 0018 0FBE      		out __SREG__,__tmp_reg__
 3637 001a CDBF      		out __SP_L__,r28
 3638               	/* prologue: function */
GAS LISTING /tmp/ccCB8bF8.s 			page 65


 3639               	/* frame size = 10 */
 3640               	/* stack size = 16 */
 3641               	.L__stack_usage = 16
 3642 001c 7C01      		movw r14,r24
 3643 001e 8901      		movw r16,r18
 3644 0020 232B      		or r18,r19
 3645 0022 01F4      		brne .L320
 3646 0024 00E0      		ldi r16,lo8(.LC4)
 3647 0026 10E0      		ldi r17,hi8(.LC4)
 3648               	.L320:
 3649 0028 9A01      		movw r18,r20
 3650 002a AB01      		movw r20,r22
 3651 002c BE01      		movw r22,r28
 3652 002e 6F5F      		subi r22,-1
 3653 0030 7F4F      		sbci r23,-1
 3654 0032 C701      		movw r24,r14
 3655 0034 0E94 0000 		call luaZ_init
 3656 0038 A801      		movw r20,r16
 3657 003a BE01      		movw r22,r28
 3658 003c 6F5F      		subi r22,-1
 3659 003e 7F4F      		sbci r23,-1
 3660 0040 C701      		movw r24,r14
 3661 0042 0E94 0000 		call luaD_protectedparser
 3662               	/* epilogue start */
 3663 0046 2A96      		adiw r28,10
 3664 0048 0FB6      		in __tmp_reg__,__SREG__
 3665 004a F894      		cli
 3666 004c DEBF      		out __SP_H__,r29
 3667 004e 0FBE      		out __SREG__,__tmp_reg__
 3668 0050 CDBF      		out __SP_L__,r28
 3669 0052 DF91      		pop r29
 3670 0054 CF91      		pop r28
 3671 0056 1F91      		pop r17
 3672 0058 0F91      		pop r16
 3673 005a FF90      		pop r15
 3674 005c EF90      		pop r14
 3675 005e 0895      		ret
 3676               		.size	lua_load, .-lua_load
 3677               		.section	.text.lua_dump,"ax",@progbits
 3678               	.global	lua_dump
 3679               		.type	lua_dump, @function
 3680               	lua_dump:
 3681 0000 0F93      		push r16
 3682 0002 1F93      		push r17
 3683 0004 CF93      		push r28
 3684 0006 DF93      		push r29
 3685               	/* prologue: function */
 3686               	/* frame size = 0 */
 3687               	/* stack size = 4 */
 3688               	.L__stack_usage = 4
 3689 0008 DB01      		movw r26,r22
 3690 000a 9A01      		movw r18,r20
 3691 000c EC01      		movw r28,r24
 3692 000e ED81      		ldd r30,Y+5
 3693 0010 FE81      		ldd r31,Y+6
 3694 0012 3697      		sbiw r30,6
 3695 0014 4481      		ldd r20,Z+4
GAS LISTING /tmp/ccCB8bF8.s 			page 66


 3696 0016 5581      		ldd r21,Z+5
 3697 0018 4830      		cpi r20,8
 3698 001a 5105      		cpc r21,__zero_reg__
 3699 001c 01F4      		brne .L324
 3700 001e 0190      		ld __tmp_reg__,Z+
 3701 0020 F081      		ld r31,Z
 3702 0022 E02D      		mov r30,__tmp_reg__
 3703 0024 4481      		ldd r20,Z+4
 3704 0026 4111      		cpse r20,__zero_reg__
 3705 0028 00C0      		rjmp .L324
 3706 002a 6285      		ldd r22,Z+10
 3707 002c 7385      		ldd r23,Z+11
 3708 002e 00E0      		ldi r16,0
 3709 0030 10E0      		ldi r17,0
 3710 0032 AD01      		movw r20,r26
 3711 0034 0E94 0000 		call luaU_dump
 3712 0038 00C0      		rjmp .L322
 3713               	.L324:
 3714 003a 81E0      		ldi r24,lo8(1)
 3715 003c 90E0      		ldi r25,0
 3716               	.L322:
 3717               	/* epilogue start */
 3718 003e DF91      		pop r29
 3719 0040 CF91      		pop r28
 3720 0042 1F91      		pop r17
 3721 0044 0F91      		pop r16
 3722 0046 0895      		ret
 3723               		.size	lua_dump, .-lua_dump
 3724               		.section	.text.lua_status,"ax",@progbits
 3725               	.global	lua_status
 3726               		.type	lua_status, @function
 3727               	lua_status:
 3728               	/* prologue: function */
 3729               	/* frame size = 0 */
 3730               	/* stack size = 0 */
 3731               	.L__stack_usage = 0
 3732 0000 FC01      		movw r30,r24
 3733 0002 8481      		ldd r24,Z+4
 3734 0004 90E0      		ldi r25,0
 3735 0006 0895      		ret
 3736               		.size	lua_status, .-lua_status
 3737               		.section	.text.lua_gc,"ax",@progbits
 3738               	.global	lua_gc
 3739               		.type	lua_gc, @function
 3740               	lua_gc:
 3741 0000 0F93      		push r16
 3742 0002 1F93      		push r17
 3743 0004 CF93      		push r28
 3744 0006 DF93      		push r29
 3745               	/* prologue: function */
 3746               	/* frame size = 0 */
 3747               	/* stack size = 4 */
 3748               	.L__stack_usage = 4
 3749 0008 8C01      		movw r16,r24
 3750 000a FC01      		movw r30,r24
 3751 000c C185      		ldd r28,Z+9
 3752 000e D285      		ldd r29,Z+10
GAS LISTING /tmp/ccCB8bF8.s 			page 67


 3753 0010 6830      		cpi r22,8
 3754 0012 7105      		cpc r23,__zero_reg__
 3755 0014 00F0      		brlo .+2
 3756 0016 00C0      		rjmp .L341
 3757 0018 FB01      		movw r30,r22
 3758 001a 8827      		clr r24
 3759 001c E050      		subi r30,pm_lo8(-(.L329))
 3760 001e F040      		sbci r31,pm_hi8(-(.L329))
 3761 0020 8040      		sbci r24,pm_hh8(-(.L329))
 3762 0022 0C94 0000 		jmp __tablejump2__
 3763               		.section	.progmem.gcc_sw_table.lua_gc,"a",@progbits
 3764               		.p2align	1
 3765               	.L329:
 3766 0000 0000      		.word gs(.L328)
 3767 0002 0000      		.word gs(.L330)
 3768 0004 0000      		.word gs(.L331)
 3769 0006 0000      		.word gs(.L332)
 3770 0008 0000      		.word gs(.L333)
 3771 000a 0000      		.word gs(.L334)
 3772 000c 0000      		.word gs(.L335)
 3773 000e 0000      		.word gs(.L336)
 3774               		.section	.text.lua_gc
 3775               	.L328:
 3776 0026 8DEF      		ldi r24,lo8(-3)
 3777 0028 9FEF      		ldi r25,lo8(-1)
 3778 002a AFEF      		ldi r26,lo8(-1)
 3779 002c BFEF      		ldi r27,lo8(-1)
 3780 002e 00C0      		rjmp .L343
 3781               	.L330:
 3782 0030 8EA1      		ldd r24,Y+38
 3783 0032 9FA1      		ldd r25,Y+39
 3784 0034 A8A5      		ldd r26,Y+40
 3785 0036 B9A5      		ldd r27,Y+41
 3786               	.L343:
 3787 0038 8AA3      		std Y+34,r24
 3788 003a 9BA3      		std Y+35,r25
 3789 003c ACA3      		std Y+36,r26
 3790 003e BDA3      		std Y+37,r27
 3791               	.L344:
 3792 0040 80E0      		ldi r24,0
 3793 0042 90E0      		ldi r25,0
 3794 0044 00C0      		rjmp .L327
 3795               	.L331:
 3796 0046 C801      		movw r24,r16
 3797 0048 0E94 0000 		call luaC_fullgc
 3798 004c 00C0      		rjmp .L344
 3799               	.L332:
 3800 004e 8EA1      		ldd r24,Y+38
 3801 0050 9FA1      		ldd r25,Y+39
 3802 0052 A8A5      		ldd r26,Y+40
 3803 0054 B9A5      		ldd r27,Y+41
 3804 0056 2AE0      		ldi r18,10
 3805               		1:
 3806 0058 B695      		lsr r27
 3807 005a A795      		ror r26
 3808 005c 9795      		ror r25
 3809 005e 8795      		ror r24
GAS LISTING /tmp/ccCB8bF8.s 			page 68


 3810 0060 2A95      		dec r18
 3811 0062 01F4      		brne 1b
 3812 0064 00C0      		rjmp .L327
 3813               	.L333:
 3814 0066 8EA1      		ldd r24,Y+38
 3815 0068 9FA1      		ldd r25,Y+39
 3816 006a 9370      		andi r25,3
 3817 006c 00C0      		rjmp .L327
 3818               	.L334:
 3819 006e 052E      		mov __tmp_reg__,r21
 3820 0070 000C      		lsl r0
 3821 0072 660B      		sbc r22,r22
 3822 0074 770B      		sbc r23,r23
 3823 0076 8AE0      		ldi r24,10
 3824               		1:
 3825 0078 440F      		lsl r20
 3826 007a 551F      		rol r21
 3827 007c 661F      		rol r22
 3828 007e 771F      		rol r23
 3829 0080 8A95      		dec r24
 3830 0082 01F4      		brne 1b
 3831 0084 8EA1      		ldd r24,Y+38
 3832 0086 9FA1      		ldd r25,Y+39
 3833 0088 A8A5      		ldd r26,Y+40
 3834 008a B9A5      		ldd r27,Y+41
 3835 008c 8417      		cp r24,r20
 3836 008e 9507      		cpc r25,r21
 3837 0090 A607      		cpc r26,r22
 3838 0092 B707      		cpc r27,r23
 3839 0094 00F0      		brlo .L337
 3840 0096 841B      		sub r24,r20
 3841 0098 950B      		sbc r25,r21
 3842 009a A60B      		sbc r26,r22
 3843 009c B70B      		sbc r27,r23
 3844 009e 8AA3      		std Y+34,r24
 3845 00a0 9BA3      		std Y+35,r25
 3846 00a2 ACA3      		std Y+36,r26
 3847 00a4 BDA3      		std Y+37,r27
 3848 00a6 00C0      		rjmp .L339
 3849               	.L337:
 3850 00a8 1AA2      		std Y+34,__zero_reg__
 3851 00aa 1BA2      		std Y+35,__zero_reg__
 3852 00ac 1CA2      		std Y+36,__zero_reg__
 3853 00ae 1DA2      		std Y+37,__zero_reg__
 3854               	.L339:
 3855 00b0 4AA1      		ldd r20,Y+34
 3856 00b2 5BA1      		ldd r21,Y+35
 3857 00b4 6CA1      		ldd r22,Y+36
 3858 00b6 7DA1      		ldd r23,Y+37
 3859 00b8 8EA1      		ldd r24,Y+38
 3860 00ba 9FA1      		ldd r25,Y+39
 3861 00bc A8A5      		ldd r26,Y+40
 3862 00be B9A5      		ldd r27,Y+41
 3863 00c0 8417      		cp r24,r20
 3864 00c2 9507      		cpc r25,r21
 3865 00c4 A607      		cpc r26,r22
 3866 00c6 B707      		cpc r27,r23
GAS LISTING /tmp/ccCB8bF8.s 			page 69


 3867 00c8 00F4      		brsh .+2
 3868 00ca 00C0      		rjmp .L344
 3869 00cc C801      		movw r24,r16
 3870 00ce 0E94 0000 		call luaC_step
 3871 00d2 8D85      		ldd r24,Y+13
 3872 00d4 8111      		cpse r24,__zero_reg__
 3873 00d6 00C0      		rjmp .L339
 3874 00d8 81E0      		ldi r24,lo8(1)
 3875 00da 90E0      		ldi r25,0
 3876 00dc 00C0      		rjmp .L327
 3877               	.L335:
 3878 00de 8AA9      		ldd r24,Y+50
 3879 00e0 9BA9      		ldd r25,Y+51
 3880 00e2 5BAB      		std Y+51,r21
 3881 00e4 4AAB      		std Y+50,r20
 3882 00e6 00C0      		rjmp .L327
 3883               	.L336:
 3884 00e8 8CA9      		ldd r24,Y+52
 3885 00ea 9DA9      		ldd r25,Y+53
 3886 00ec 5DAB      		std Y+53,r21
 3887 00ee 4CAB      		std Y+52,r20
 3888 00f0 00C0      		rjmp .L327
 3889               	.L341:
 3890 00f2 8FEF      		ldi r24,lo8(-1)
 3891 00f4 9FEF      		ldi r25,lo8(-1)
 3892               	.L327:
 3893               	/* epilogue start */
 3894 00f6 DF91      		pop r29
 3895 00f8 CF91      		pop r28
 3896 00fa 1F91      		pop r17
 3897 00fc 0F91      		pop r16
 3898 00fe 0895      		ret
 3899               		.size	lua_gc, .-lua_gc
 3900               		.section	.text.lua_error,"ax",@progbits
 3901               	.global	lua_error
 3902               		.type	lua_error, @function
 3903               	lua_error:
 3904               	/* prologue: function */
 3905               	/* frame size = 0 */
 3906               	/* stack size = 0 */
 3907               	.L__stack_usage = 0
 3908 0000 0E94 0000 		call luaG_errormsg
 3909 0004 80E0      		ldi r24,0
 3910 0006 90E0      		ldi r25,0
 3911 0008 0895      		ret
 3912               		.size	lua_error, .-lua_error
 3913               		.section	.text.lua_next,"ax",@progbits
 3914               	.global	lua_next
 3915               		.type	lua_next, @function
 3916               	lua_next:
 3917 0000 CF93      		push r28
 3918 0002 DF93      		push r29
 3919               	/* prologue: function */
 3920               	/* frame size = 0 */
 3921               	/* stack size = 2 */
 3922               	.L__stack_usage = 2
 3923 0004 EC01      		movw r28,r24
GAS LISTING /tmp/ccCB8bF8.s 			page 70


 3924 0006 0E94 0000 		call index2adr
 3925 000a 4D81      		ldd r20,Y+5
 3926 000c 5E81      		ldd r21,Y+6
 3927 000e 4650      		subi r20,6
 3928 0010 5109      		sbc r21,__zero_reg__
 3929 0012 FC01      		movw r30,r24
 3930 0014 6081      		ld r22,Z
 3931 0016 7181      		ldd r23,Z+1
 3932 0018 CE01      		movw r24,r28
 3933 001a 0E94 0000 		call luaH_next
 3934 001e 2D81      		ldd r18,Y+5
 3935 0020 3E81      		ldd r19,Y+6
 3936 0022 0097      		sbiw r24,0
 3937 0024 01F0      		breq .L347
 3938 0026 2A5F      		subi r18,-6
 3939 0028 3F4F      		sbci r19,-1
 3940 002a 00C0      		rjmp .L349
 3941               	.L347:
 3942 002c 2650      		subi r18,6
 3943 002e 3109      		sbc r19,__zero_reg__
 3944               	.L349:
 3945 0030 3E83      		std Y+6,r19
 3946 0032 2D83      		std Y+5,r18
 3947               	/* epilogue start */
 3948 0034 DF91      		pop r29
 3949 0036 CF91      		pop r28
 3950 0038 0895      		ret
 3951               		.size	lua_next, .-lua_next
 3952               		.section	.text.lua_concat,"ax",@progbits
 3953               	.global	lua_concat
 3954               		.type	lua_concat, @function
 3955               	lua_concat:
 3956 0000 0F93      		push r16
 3957 0002 1F93      		push r17
 3958 0004 CF93      		push r28
 3959 0006 DF93      		push r29
 3960               	/* prologue: function */
 3961               	/* frame size = 0 */
 3962               	/* stack size = 4 */
 3963               	.L__stack_usage = 4
 3964 0008 EC01      		movw r28,r24
 3965 000a 8B01      		movw r16,r22
 3966 000c 6230      		cpi r22,2
 3967 000e 7105      		cpc r23,__zero_reg__
 3968 0010 04F0      		brlt .L351
 3969 0012 E985      		ldd r30,Y+9
 3970 0014 FA85      		ldd r31,Y+10
 3971 0016 46A1      		ldd r20,Z+38
 3972 0018 57A1      		ldd r21,Z+39
 3973 001a 60A5      		ldd r22,Z+40
 3974 001c 71A5      		ldd r23,Z+41
 3975 001e 82A1      		ldd r24,Z+34
 3976 0020 93A1      		ldd r25,Z+35
 3977 0022 A4A1      		ldd r26,Z+36
 3978 0024 B5A1      		ldd r27,Z+37
 3979 0026 4817      		cp r20,r24
 3980 0028 5907      		cpc r21,r25
GAS LISTING /tmp/ccCB8bF8.s 			page 71


 3981 002a 6A07      		cpc r22,r26
 3982 002c 7B07      		cpc r23,r27
 3983 002e 00F0      		brlo .L352
 3984 0030 CE01      		movw r24,r28
 3985 0032 0E94 0000 		call luaC_step
 3986               	.L352:
 3987 0036 8D81      		ldd r24,Y+5
 3988 0038 9E81      		ldd r25,Y+6
 3989 003a 2F81      		ldd r18,Y+7
 3990 003c 3885      		ldd r19,Y+8
 3991 003e 821B      		sub r24,r18
 3992 0040 930B      		sbc r25,r19
 3993 0042 9595      		asr r25
 3994 0044 8795      		ror r24
 3995 0046 2BEA      		ldi r18,lo8(-85)
 3996 0048 3AEA      		ldi r19,lo8(-86)
 3997 004a 829F      		mul r24,r18
 3998 004c A001      		movw r20,r0
 3999 004e 839F      		mul r24,r19
 4000 0050 500D      		add r21,r0
 4001 0052 929F      		mul r25,r18
 4002 0054 500D      		add r21,r0
 4003 0056 1124      		clr r1
 4004 0058 4150      		subi r20,1
 4005 005a 5109      		sbc r21,__zero_reg__
 4006 005c B801      		movw r22,r16
 4007 005e CE01      		movw r24,r28
 4008 0060 0E94 0000 		call luaV_concat
 4009 0064 2AEF      		ldi r18,lo8(-6)
 4010 0066 2003      		mulsu r18,r16
 4011 0068 C001      		movw r24,r0
 4012 006a 219F      		mul r18,r17
 4013 006c 900D      		add r25,r0
 4014 006e 1124      		clr __zero_reg__
 4015 0070 0696      		adiw r24,6
 4016 0072 2D81      		ldd r18,Y+5
 4017 0074 3E81      		ldd r19,Y+6
 4018 0076 820F      		add r24,r18
 4019 0078 931F      		adc r25,r19
 4020 007a 00C0      		rjmp .L354
 4021               	.L351:
 4022 007c 672B      		or r22,r23
 4023 007e 01F4      		brne .L350
 4024 0080 0D81      		ldd r16,Y+5
 4025 0082 1E81      		ldd r17,Y+6
 4026 0084 40E0      		ldi r20,0
 4027 0086 50E0      		ldi r21,0
 4028 0088 60E0      		ldi r22,lo8(.LC0)
 4029 008a 70E0      		ldi r23,hi8(.LC0)
 4030 008c 0E94 0000 		call luaS_newlstr
 4031 0090 F801      		movw r30,r16
 4032 0092 9183      		std Z+1,r25
 4033 0094 8083      		st Z,r24
 4034 0096 86E0      		ldi r24,lo8(6)
 4035 0098 90E0      		ldi r25,0
 4036 009a 9583      		std Z+5,r25
 4037 009c 8483      		std Z+4,r24
GAS LISTING /tmp/ccCB8bF8.s 			page 72


 4038 009e 8D81      		ldd r24,Y+5
 4039 00a0 9E81      		ldd r25,Y+6
 4040 00a2 0696      		adiw r24,6
 4041               	.L354:
 4042 00a4 9E83      		std Y+6,r25
 4043 00a6 8D83      		std Y+5,r24
 4044               	.L350:
 4045               	/* epilogue start */
 4046 00a8 DF91      		pop r29
 4047 00aa CF91      		pop r28
 4048 00ac 1F91      		pop r17
 4049 00ae 0F91      		pop r16
 4050 00b0 0895      		ret
 4051               		.size	lua_concat, .-lua_concat
 4052               		.section	.text.lua_getallocf,"ax",@progbits
 4053               	.global	lua_getallocf
 4054               		.type	lua_getallocf, @function
 4055               	lua_getallocf:
 4056               	/* prologue: function */
 4057               	/* frame size = 0 */
 4058               	/* stack size = 0 */
 4059               	.L__stack_usage = 0
 4060 0000 6115      		cp r22,__zero_reg__
 4061 0002 7105      		cpc r23,__zero_reg__
 4062 0004 01F0      		breq .L356
 4063 0006 DC01      		movw r26,r24
 4064 0008 1996      		adiw r26,9
 4065 000a ED91      		ld r30,X+
 4066 000c FC91      		ld r31,X
 4067 000e 1A97      		sbiw r26,9+1
 4068 0010 2285      		ldd r18,Z+10
 4069 0012 3385      		ldd r19,Z+11
 4070 0014 FB01      		movw r30,r22
 4071 0016 3183      		std Z+1,r19
 4072 0018 2083      		st Z,r18
 4073               	.L356:
 4074 001a DC01      		movw r26,r24
 4075 001c 1996      		adiw r26,9
 4076 001e ED91      		ld r30,X+
 4077 0020 FC91      		ld r31,X
 4078 0022 1A97      		sbiw r26,9+1
 4079 0024 8085      		ldd r24,Z+8
 4080 0026 9185      		ldd r25,Z+9
 4081 0028 0895      		ret
 4082               		.size	lua_getallocf, .-lua_getallocf
 4083               		.section	.text.lua_setallocf,"ax",@progbits
 4084               	.global	lua_setallocf
 4085               		.type	lua_setallocf, @function
 4086               	lua_setallocf:
 4087               	/* prologue: function */
 4088               	/* frame size = 0 */
 4089               	/* stack size = 0 */
 4090               	.L__stack_usage = 0
 4091 0000 DC01      		movw r26,r24
 4092 0002 1996      		adiw r26,9
 4093 0004 ED91      		ld r30,X+
 4094 0006 FC91      		ld r31,X
GAS LISTING /tmp/ccCB8bF8.s 			page 73


 4095 0008 1A97      		sbiw r26,9+1
 4096 000a 5387      		std Z+11,r21
 4097 000c 4287      		std Z+10,r20
 4098 000e 7187      		std Z+9,r23
 4099 0010 6087      		std Z+8,r22
 4100 0012 0895      		ret
 4101               		.size	lua_setallocf, .-lua_setallocf
 4102               		.section	.text.lua_newuserdata,"ax",@progbits
 4103               	.global	lua_newuserdata
 4104               		.type	lua_newuserdata, @function
 4105               	lua_newuserdata:
 4106 0000 0F93      		push r16
 4107 0002 1F93      		push r17
 4108 0004 CF93      		push r28
 4109 0006 DF93      		push r29
 4110               	/* prologue: function */
 4111               	/* frame size = 0 */
 4112               	/* stack size = 4 */
 4113               	.L__stack_usage = 4
 4114 0008 EC01      		movw r28,r24
 4115 000a 8B01      		movw r16,r22
 4116 000c E985      		ldd r30,Y+9
 4117 000e FA85      		ldd r31,Y+10
 4118 0010 46A1      		ldd r20,Z+38
 4119 0012 57A1      		ldd r21,Z+39
 4120 0014 60A5      		ldd r22,Z+40
 4121 0016 71A5      		ldd r23,Z+41
 4122 0018 82A1      		ldd r24,Z+34
 4123 001a 93A1      		ldd r25,Z+35
 4124 001c A4A1      		ldd r26,Z+36
 4125 001e B5A1      		ldd r27,Z+37
 4126 0020 4817      		cp r20,r24
 4127 0022 5907      		cpc r21,r25
 4128 0024 6A07      		cpc r22,r26
 4129 0026 7B07      		cpc r23,r27
 4130 0028 00F0      		brlo .L362
 4131 002a CE01      		movw r24,r28
 4132 002c 0E94 0000 		call luaC_step
 4133               	.L362:
 4134 0030 CE01      		movw r24,r28
 4135 0032 0E94 0000 		call getcurrenv
 4136 0036 AC01      		movw r20,r24
 4137 0038 B801      		movw r22,r16
 4138 003a CE01      		movw r24,r28
 4139 003c 0E94 0000 		call luaS_newudata
 4140 0040 ED81      		ldd r30,Y+5
 4141 0042 FE81      		ldd r31,Y+6
 4142 0044 9183      		std Z+1,r25
 4143 0046 8083      		st Z,r24
 4144 0048 29E0      		ldi r18,lo8(9)
 4145 004a 30E0      		ldi r19,0
 4146 004c 3583      		std Z+5,r19
 4147 004e 2483      		std Z+4,r18
 4148 0050 2D81      		ldd r18,Y+5
 4149 0052 3E81      		ldd r19,Y+6
 4150 0054 2A5F      		subi r18,-6
 4151 0056 3F4F      		sbci r19,-1
GAS LISTING /tmp/ccCB8bF8.s 			page 74


 4152 0058 3E83      		std Y+6,r19
 4153 005a 2D83      		std Y+5,r18
 4154 005c 0A96      		adiw r24,10
 4155               	/* epilogue start */
 4156 005e DF91      		pop r29
 4157 0060 CF91      		pop r28
 4158 0062 1F91      		pop r17
 4159 0064 0F91      		pop r16
 4160 0066 0895      		ret
 4161               		.size	lua_newuserdata, .-lua_newuserdata
 4162               		.section	.text.lua_getupvalue,"ax",@progbits
 4163               	.global	lua_getupvalue
 4164               		.type	lua_getupvalue, @function
 4165               	lua_getupvalue:
 4166 0000 EF92      		push r14
 4167 0002 FF92      		push r15
 4168 0004 0F93      		push r16
 4169 0006 1F93      		push r17
 4170 0008 CF93      		push r28
 4171 000a DF93      		push r29
 4172 000c 1F92      		push __zero_reg__
 4173 000e 1F92      		push __zero_reg__
 4174 0010 CDB7      		in r28,__SP_L__
 4175 0012 DEB7      		in r29,__SP_H__
 4176               	/* prologue: function */
 4177               	/* frame size = 2 */
 4178               	/* stack size = 8 */
 4179               	.L__stack_usage = 8
 4180 0014 8C01      		movw r16,r24
 4181 0016 7A01      		movw r14,r20
 4182 0018 0E94 0000 		call index2adr
 4183 001c AE01      		movw r20,r28
 4184 001e 4F5F      		subi r20,-1
 4185 0020 5F4F      		sbci r21,-1
 4186 0022 B701      		movw r22,r14
 4187 0024 0E94 0000 		call aux_upvalue
 4188 0028 0097      		sbiw r24,0
 4189 002a 01F0      		breq .L364
 4190 002c 2981      		ldd r18,Y+1
 4191 002e 3A81      		ldd r19,Y+2
 4192 0030 D801      		movw r26,r16
 4193 0032 1596      		adiw r26,5
 4194 0034 ED91      		ld r30,X+
 4195 0036 FC91      		ld r31,X
 4196 0038 1697      		sbiw r26,5+1
 4197 003a D901      		movw r26,r18
 4198 003c 4D91      		ld r20,X+
 4199 003e 5D91      		ld r21,X+
 4200 0040 6D91      		ld r22,X+
 4201 0042 7C91      		ld r23,X
 4202 0044 1397      		sbiw r26,3
 4203 0046 4083      		st Z,r20
 4204 0048 5183      		std Z+1,r21
 4205 004a 6283      		std Z+2,r22
 4206 004c 7383      		std Z+3,r23
 4207 004e 1496      		adiw r26,4
 4208 0050 2D91      		ld r18,X+
GAS LISTING /tmp/ccCB8bF8.s 			page 75


 4209 0052 3C91      		ld r19,X
 4210 0054 1597      		sbiw r26,4+1
 4211 0056 3583      		std Z+5,r19
 4212 0058 2483      		std Z+4,r18
 4213 005a 3696      		adiw r30,6
 4214 005c D801      		movw r26,r16
 4215 005e 1696      		adiw r26,5+1
 4216 0060 FC93      		st X,r31
 4217 0062 EE93      		st -X,r30
 4218 0064 1597      		sbiw r26,5
 4219               	.L364:
 4220               	/* epilogue start */
 4221 0066 0F90      		pop __tmp_reg__
 4222 0068 0F90      		pop __tmp_reg__
 4223 006a DF91      		pop r29
 4224 006c CF91      		pop r28
 4225 006e 1F91      		pop r17
 4226 0070 0F91      		pop r16
 4227 0072 FF90      		pop r15
 4228 0074 EF90      		pop r14
 4229 0076 0895      		ret
 4230               		.size	lua_getupvalue, .-lua_getupvalue
 4231               		.section	.text.lua_setupvalue,"ax",@progbits
 4232               	.global	lua_setupvalue
 4233               		.type	lua_setupvalue, @function
 4234               	lua_setupvalue:
 4235 0000 CF92      		push r12
 4236 0002 DF92      		push r13
 4237 0004 EF92      		push r14
 4238 0006 FF92      		push r15
 4239 0008 0F93      		push r16
 4240 000a 1F93      		push r17
 4241 000c CF93      		push r28
 4242 000e DF93      		push r29
 4243 0010 1F92      		push __zero_reg__
 4244 0012 1F92      		push __zero_reg__
 4245 0014 CDB7      		in r28,__SP_L__
 4246 0016 DEB7      		in r29,__SP_H__
 4247               	/* prologue: function */
 4248               	/* frame size = 2 */
 4249               	/* stack size = 10 */
 4250               	.L__stack_usage = 10
 4251 0018 8C01      		movw r16,r24
 4252 001a 6A01      		movw r12,r20
 4253 001c 0E94 0000 		call index2adr
 4254 0020 7C01      		movw r14,r24
 4255 0022 AE01      		movw r20,r28
 4256 0024 4F5F      		subi r20,-1
 4257 0026 5F4F      		sbci r21,-1
 4258 0028 B601      		movw r22,r12
 4259 002a 0E94 0000 		call aux_upvalue
 4260 002e 6C01      		movw r12,r24
 4261 0030 892B      		or r24,r25
 4262 0032 01F0      		breq .L370
 4263 0034 D801      		movw r26,r16
 4264 0036 1596      		adiw r26,5
 4265 0038 ED91      		ld r30,X+
GAS LISTING /tmp/ccCB8bF8.s 			page 76


 4266 003a FC91      		ld r31,X
 4267 003c 1697      		sbiw r26,5+1
 4268 003e 3697      		sbiw r30,6
 4269 0040 1696      		adiw r26,5+1
 4270 0042 FC93      		st X,r31
 4271 0044 EE93      		st -X,r30
 4272 0046 1597      		sbiw r26,5
 4273 0048 A981      		ldd r26,Y+1
 4274 004a BA81      		ldd r27,Y+2
 4275 004c 4081      		ld r20,Z
 4276 004e 5181      		ldd r21,Z+1
 4277 0050 6281      		ldd r22,Z+2
 4278 0052 7381      		ldd r23,Z+3
 4279 0054 4D93      		st X+,r20
 4280 0056 5D93      		st X+,r21
 4281 0058 6D93      		st X+,r22
 4282 005a 7C93      		st X,r23
 4283 005c 1397      		sbiw r26,3
 4284 005e 8481      		ldd r24,Z+4
 4285 0060 9581      		ldd r25,Z+5
 4286 0062 1596      		adiw r26,4+1
 4287 0064 9C93      		st X,r25
 4288 0066 8E93      		st -X,r24
 4289 0068 1497      		sbiw r26,4
 4290 006a 8481      		ldd r24,Z+4
 4291 006c 9581      		ldd r25,Z+5
 4292 006e 0697      		sbiw r24,6
 4293 0070 04F0      		brlt .L370
 4294 0072 4081      		ld r20,Z
 4295 0074 5181      		ldd r21,Z+1
 4296 0076 FA01      		movw r30,r20
 4297 0078 8381      		ldd r24,Z+3
 4298 007a 8370      		andi r24,lo8(3)
 4299 007c 01F0      		breq .L370
 4300 007e D701      		movw r26,r14
 4301 0080 6D91      		ld r22,X+
 4302 0082 7C91      		ld r23,X
 4303 0084 FB01      		movw r30,r22
 4304 0086 8381      		ldd r24,Z+3
 4305 0088 82FF      		sbrs r24,2
 4306 008a 00C0      		rjmp .L370
 4307 008c C801      		movw r24,r16
 4308 008e 0E94 0000 		call luaC_barrierf
 4309               	.L370:
 4310 0092 C601      		movw r24,r12
 4311               	/* epilogue start */
 4312 0094 0F90      		pop __tmp_reg__
 4313 0096 0F90      		pop __tmp_reg__
 4314 0098 DF91      		pop r29
 4315 009a CF91      		pop r28
 4316 009c 1F91      		pop r17
 4317 009e 0F91      		pop r16
 4318 00a0 FF90      		pop r15
 4319 00a2 EF90      		pop r14
 4320 00a4 DF90      		pop r13
 4321 00a6 CF90      		pop r12
 4322 00a8 0895      		ret
GAS LISTING /tmp/ccCB8bF8.s 			page 77


 4323               		.size	lua_setupvalue, .-lua_setupvalue
 4324               	.global	lua_ident
 4325               		.section	.rodata
 4326               		.type	lua_ident, @object
 4327               		.size	lua_ident, 141
 4328               	lua_ident:
 4329 0000 244C 7561 		.string	"$Lua: Lua 5.1.4 Copyright (C) 1994-2008 Lua.org, PUC-Rio $\n$Authors: R. Ierusalimschy, L
 4329      3A20 4C75 
 4329      6120 352E 
 4329      312E 3420 
 4329      436F 7079 
 4330               		.hidden	luaS_newudata
 4331               		.hidden	luaV_concat
 4332               		.hidden	luaH_next
 4333               		.hidden	luaG_errormsg
 4334               		.hidden	luaC_fullgc
 4335               		.hidden	luaU_dump
 4336               		.hidden	luaD_protectedparser
 4337               		.hidden	luaZ_init
 4338               		.hidden	luaD_pcall
 4339               		.hidden	luaH_setnum
 4340               		.hidden	luaC_barrierback
 4341               		.hidden	luaH_set
 4342               		.hidden	luaV_settable
 4343               		.hidden	luaH_new
 4344               		.hidden	luaH_getnum
 4345               		.hidden	luaH_get
 4346               		.hidden	luaV_gettable
 4347               		.hidden	luaO_pushvfstring
 4348               		.hidden	luaS_newlstr
 4349               		.hidden	luaH_getn
 4350               		.hidden	luaV_tostring
 4351               		.hidden	luaV_lessthan
 4352               		.hidden	luaV_equalval
 4353               		.hidden	luaO_rawequalObj
 4354               		.hidden	luaV_tonumber
 4355               		.hidden	luaT_typenames
 4356               		.hidden	luaC_barrierf
 4357               		.hidden	luaG_runerror
 4358               		.hidden	luaE_newthread
 4359               		.hidden	luaC_step
 4360               		.hidden	luaD_growstack
 4361               		.hidden	luaO_nilobject_
 4362               		.hidden	luaF_newCclosure
 4363               		.hidden	luaD_call
 4364               		.ident	"GCC: (GNU) 5.3.0"
 4365               	.global __do_copy_data
GAS LISTING /tmp/ccCB8bF8.s 			page 78


DEFINED SYMBOLS
                            *ABS*:0000000000000000 lapi.c
     /tmp/ccCB8bF8.s:2      *ABS*:000000000000003e __SP_H__
     /tmp/ccCB8bF8.s:3      *ABS*:000000000000003d __SP_L__
     /tmp/ccCB8bF8.s:4      *ABS*:000000000000003f __SREG__
     /tmp/ccCB8bF8.s:5      *ABS*:000000000000003b __RAMPZ__
     /tmp/ccCB8bF8.s:6      *ABS*:0000000000000000 __tmp_reg__
     /tmp/ccCB8bF8.s:7      *ABS*:0000000000000001 __zero_reg__
     /tmp/ccCB8bF8.s:10     .text.getcurrenv:0000000000000000 getcurrenv
     /tmp/ccCB8bF8.s:54     .text.aux_upvalue:0000000000000000 aux_upvalue
     /tmp/ccCB8bF8.s:146    .text.f_call:0000000000000000 f_call
     /tmp/ccCB8bF8.s:160    .text.f_Ccall:0000000000000000 f_Ccall
     /tmp/ccCB8bF8.s:228    .text.index2adr:0000000000000000 index2adr
     /tmp/ccCB8bF8.s:377    .text.luaA_pushobject:0000000000000000 luaA_pushobject
     /tmp/ccCB8bF8.s:419    .text.lua_checkstack:0000000000000000 lua_checkstack
     /tmp/ccCB8bF8.s:514    .text.lua_xmove:0000000000000000 lua_xmove
     /tmp/ccCB8bF8.s:605    .text.lua_setlevel:0000000000000000 lua_setlevel
     /tmp/ccCB8bF8.s:621    .text.lua_atpanic:0000000000000000 lua_atpanic
     /tmp/ccCB8bF8.s:640    .text.lua_newthread:0000000000000000 lua_newthread
     /tmp/ccCB8bF8.s:690    .text.lua_gettop:0000000000000000 lua_gettop
     /tmp/ccCB8bF8.s:719    .text.lua_settop:0000000000000000 lua_settop
     /tmp/ccCB8bF8.s:774    .text.lua_remove:0000000000000000 lua_remove
     /tmp/ccCB8bF8.s:820    .text.lua_insert:0000000000000000 lua_insert
     /tmp/ccCB8bF8.s:892    .text.lua_replace:0000000000000000 lua_replace
     /tmp/ccCB8bF8.s:1065   .text.lua_pushvalue:0000000000000000 lua_pushvalue
     /tmp/ccCB8bF8.s:1103   .text.lua_type:0000000000000000 lua_type
     /tmp/ccCB8bF8.s:1128   .text.lua_typename:0000000000000000 lua_typename
     /tmp/ccCB8bF8.s:1153   .text.lua_iscfunction:0000000000000000 lua_iscfunction
     /tmp/ccCB8bF8.s:1189   .text.lua_isnumber:0000000000000000 lua_isnumber
     /tmp/ccCB8bF8.s:1238   .text.lua_isstring:0000000000000000 lua_isstring
     /tmp/ccCB8bF8.s:1260   .text.lua_isuserdata:0000000000000000 lua_isuserdata
     /tmp/ccCB8bF8.s:1285   .text.lua_rawequal:0000000000000000 lua_rawequal
     /tmp/ccCB8bF8.s:1336   .text.lua_equal:0000000000000000 lua_equal
     /tmp/ccCB8bF8.s:1400   .text.lua_lessthan:0000000000000000 lua_lessthan
     /tmp/ccCB8bF8.s:1452   .text.lua_tonumber:0000000000000000 lua_tonumber
     /tmp/ccCB8bF8.s:1502   .text.lua_tointeger:0000000000000000 lua_tointeger
     /tmp/ccCB8bF8.s:1549   .text.lua_toboolean:0000000000000000 lua_toboolean
     /tmp/ccCB8bF8.s:1582   .text.lua_tolstring:0000000000000000 lua_tolstring
     /tmp/ccCB8bF8.s:1673   .text.lua_objlen:0000000000000000 lua_objlen
     /tmp/ccCB8bF8.s:1740   .text.lua_tocfunction:0000000000000000 lua_tocfunction
     /tmp/ccCB8bF8.s:1777   .text.lua_touserdata:0000000000000000 lua_touserdata
     /tmp/ccCB8bF8.s:1807   .text.lua_tothread:0000000000000000 lua_tothread
     /tmp/ccCB8bF8.s:1830   .text.lua_topointer:0000000000000000 lua_topointer
     /tmp/ccCB8bF8.s:1896   .text.lua_pushnil:0000000000000000 lua_pushnil
     /tmp/ccCB8bF8.s:1918   .text.lua_pushnumber:0000000000000000 lua_pushnumber
     /tmp/ccCB8bF8.s:1947   .text.lua_pushinteger:0000000000000000 lua_pushinteger
     /tmp/ccCB8bF8.s:1982   .text.lua_pushlstring:0000000000000000 lua_pushlstring
     /tmp/ccCB8bF8.s:2064   .text.lua_pushstring:0000000000000000 lua_pushstring
     /tmp/ccCB8bF8.s:2088   .text.lua_pushvfstring:0000000000000000 lua_pushvfstring
     /tmp/ccCB8bF8.s:2150   .text.lua_pushfstring:0000000000000000 lua_pushfstring
     /tmp/ccCB8bF8.s:2201   .text.lua_pushcclosure:0000000000000000 lua_pushcclosure
     /tmp/ccCB8bF8.s:2314   .text.lua_pushboolean:0000000000000000 lua_pushboolean
     /tmp/ccCB8bF8.s:2348   .text.lua_pushlightuserdata:0000000000000000 lua_pushlightuserdata
     /tmp/ccCB8bF8.s:2375   .text.lua_pushrotable:0000000000000000 lua_pushrotable
     /tmp/ccCB8bF8.s:2402   .text.lua_pushlightfunction:0000000000000000 lua_pushlightfunction
     /tmp/ccCB8bF8.s:2429   .text.lua_pushthread:0000000000000000 lua_pushthread
     /tmp/ccCB8bF8.s:2470   .text.lua_gettable:0000000000000000 lua_gettable
GAS LISTING /tmp/ccCB8bF8.s 			page 79


     /tmp/ccCB8bF8.s:2494   .text.lua_getfield:0000000000000000 lua_getfield
     /tmp/ccCB8bF8.s:2568   .text.lua_rawget:0000000000000000 lua_rawget
     /tmp/ccCB8bF8.s:2612   .text.lua_rawgeti:0000000000000000 lua_rawgeti
     /tmp/ccCB8bF8.s:2660   .text.lua_createtable:0000000000000000 lua_createtable
     /tmp/ccCB8bF8.s:2742   .text.lua_getmetatable:0000000000000000 lua_getmetatable
     /tmp/ccCB8bF8.s:2815   .text.lua_getfenv:0000000000000000 lua_getfenv
     /tmp/ccCB8bF8.s:2900   .text.lua_settable:0000000000000000 lua_settable
     /tmp/ccCB8bF8.s:2932   .text.lua_setfield:0000000000000000 lua_setfield
     /tmp/ccCB8bF8.s:3008   .text.lua_rawset:0000000000000000 lua_rawset
     /tmp/ccCB8bF8.s:3091   .text.lua_rawseti:0000000000000000 lua_rawseti
     /tmp/ccCB8bF8.s:3192   .text.lua_setmetatable:0000000000000000 lua_setmetatable
     /tmp/ccCB8bF8.s:3302   .text.lua_setfenv:0000000000000000 lua_setfenv
     /tmp/ccCB8bF8.s:3412   .text.lua_call:0000000000000000 lua_call
     /tmp/ccCB8bF8.s:3464   .text.lua_pcall:0000000000000000 lua_pcall
     /tmp/ccCB8bF8.s:3574   .text.lua_cpcall:0000000000000000 lua_cpcall
     /tmp/ccCB8bF8.s:3623   .text.lua_load:0000000000000000 lua_load
     /tmp/ccCB8bF8.s:3680   .text.lua_dump:0000000000000000 lua_dump
     /tmp/ccCB8bF8.s:3727   .text.lua_status:0000000000000000 lua_status
     /tmp/ccCB8bF8.s:3740   .text.lua_gc:0000000000000000 lua_gc
     /tmp/ccCB8bF8.s:3903   .text.lua_error:0000000000000000 lua_error
     /tmp/ccCB8bF8.s:3916   .text.lua_next:0000000000000000 lua_next
     /tmp/ccCB8bF8.s:3955   .text.lua_concat:0000000000000000 lua_concat
     /tmp/ccCB8bF8.s:4055   .text.lua_getallocf:0000000000000000 lua_getallocf
     /tmp/ccCB8bF8.s:4086   .text.lua_setallocf:0000000000000000 lua_setallocf
     /tmp/ccCB8bF8.s:4105   .text.lua_newuserdata:0000000000000000 lua_newuserdata
     /tmp/ccCB8bF8.s:4165   .text.lua_getupvalue:0000000000000000 lua_getupvalue
     /tmp/ccCB8bF8.s:4234   .text.lua_setupvalue:0000000000000000 lua_setupvalue
     /tmp/ccCB8bF8.s:4328   .rodata:0000000000000000 lua_ident

UNDEFINED SYMBOLS
luaD_call
luaF_newCclosure
luaO_nilobject_
luaD_growstack
luaC_step
luaE_newthread
luaG_runerror
luaC_barrierf
luaT_typenames
luaV_tonumber
luaO_rawequalObj
luaV_equalval
luaV_lessthan
luaV_tostring
luaH_getn
__tablejump2__
luaS_newlstr
luaO_pushvfstring
luaV_gettable
luaH_get
luaH_getnum
luaH_new
luaV_settable
luaH_set
luaC_barrierback
luaH_setnum
luaD_pcall
GAS LISTING /tmp/ccCB8bF8.s 			page 80


luaZ_init
luaD_protectedparser
luaU_dump
luaC_fullgc
luaG_errormsg
luaH_next
luaV_concat
luaS_newudata
__do_copy_data
