GAS LISTING /tmp/cchCtIPA.s 			page 1


   1               		.file	"lbaselib.c"
   2               	__SP_H__ = 0x3e
   3               	__SP_L__ = 0x3d
   4               	__SREG__ = 0x3f
   5               	__RAMPZ__ = 0x3b
   6               	__tmp_reg__ = 0
   7               	__zero_reg__ = 1
   8               		.section	.text.luaB_yield,"ax",@progbits
   9               		.type	luaB_yield, @function
  10               	luaB_yield:
  11 0000 CF93      		push r28
  12 0002 DF93      		push r29
  13               	/* prologue: function */
  14               	/* frame size = 0 */
  15               	/* stack size = 2 */
  16               	.L__stack_usage = 2
  17 0004 EC01      		movw r28,r24
  18 0006 0E94 0000 		call lua_gettop
  19 000a BC01      		movw r22,r24
  20 000c CE01      		movw r24,r28
  21               	/* epilogue start */
  22 000e DF91      		pop r29
  23 0010 CF91      		pop r28
  24 0012 0C94 0000 		jmp lua_yield
  25               		.size	luaB_yield, .-luaB_yield
  26               		.section	.text.luaB_corunning,"ax",@progbits
  27               		.type	luaB_corunning, @function
  28               	luaB_corunning:
  29 0000 CF93      		push r28
  30 0002 DF93      		push r29
  31               	/* prologue: function */
  32               	/* frame size = 0 */
  33               	/* stack size = 2 */
  34               	.L__stack_usage = 2
  35 0004 EC01      		movw r28,r24
  36 0006 0E94 0000 		call lua_pushthread
  37 000a 892B      		or r24,r25
  38 000c 01F0      		breq .L3
  39 000e CE01      		movw r24,r28
  40 0010 0E94 0000 		call lua_pushnil
  41               	.L3:
  42 0014 81E0      		ldi r24,lo8(1)
  43 0016 90E0      		ldi r25,0
  44               	/* epilogue start */
  45 0018 DF91      		pop r29
  46 001a CF91      		pop r28
  47 001c 0895      		ret
  48               		.size	luaB_corunning, .-luaB_corunning
  49               		.section	.rodata.str1.1,"aMS",@progbits,1
  50               	.LC0:
  51 0000 4C75 6120 		.string	"Lua function expected"
  51      6675 6E63 
  51      7469 6F6E 
  51      2065 7870 
  51      6563 7465 
  52               		.section	.text.luaB_cocreate,"ax",@progbits
  53               		.type	luaB_cocreate, @function
GAS LISTING /tmp/cchCtIPA.s 			page 2


  54               	luaB_cocreate:
  55 0000 0F93      		push r16
  56 0002 1F93      		push r17
  57 0004 CF93      		push r28
  58 0006 DF93      		push r29
  59               	/* prologue: function */
  60               	/* frame size = 0 */
  61               	/* stack size = 4 */
  62               	.L__stack_usage = 4
  63 0008 EC01      		movw r28,r24
  64 000a 0E94 0000 		call lua_newthread
  65 000e 8C01      		movw r16,r24
  66 0010 61E0      		ldi r22,lo8(1)
  67 0012 70E0      		ldi r23,0
  68 0014 CE01      		movw r24,r28
  69 0016 0E94 0000 		call lua_type
  70 001a 0897      		sbiw r24,8
  71 001c 01F0      		breq .L9
  72               	.L11:
  73 001e 40E0      		ldi r20,lo8(.LC0)
  74 0020 50E0      		ldi r21,hi8(.LC0)
  75 0022 61E0      		ldi r22,lo8(1)
  76 0024 70E0      		ldi r23,0
  77 0026 CE01      		movw r24,r28
  78 0028 0E94 0000 		call luaL_argerror
  79 002c 00C0      		rjmp .L10
  80               	.L9:
  81 002e 61E0      		ldi r22,lo8(1)
  82 0030 70E0      		ldi r23,0
  83 0032 CE01      		movw r24,r28
  84 0034 0E94 0000 		call lua_iscfunction
  85 0038 892B      		or r24,r25
  86 003a 01F4      		brne .L11
  87               	.L10:
  88 003c 61E0      		ldi r22,lo8(1)
  89 003e 70E0      		ldi r23,0
  90 0040 CE01      		movw r24,r28
  91 0042 0E94 0000 		call lua_pushvalue
  92 0046 41E0      		ldi r20,lo8(1)
  93 0048 50E0      		ldi r21,0
  94 004a B801      		movw r22,r16
  95 004c CE01      		movw r24,r28
  96 004e 0E94 0000 		call lua_xmove
  97 0052 81E0      		ldi r24,lo8(1)
  98 0054 90E0      		ldi r25,0
  99               	/* epilogue start */
 100 0056 DF91      		pop r29
 101 0058 CF91      		pop r28
 102 005a 1F91      		pop r17
 103 005c 0F91      		pop r16
 104 005e 0895      		ret
 105               		.size	luaB_cocreate, .-luaB_cocreate
 106               		.section	.text.luaB_cowrap,"ax",@progbits
 107               		.type	luaB_cowrap, @function
 108               	luaB_cowrap:
 109 0000 CF93      		push r28
 110 0002 DF93      		push r29
GAS LISTING /tmp/cchCtIPA.s 			page 3


 111               	/* prologue: function */
 112               	/* frame size = 0 */
 113               	/* stack size = 2 */
 114               	.L__stack_usage = 2
 115 0004 EC01      		movw r28,r24
 116 0006 0E94 0000 		call luaB_cocreate
 117 000a 41E0      		ldi r20,lo8(1)
 118 000c 50E0      		ldi r21,0
 119 000e 60E0      		ldi r22,lo8(gs(luaB_auxwrap))
 120 0010 70E0      		ldi r23,hi8(gs(luaB_auxwrap))
 121 0012 CE01      		movw r24,r28
 122 0014 0E94 0000 		call lua_pushcclosure
 123 0018 81E0      		ldi r24,lo8(1)
 124 001a 90E0      		ldi r25,0
 125               	/* epilogue start */
 126 001c DF91      		pop r29
 127 001e CF91      		pop r28
 128 0020 0895      		ret
 129               		.size	luaB_cowrap, .-luaB_cowrap
 130               		.section	.text.luaB_pairs,"ax",@progbits
 131               		.type	luaB_pairs, @function
 132               	luaB_pairs:
 133 0000 CF93      		push r28
 134 0002 DF93      		push r29
 135               	/* prologue: function */
 136               	/* frame size = 0 */
 137               	/* stack size = 2 */
 138               	.L__stack_usage = 2
 139 0004 EC01      		movw r28,r24
 140 0006 47E0      		ldi r20,lo8(7)
 141 0008 50E0      		ldi r21,0
 142 000a 61E0      		ldi r22,lo8(1)
 143 000c 70E0      		ldi r23,0
 144 000e 0E94 0000 		call luaL_checktype
 145 0012 6DEE      		ldi r22,lo8(-19)
 146 0014 78ED      		ldi r23,lo8(-40)
 147 0016 CE01      		movw r24,r28
 148 0018 0E94 0000 		call lua_pushvalue
 149 001c 61E0      		ldi r22,lo8(1)
 150 001e 70E0      		ldi r23,0
 151 0020 CE01      		movw r24,r28
 152 0022 0E94 0000 		call lua_pushvalue
 153 0026 CE01      		movw r24,r28
 154 0028 0E94 0000 		call lua_pushnil
 155 002c 83E0      		ldi r24,lo8(3)
 156 002e 90E0      		ldi r25,0
 157               	/* epilogue start */
 158 0030 DF91      		pop r29
 159 0032 CF91      		pop r28
 160 0034 0895      		ret
 161               		.size	luaB_pairs, .-luaB_pairs
 162               		.section	.text.luaB_next,"ax",@progbits
 163               		.type	luaB_next, @function
 164               	luaB_next:
 165 0000 CF93      		push r28
 166 0002 DF93      		push r29
 167               	/* prologue: function */
GAS LISTING /tmp/cchCtIPA.s 			page 4


 168               	/* frame size = 0 */
 169               	/* stack size = 2 */
 170               	.L__stack_usage = 2
 171 0004 EC01      		movw r28,r24
 172 0006 47E0      		ldi r20,lo8(7)
 173 0008 50E0      		ldi r21,0
 174 000a 61E0      		ldi r22,lo8(1)
 175 000c 70E0      		ldi r23,0
 176 000e 0E94 0000 		call luaL_checktype
 177 0012 62E0      		ldi r22,lo8(2)
 178 0014 70E0      		ldi r23,0
 179 0016 CE01      		movw r24,r28
 180 0018 0E94 0000 		call lua_settop
 181 001c 61E0      		ldi r22,lo8(1)
 182 001e 70E0      		ldi r23,0
 183 0020 CE01      		movw r24,r28
 184 0022 0E94 0000 		call lua_next
 185 0026 892B      		or r24,r25
 186 0028 01F4      		brne .L16
 187 002a CE01      		movw r24,r28
 188 002c 0E94 0000 		call lua_pushnil
 189 0030 81E0      		ldi r24,lo8(1)
 190 0032 90E0      		ldi r25,0
 191 0034 00C0      		rjmp .L15
 192               	.L16:
 193 0036 82E0      		ldi r24,lo8(2)
 194 0038 90E0      		ldi r25,0
 195               	.L15:
 196               	/* epilogue start */
 197 003a DF91      		pop r29
 198 003c CF91      		pop r28
 199 003e 0895      		ret
 200               		.size	luaB_next, .-luaB_next
 201               		.section	.text.luaB_ipairs,"ax",@progbits
 202               		.type	luaB_ipairs, @function
 203               	luaB_ipairs:
 204 0000 CF93      		push r28
 205 0002 DF93      		push r29
 206               	/* prologue: function */
 207               	/* frame size = 0 */
 208               	/* stack size = 2 */
 209               	.L__stack_usage = 2
 210 0004 EC01      		movw r28,r24
 211 0006 47E0      		ldi r20,lo8(7)
 212 0008 50E0      		ldi r21,0
 213 000a 61E0      		ldi r22,lo8(1)
 214 000c 70E0      		ldi r23,0
 215 000e 0E94 0000 		call luaL_checktype
 216 0012 6DEE      		ldi r22,lo8(-19)
 217 0014 78ED      		ldi r23,lo8(-40)
 218 0016 CE01      		movw r24,r28
 219 0018 0E94 0000 		call lua_pushvalue
 220 001c 61E0      		ldi r22,lo8(1)
 221 001e 70E0      		ldi r23,0
 222 0020 CE01      		movw r24,r28
 223 0022 0E94 0000 		call lua_pushvalue
 224 0026 60E0      		ldi r22,0
GAS LISTING /tmp/cchCtIPA.s 			page 5


 225 0028 70E0      		ldi r23,0
 226 002a CE01      		movw r24,r28
 227 002c 0E94 0000 		call lua_pushinteger
 228 0030 83E0      		ldi r24,lo8(3)
 229 0032 90E0      		ldi r25,0
 230               	/* epilogue start */
 231 0034 DF91      		pop r29
 232 0036 CF91      		pop r28
 233 0038 0895      		ret
 234               		.size	luaB_ipairs, .-luaB_ipairs
 235               		.section	.text.ipairsaux,"ax",@progbits
 236               		.type	ipairsaux, @function
 237               	ipairsaux:
 238 0000 0F93      		push r16
 239 0002 1F93      		push r17
 240 0004 CF93      		push r28
 241 0006 DF93      		push r29
 242               	/* prologue: function */
 243               	/* frame size = 0 */
 244               	/* stack size = 4 */
 245               	.L__stack_usage = 4
 246 0008 EC01      		movw r28,r24
 247 000a 62E0      		ldi r22,lo8(2)
 248 000c 70E0      		ldi r23,0
 249 000e 0E94 0000 		call luaL_checkinteger
 250 0012 8C01      		movw r16,r24
 251 0014 47E0      		ldi r20,lo8(7)
 252 0016 50E0      		ldi r21,0
 253 0018 61E0      		ldi r22,lo8(1)
 254 001a 70E0      		ldi r23,0
 255 001c CE01      		movw r24,r28
 256 001e 0E94 0000 		call luaL_checktype
 257 0022 0F5F      		subi r16,-1
 258 0024 1F4F      		sbci r17,-1
 259 0026 B801      		movw r22,r16
 260 0028 CE01      		movw r24,r28
 261 002a 0E94 0000 		call lua_pushinteger
 262 002e A801      		movw r20,r16
 263 0030 61E0      		ldi r22,lo8(1)
 264 0032 70E0      		ldi r23,0
 265 0034 CE01      		movw r24,r28
 266 0036 0E94 0000 		call lua_rawgeti
 267 003a 6FEF      		ldi r22,lo8(-1)
 268 003c 7FEF      		ldi r23,lo8(-1)
 269 003e CE01      		movw r24,r28
 270 0040 0E94 0000 		call lua_type
 271 0044 0097      		sbiw r24,0
 272 0046 01F0      		breq .L19
 273 0048 82E0      		ldi r24,lo8(2)
 274 004a 90E0      		ldi r25,0
 275               	.L19:
 276               	/* epilogue start */
 277 004c DF91      		pop r29
 278 004e CF91      		pop r28
 279 0050 1F91      		pop r17
 280 0052 0F91      		pop r16
 281 0054 0895      		ret
GAS LISTING /tmp/cchCtIPA.s 			page 6


 282               		.size	ipairsaux, .-ipairsaux
 283               		.section	.text.luaB_rawset,"ax",@progbits
 284               		.type	luaB_rawset, @function
 285               	luaB_rawset:
 286 0000 CF93      		push r28
 287 0002 DF93      		push r29
 288               	/* prologue: function */
 289               	/* frame size = 0 */
 290               	/* stack size = 2 */
 291               	.L__stack_usage = 2
 292 0004 EC01      		movw r28,r24
 293 0006 47E0      		ldi r20,lo8(7)
 294 0008 50E0      		ldi r21,0
 295 000a 61E0      		ldi r22,lo8(1)
 296 000c 70E0      		ldi r23,0
 297 000e 0E94 0000 		call luaL_checktype
 298 0012 62E0      		ldi r22,lo8(2)
 299 0014 70E0      		ldi r23,0
 300 0016 CE01      		movw r24,r28
 301 0018 0E94 0000 		call luaL_checkany
 302 001c 63E0      		ldi r22,lo8(3)
 303 001e 70E0      		ldi r23,0
 304 0020 CE01      		movw r24,r28
 305 0022 0E94 0000 		call luaL_checkany
 306 0026 63E0      		ldi r22,lo8(3)
 307 0028 70E0      		ldi r23,0
 308 002a CE01      		movw r24,r28
 309 002c 0E94 0000 		call lua_settop
 310 0030 61E0      		ldi r22,lo8(1)
 311 0032 70E0      		ldi r23,0
 312 0034 CE01      		movw r24,r28
 313 0036 0E94 0000 		call lua_rawset
 314 003a 81E0      		ldi r24,lo8(1)
 315 003c 90E0      		ldi r25,0
 316               	/* epilogue start */
 317 003e DF91      		pop r29
 318 0040 CF91      		pop r28
 319 0042 0895      		ret
 320               		.size	luaB_rawset, .-luaB_rawset
 321               		.section	.text.luaB_rawget,"ax",@progbits
 322               		.type	luaB_rawget, @function
 323               	luaB_rawget:
 324 0000 CF93      		push r28
 325 0002 DF93      		push r29
 326               	/* prologue: function */
 327               	/* frame size = 0 */
 328               	/* stack size = 2 */
 329               	.L__stack_usage = 2
 330 0004 EC01      		movw r28,r24
 331 0006 47E0      		ldi r20,lo8(7)
 332 0008 50E0      		ldi r21,0
 333 000a 61E0      		ldi r22,lo8(1)
 334 000c 70E0      		ldi r23,0
 335 000e 0E94 0000 		call luaL_checktype
 336 0012 62E0      		ldi r22,lo8(2)
 337 0014 70E0      		ldi r23,0
 338 0016 CE01      		movw r24,r28
GAS LISTING /tmp/cchCtIPA.s 			page 7


 339 0018 0E94 0000 		call luaL_checkany
 340 001c 62E0      		ldi r22,lo8(2)
 341 001e 70E0      		ldi r23,0
 342 0020 CE01      		movw r24,r28
 343 0022 0E94 0000 		call lua_settop
 344 0026 61E0      		ldi r22,lo8(1)
 345 0028 70E0      		ldi r23,0
 346 002a CE01      		movw r24,r28
 347 002c 0E94 0000 		call lua_rawget
 348 0030 81E0      		ldi r24,lo8(1)
 349 0032 90E0      		ldi r25,0
 350               	/* epilogue start */
 351 0034 DF91      		pop r29
 352 0036 CF91      		pop r28
 353 0038 0895      		ret
 354               		.size	luaB_rawget, .-luaB_rawget
 355               		.section	.text.luaB_pcall,"ax",@progbits
 356               		.type	luaB_pcall, @function
 357               	luaB_pcall:
 358 0000 CF93      		push r28
 359 0002 DF93      		push r29
 360               	/* prologue: function */
 361               	/* frame size = 0 */
 362               	/* stack size = 2 */
 363               	.L__stack_usage = 2
 364 0004 EC01      		movw r28,r24
 365 0006 61E0      		ldi r22,lo8(1)
 366 0008 70E0      		ldi r23,0
 367 000a 0E94 0000 		call luaL_checkany
 368 000e CE01      		movw r24,r28
 369 0010 0E94 0000 		call lua_gettop
 370 0014 BC01      		movw r22,r24
 371 0016 6150      		subi r22,1
 372 0018 7109      		sbc r23,__zero_reg__
 373 001a 20E0      		ldi r18,0
 374 001c 30E0      		ldi r19,0
 375 001e 4FEF      		ldi r20,lo8(-1)
 376 0020 5FEF      		ldi r21,lo8(-1)
 377 0022 CE01      		movw r24,r28
 378 0024 0E94 0000 		call lua_pcall
 379 0028 61E0      		ldi r22,lo8(1)
 380 002a 70E0      		ldi r23,0
 381 002c 892B      		or r24,r25
 382 002e 01F0      		breq .L26
 383 0030 60E0      		ldi r22,0
 384 0032 70E0      		ldi r23,0
 385               	.L26:
 386 0034 CE01      		movw r24,r28
 387 0036 0E94 0000 		call lua_pushboolean
 388 003a 61E0      		ldi r22,lo8(1)
 389 003c 70E0      		ldi r23,0
 390 003e CE01      		movw r24,r28
 391 0040 0E94 0000 		call lua_insert
 392 0044 CE01      		movw r24,r28
 393               	/* epilogue start */
 394 0046 DF91      		pop r29
 395 0048 CF91      		pop r28
GAS LISTING /tmp/cchCtIPA.s 			page 8


 396 004a 0C94 0000 		jmp lua_gettop
 397               		.size	luaB_pcall, .-luaB_pcall
 398               		.section	.text.luaB_xpcall,"ax",@progbits
 399               		.type	luaB_xpcall, @function
 400               	luaB_xpcall:
 401 0000 CF93      		push r28
 402 0002 DF93      		push r29
 403               	/* prologue: function */
 404               	/* frame size = 0 */
 405               	/* stack size = 2 */
 406               	.L__stack_usage = 2
 407 0004 EC01      		movw r28,r24
 408 0006 62E0      		ldi r22,lo8(2)
 409 0008 70E0      		ldi r23,0
 410 000a 0E94 0000 		call luaL_checkany
 411 000e 62E0      		ldi r22,lo8(2)
 412 0010 70E0      		ldi r23,0
 413 0012 CE01      		movw r24,r28
 414 0014 0E94 0000 		call lua_settop
 415 0018 61E0      		ldi r22,lo8(1)
 416 001a 70E0      		ldi r23,0
 417 001c CE01      		movw r24,r28
 418 001e 0E94 0000 		call lua_insert
 419 0022 21E0      		ldi r18,lo8(1)
 420 0024 30E0      		ldi r19,0
 421 0026 4FEF      		ldi r20,lo8(-1)
 422 0028 5FEF      		ldi r21,lo8(-1)
 423 002a 60E0      		ldi r22,0
 424 002c 70E0      		ldi r23,0
 425 002e CE01      		movw r24,r28
 426 0030 0E94 0000 		call lua_pcall
 427 0034 61E0      		ldi r22,lo8(1)
 428 0036 70E0      		ldi r23,0
 429 0038 892B      		or r24,r25
 430 003a 01F0      		breq .L31
 431 003c 60E0      		ldi r22,0
 432 003e 70E0      		ldi r23,0
 433               	.L31:
 434 0040 CE01      		movw r24,r28
 435 0042 0E94 0000 		call lua_pushboolean
 436 0046 61E0      		ldi r22,lo8(1)
 437 0048 70E0      		ldi r23,0
 438 004a CE01      		movw r24,r28
 439 004c 0E94 0000 		call lua_replace
 440 0050 CE01      		movw r24,r28
 441               	/* epilogue start */
 442 0052 DF91      		pop r29
 443 0054 CF91      		pop r28
 444 0056 0C94 0000 		jmp lua_gettop
 445               		.size	luaB_xpcall, .-luaB_xpcall
 446               		.section	.text.luaB_error,"ax",@progbits
 447               		.type	luaB_error, @function
 448               	luaB_error:
 449 0000 0F93      		push r16
 450 0002 1F93      		push r17
 451 0004 CF93      		push r28
 452 0006 DF93      		push r29
GAS LISTING /tmp/cchCtIPA.s 			page 9


 453               	/* prologue: function */
 454               	/* frame size = 0 */
 455               	/* stack size = 4 */
 456               	.L__stack_usage = 4
 457 0008 EC01      		movw r28,r24
 458 000a 41E0      		ldi r20,lo8(1)
 459 000c 50E0      		ldi r21,0
 460 000e 62E0      		ldi r22,lo8(2)
 461 0010 70E0      		ldi r23,0
 462 0012 0E94 0000 		call luaL_optinteger
 463 0016 8C01      		movw r16,r24
 464 0018 61E0      		ldi r22,lo8(1)
 465 001a 70E0      		ldi r23,0
 466 001c CE01      		movw r24,r28
 467 001e 0E94 0000 		call lua_settop
 468 0022 61E0      		ldi r22,lo8(1)
 469 0024 70E0      		ldi r23,0
 470 0026 CE01      		movw r24,r28
 471 0028 0E94 0000 		call lua_isstring
 472 002c 892B      		or r24,r25
 473 002e 01F0      		breq .L36
 474 0030 1016      		cp __zero_reg__,r16
 475 0032 1106      		cpc __zero_reg__,r17
 476 0034 04F4      		brge .L36
 477 0036 B801      		movw r22,r16
 478 0038 CE01      		movw r24,r28
 479 003a 0E94 0000 		call luaL_where
 480 003e 61E0      		ldi r22,lo8(1)
 481 0040 70E0      		ldi r23,0
 482 0042 CE01      		movw r24,r28
 483 0044 0E94 0000 		call lua_pushvalue
 484 0048 62E0      		ldi r22,lo8(2)
 485 004a 70E0      		ldi r23,0
 486 004c CE01      		movw r24,r28
 487 004e 0E94 0000 		call lua_concat
 488               	.L36:
 489 0052 CE01      		movw r24,r28
 490               	/* epilogue start */
 491 0054 DF91      		pop r29
 492 0056 CF91      		pop r28
 493 0058 1F91      		pop r17
 494 005a 0F91      		pop r16
 495 005c 0C94 0000 		jmp lua_error
 496               		.size	luaB_error, .-luaB_error
 497               		.section	.rodata.str1.1
 498               	.LC1:
 499 0016 746F 6F20 		.string	"too many results to unpack"
 499      6D61 6E79 
 499      2072 6573 
 499      756C 7473 
 499      2074 6F20 
 500               		.section	.text.luaB_unpack,"ax",@progbits
 501               		.type	luaB_unpack, @function
 502               	luaB_unpack:
 503 0000 CF92      		push r12
 504 0002 DF92      		push r13
 505 0004 EF92      		push r14
GAS LISTING /tmp/cchCtIPA.s 			page 10


 506 0006 FF92      		push r15
 507 0008 0F93      		push r16
 508 000a 1F93      		push r17
 509 000c CF93      		push r28
 510 000e DF93      		push r29
 511               	/* prologue: function */
 512               	/* frame size = 0 */
 513               	/* stack size = 8 */
 514               	.L__stack_usage = 8
 515 0010 EC01      		movw r28,r24
 516 0012 47E0      		ldi r20,lo8(7)
 517 0014 50E0      		ldi r21,0
 518 0016 61E0      		ldi r22,lo8(1)
 519 0018 70E0      		ldi r23,0
 520 001a 0E94 0000 		call luaL_checktype
 521 001e 41E0      		ldi r20,lo8(1)
 522 0020 50E0      		ldi r21,0
 523 0022 62E0      		ldi r22,lo8(2)
 524 0024 70E0      		ldi r23,0
 525 0026 CE01      		movw r24,r28
 526 0028 0E94 0000 		call luaL_optinteger
 527 002c 8C01      		movw r16,r24
 528 002e 63E0      		ldi r22,lo8(3)
 529 0030 70E0      		ldi r23,0
 530 0032 CE01      		movw r24,r28
 531 0034 0E94 0000 		call lua_type
 532 0038 1816      		cp __zero_reg__,r24
 533 003a 1906      		cpc __zero_reg__,r25
 534 003c 04F0      		brlt .L41
 535 003e 61E0      		ldi r22,lo8(1)
 536 0040 70E0      		ldi r23,0
 537 0042 CE01      		movw r24,r28
 538 0044 0E94 0000 		call lua_objlen
 539 0048 00C0      		rjmp .L53
 540               	.L41:
 541 004a 63E0      		ldi r22,lo8(3)
 542 004c 70E0      		ldi r23,0
 543 004e CE01      		movw r24,r28
 544 0050 0E94 0000 		call luaL_checkinteger
 545               	.L53:
 546 0054 6C01      		movw r12,r24
 547 0056 8017      		cp r24,r16
 548 0058 9107      		cpc r25,r17
 549 005a 04F4      		brge .L54
 550 005c 80E0      		ldi r24,0
 551 005e 90E0      		ldi r25,0
 552 0060 00C0      		rjmp .L50
 553               	.L54:
 554 0062 7601      		movw r14,r12
 555 0064 E01A      		sub r14,r16
 556 0066 F10A      		sbc r15,r17
 557 0068 8FEF      		ldi r24,-1
 558 006a E81A      		sub r14,r24
 559 006c F80A      		sbc r15,r24
 560 006e B701      		movw r22,r14
 561 0070 CE01      		movw r24,r28
 562 0072 0E94 0000 		call lua_checkstack
GAS LISTING /tmp/cchCtIPA.s 			page 11


 563 0076 892B      		or r24,r25
 564 0078 01F4      		brne .L45
 565 007a 80E0      		ldi r24,lo8(.LC1)
 566 007c 90E0      		ldi r25,hi8(.LC1)
 567 007e 9F93      		push r25
 568 0080 8F93      		push r24
 569 0082 DF93      		push r29
 570 0084 CF93      		push r28
 571 0086 0E94 0000 		call luaL_error
 572 008a 0F90      		pop __tmp_reg__
 573 008c 0F90      		pop __tmp_reg__
 574 008e 0F90      		pop __tmp_reg__
 575 0090 0F90      		pop __tmp_reg__
 576 0092 00C0      		rjmp .L50
 577               	.L45:
 578 0094 A801      		movw r20,r16
 579 0096 61E0      		ldi r22,lo8(1)
 580 0098 70E0      		ldi r23,0
 581 009a CE01      		movw r24,r28
 582 009c 0E94 0000 		call lua_rawgeti
 583 00a0 0F5F      		subi r16,-1
 584 00a2 1F4F      		sbci r17,-1
 585 00a4 C801      		movw r24,r16
 586 00a6 0197      		sbiw r24,1
 587 00a8 8C15      		cp r24,r12
 588 00aa 9D05      		cpc r25,r13
 589 00ac 04F0      		brlt .L45
 590 00ae C701      		movw r24,r14
 591               	.L50:
 592               	/* epilogue start */
 593 00b0 DF91      		pop r29
 594 00b2 CF91      		pop r28
 595 00b4 1F91      		pop r17
 596 00b6 0F91      		pop r16
 597 00b8 FF90      		pop r15
 598 00ba EF90      		pop r14
 599 00bc DF90      		pop r13
 600 00be CF90      		pop r12
 601 00c0 0895      		ret
 602               		.size	luaB_unpack, .-luaB_unpack
 603               		.section	.text.luaB_type,"ax",@progbits
 604               		.type	luaB_type, @function
 605               	luaB_type:
 606 0000 CF93      		push r28
 607 0002 DF93      		push r29
 608               	/* prologue: function */
 609               	/* frame size = 0 */
 610               	/* stack size = 2 */
 611               	.L__stack_usage = 2
 612 0004 EC01      		movw r28,r24
 613 0006 61E0      		ldi r22,lo8(1)
 614 0008 70E0      		ldi r23,0
 615 000a 0E94 0000 		call luaL_checkany
 616 000e 61E0      		ldi r22,lo8(1)
 617 0010 70E0      		ldi r23,0
 618 0012 CE01      		movw r24,r28
 619 0014 0E94 0000 		call lua_type
GAS LISTING /tmp/cchCtIPA.s 			page 12


 620 0018 BC01      		movw r22,r24
 621 001a CE01      		movw r24,r28
 622 001c 0E94 0000 		call lua_typename
 623 0020 BC01      		movw r22,r24
 624 0022 CE01      		movw r24,r28
 625 0024 0E94 0000 		call lua_pushstring
 626 0028 81E0      		ldi r24,lo8(1)
 627 002a 90E0      		ldi r25,0
 628               	/* epilogue start */
 629 002c DF91      		pop r29
 630 002e CF91      		pop r28
 631 0030 0895      		ret
 632               		.size	luaB_type, .-luaB_type
 633               		.section	.rodata.str1.1
 634               	.LC2:
 635 0031 696E 6465 		.string	"index out of range"
 635      7820 6F75 
 635      7420 6F66 
 635      2072 616E 
 635      6765 00
 636               		.section	.text.luaB_select,"ax",@progbits
 637               		.type	luaB_select, @function
 638               	luaB_select:
 639 0000 EF92      		push r14
 640 0002 FF92      		push r15
 641 0004 0F93      		push r16
 642 0006 1F93      		push r17
 643 0008 CF93      		push r28
 644 000a DF93      		push r29
 645               	/* prologue: function */
 646               	/* frame size = 0 */
 647               	/* stack size = 6 */
 648               	.L__stack_usage = 6
 649 000c 8C01      		movw r16,r24
 650 000e 0E94 0000 		call lua_gettop
 651 0012 EC01      		movw r28,r24
 652 0014 61E0      		ldi r22,lo8(1)
 653 0016 70E0      		ldi r23,0
 654 0018 C801      		movw r24,r16
 655 001a 0E94 0000 		call lua_type
 656 001e 0697      		sbiw r24,6
 657 0020 01F4      		brne .L57
 658 0022 40E0      		ldi r20,0
 659 0024 50E0      		ldi r21,0
 660 0026 61E0      		ldi r22,lo8(1)
 661 0028 70E0      		ldi r23,0
 662 002a C801      		movw r24,r16
 663 002c 0E94 0000 		call lua_tolstring
 664 0030 FC01      		movw r30,r24
 665 0032 8081      		ld r24,Z
 666 0034 8332      		cpi r24,lo8(35)
 667 0036 01F4      		brne .L57
 668 0038 BE01      		movw r22,r28
 669 003a 6150      		subi r22,1
 670 003c 7109      		sbc r23,__zero_reg__
 671 003e C801      		movw r24,r16
 672 0040 0E94 0000 		call lua_pushinteger
GAS LISTING /tmp/cchCtIPA.s 			page 13


 673 0044 81E0      		ldi r24,lo8(1)
 674 0046 90E0      		ldi r25,0
 675 0048 00C0      		rjmp .L58
 676               	.L57:
 677 004a 61E0      		ldi r22,lo8(1)
 678 004c 70E0      		ldi r23,0
 679 004e C801      		movw r24,r16
 680 0050 0E94 0000 		call luaL_checkinteger
 681 0054 7E01      		movw r14,r28
 682 0056 97FF      		sbrs r25,7
 683 0058 00C0      		rjmp .L59
 684 005a E80E      		add r14,r24
 685 005c F91E      		adc r15,r25
 686 005e 00C0      		rjmp .L60
 687               	.L59:
 688 0060 8C17      		cp r24,r28
 689 0062 9D07      		cpc r25,r29
 690 0064 04F4      		brge .L60
 691 0066 7C01      		movw r14,r24
 692               	.L60:
 693 0068 1E14      		cp __zero_reg__,r14
 694 006a 1F04      		cpc __zero_reg__,r15
 695 006c 04F0      		brlt .L62
 696 006e 40E0      		ldi r20,lo8(.LC2)
 697 0070 50E0      		ldi r21,hi8(.LC2)
 698 0072 61E0      		ldi r22,lo8(1)
 699 0074 70E0      		ldi r23,0
 700 0076 C801      		movw r24,r16
 701 0078 0E94 0000 		call luaL_argerror
 702               	.L62:
 703 007c CE01      		movw r24,r28
 704 007e 8E19      		sub r24,r14
 705 0080 9F09      		sbc r25,r15
 706               	.L58:
 707               	/* epilogue start */
 708 0082 DF91      		pop r29
 709 0084 CF91      		pop r28
 710 0086 1F91      		pop r17
 711 0088 0F91      		pop r16
 712 008a FF90      		pop r15
 713 008c EF90      		pop r14
 714 008e 0895      		ret
 715               		.size	luaB_select, .-luaB_select
 716               		.section	.rodata.str1.1
 717               	.LC3:
 718 0044 6261 7365 		.string	"base out of range"
 718      206F 7574 
 718      206F 6620 
 718      7261 6E67 
 718      6500 
 719               		.section	.text.luaB_tonumber,"ax",@progbits
 720               		.type	luaB_tonumber, @function
 721               	luaB_tonumber:
 722 0000 CF92      		push r12
 723 0002 DF92      		push r13
 724 0004 EF92      		push r14
 725 0006 FF92      		push r15
GAS LISTING /tmp/cchCtIPA.s 			page 14


 726 0008 0F93      		push r16
 727 000a 1F93      		push r17
 728 000c CF93      		push r28
 729 000e DF93      		push r29
 730 0010 00D0      		rcall .
 731 0012 00D0      		rcall .
 732 0014 CDB7      		in r28,__SP_L__
 733 0016 DEB7      		in r29,__SP_H__
 734               	/* prologue: function */
 735               	/* frame size = 6 */
 736               	/* stack size = 14 */
 737               	.L__stack_usage = 14
 738 0018 8C01      		movw r16,r24
 739 001a 4AE0      		ldi r20,lo8(10)
 740 001c 50E0      		ldi r21,0
 741 001e 62E0      		ldi r22,lo8(2)
 742 0020 70E0      		ldi r23,0
 743 0022 0E94 0000 		call luaL_optinteger
 744 0026 7C01      		movw r14,r24
 745 0028 8AE0      		ldi r24,10
 746 002a E816      		cp r14,r24
 747 002c F104      		cpc r15,__zero_reg__
 748 002e 01F4      		brne .L64
 749 0030 61E0      		ldi r22,lo8(1)
 750 0032 70E0      		ldi r23,0
 751 0034 C801      		movw r24,r16
 752 0036 0E94 0000 		call luaL_checkany
 753 003a 61E0      		ldi r22,lo8(1)
 754 003c 70E0      		ldi r23,0
 755 003e C801      		movw r24,r16
 756 0040 0E94 0000 		call lua_isnumber
 757 0044 892B      		or r24,r25
 758 0046 01F4      		brne .+2
 759 0048 00C0      		rjmp .L65
 760 004a 61E0      		ldi r22,lo8(1)
 761 004c 70E0      		ldi r23,0
 762 004e C801      		movw r24,r16
 763 0050 0E94 0000 		call lua_tonumber
 764 0054 AB01      		movw r20,r22
 765 0056 BC01      		movw r22,r24
 766 0058 00C0      		rjmp .L75
 767               	.L64:
 768 005a 40E0      		ldi r20,0
 769 005c 50E0      		ldi r21,0
 770 005e 61E0      		ldi r22,lo8(1)
 771 0060 70E0      		ldi r23,0
 772 0062 C801      		movw r24,r16
 773 0064 0E94 0000 		call luaL_checklstring
 774 0068 6C01      		movw r12,r24
 775 006a C701      		movw r24,r14
 776 006c 0297      		sbiw r24,2
 777 006e 8397      		sbiw r24,35
 778 0070 00F0      		brlo .L67
 779 0072 40E0      		ldi r20,lo8(.LC3)
 780 0074 50E0      		ldi r21,hi8(.LC3)
 781 0076 62E0      		ldi r22,lo8(2)
 782 0078 70E0      		ldi r23,0
GAS LISTING /tmp/cchCtIPA.s 			page 15


 783 007a C801      		movw r24,r16
 784 007c 0E94 0000 		call luaL_argerror
 785               	.L67:
 786 0080 A701      		movw r20,r14
 787 0082 BE01      		movw r22,r28
 788 0084 6F5F      		subi r22,-1
 789 0086 7F4F      		sbci r23,-1
 790 0088 C601      		movw r24,r12
 791 008a 0E94 0000 		call strtoul
 792 008e AB01      		movw r20,r22
 793 0090 BC01      		movw r22,r24
 794 0092 8981      		ldd r24,Y+1
 795 0094 9A81      		ldd r25,Y+2
 796 0096 C816      		cp r12,r24
 797 0098 D906      		cpc r13,r25
 798 009a 01F0      		breq .L65
 799               	.L73:
 800 009c E980      		ldd r14,Y+1
 801 009e FA80      		ldd r15,Y+2
 802 00a0 F701      		movw r30,r14
 803 00a2 D080      		ld r13,Z
 804 00a4 8D2D      		mov r24,r13
 805 00a6 90E0      		ldi r25,0
 806 00a8 4B83      		std Y+3,r20
 807 00aa 5C83      		std Y+4,r21
 808 00ac 6D83      		std Y+5,r22
 809 00ae 7E83      		std Y+6,r23
 810 00b0 0E94 0000 		call isspace
 811 00b4 4B81      		ldd r20,Y+3
 812 00b6 5C81      		ldd r21,Y+4
 813 00b8 6D81      		ldd r22,Y+5
 814 00ba 7E81      		ldd r23,Y+6
 815 00bc 892B      		or r24,r25
 816 00be 01F0      		breq .L76
 817 00c0 EFEF      		ldi r30,-1
 818 00c2 EE1A      		sub r14,r30
 819 00c4 FE0A      		sbc r15,r30
 820 00c6 FA82      		std Y+2,r15
 821 00c8 E982      		std Y+1,r14
 822 00ca 00C0      		rjmp .L73
 823               	.L76:
 824 00cc D110      		cpse r13,__zero_reg__
 825 00ce 00C0      		rjmp .L65
 826               	.L75:
 827 00d0 C801      		movw r24,r16
 828 00d2 0E94 0000 		call lua_pushnumber
 829 00d6 00C0      		rjmp .L66
 830               	.L65:
 831 00d8 C801      		movw r24,r16
 832 00da 0E94 0000 		call lua_pushnil
 833               	.L66:
 834 00de 81E0      		ldi r24,lo8(1)
 835 00e0 90E0      		ldi r25,0
 836               	/* epilogue start */
 837 00e2 2696      		adiw r28,6
 838 00e4 0FB6      		in __tmp_reg__,__SREG__
 839 00e6 F894      		cli
GAS LISTING /tmp/cchCtIPA.s 			page 16


 840 00e8 DEBF      		out __SP_H__,r29
 841 00ea 0FBE      		out __SREG__,__tmp_reg__
 842 00ec CDBF      		out __SP_L__,r28
 843 00ee DF91      		pop r29
 844 00f0 CF91      		pop r28
 845 00f2 1F91      		pop r17
 846 00f4 0F91      		pop r16
 847 00f6 FF90      		pop r15
 848 00f8 EF90      		pop r14
 849 00fa DF90      		pop r13
 850 00fc CF90      		pop r12
 851 00fe 0895      		ret
 852               		.size	luaB_tonumber, .-luaB_tonumber
 853               		.section	.rodata.str1.1
 854               	.LC4:
 855 0056 6E69 6C20 		.string	"nil or table expected"
 855      6F72 2074 
 855      6162 6C65 
 855      2065 7870 
 855      6563 7465 
 856               	.LC5:
 857 006c 5F5F 6D65 		.string	"__metatable"
 857      7461 7461 
 857      626C 6500 
 858               	.LC6:
 859 0078 6361 6E6E 		.string	"cannot change a protected metatable"
 859      6F74 2063 
 859      6861 6E67 
 859      6520 6120 
 859      7072 6F74 
 860               		.section	.text.luaB_setmetatable,"ax",@progbits
 861               		.type	luaB_setmetatable, @function
 862               	luaB_setmetatable:
 863 0000 0F93      		push r16
 864 0002 1F93      		push r17
 865 0004 CF93      		push r28
 866 0006 DF93      		push r29
 867               	/* prologue: function */
 868               	/* frame size = 0 */
 869               	/* stack size = 4 */
 870               	.L__stack_usage = 4
 871 0008 D82F      		mov r29,r24
 872 000a C92F      		mov r28,r25
 873 000c 62E0      		ldi r22,lo8(2)
 874 000e 70E0      		ldi r23,0
 875 0010 0E94 0000 		call lua_type
 876 0014 8C01      		movw r16,r24
 877 0016 47E0      		ldi r20,lo8(7)
 878 0018 50E0      		ldi r21,0
 879 001a 61E0      		ldi r22,lo8(1)
 880 001c 70E0      		ldi r23,0
 881 001e 8D2F      		mov r24,r29
 882 0020 9C2F      		mov r25,r28
 883 0022 0E94 0000 		call luaL_checktype
 884 0026 0115      		cp r16,__zero_reg__
 885 0028 1105      		cpc r17,__zero_reg__
 886 002a 01F0      		breq .L78
GAS LISTING /tmp/cchCtIPA.s 			page 17


 887 002c 0730      		cpi r16,7
 888 002e 1105      		cpc r17,__zero_reg__
 889 0030 01F0      		breq .L78
 890 0032 40E0      		ldi r20,lo8(.LC4)
 891 0034 50E0      		ldi r21,hi8(.LC4)
 892 0036 62E0      		ldi r22,lo8(2)
 893 0038 70E0      		ldi r23,0
 894 003a 8D2F      		mov r24,r29
 895 003c 9C2F      		mov r25,r28
 896 003e 0E94 0000 		call luaL_argerror
 897               	.L78:
 898 0042 40E0      		ldi r20,lo8(.LC5)
 899 0044 50E0      		ldi r21,hi8(.LC5)
 900 0046 61E0      		ldi r22,lo8(1)
 901 0048 70E0      		ldi r23,0
 902 004a 8D2F      		mov r24,r29
 903 004c 9C2F      		mov r25,r28
 904 004e 0E94 0000 		call luaL_getmetafield
 905 0052 892B      		or r24,r25
 906 0054 01F0      		breq .L79
 907 0056 80E0      		ldi r24,lo8(.LC6)
 908 0058 90E0      		ldi r25,hi8(.LC6)
 909 005a 9F93      		push r25
 910 005c 8F93      		push r24
 911 005e CF93      		push r28
 912 0060 DF93      		push r29
 913 0062 0E94 0000 		call luaL_error
 914 0066 0F90      		pop __tmp_reg__
 915 0068 0F90      		pop __tmp_reg__
 916 006a 0F90      		pop __tmp_reg__
 917 006c 0F90      		pop __tmp_reg__
 918               	.L79:
 919 006e 62E0      		ldi r22,lo8(2)
 920 0070 70E0      		ldi r23,0
 921 0072 8D2F      		mov r24,r29
 922 0074 9C2F      		mov r25,r28
 923 0076 0E94 0000 		call lua_settop
 924 007a 61E0      		ldi r22,lo8(1)
 925 007c 70E0      		ldi r23,0
 926 007e 8D2F      		mov r24,r29
 927 0080 9C2F      		mov r25,r28
 928 0082 0E94 0000 		call lua_setmetatable
 929 0086 81E0      		ldi r24,lo8(1)
 930 0088 90E0      		ldi r25,0
 931               	/* epilogue start */
 932 008a DF91      		pop r29
 933 008c CF91      		pop r28
 934 008e 1F91      		pop r17
 935 0090 0F91      		pop r16
 936 0092 0895      		ret
 937               		.size	luaB_setmetatable, .-luaB_setmetatable
 938               		.section	.rodata.str1.1
 939               	.LC7:
 940 009c 6C65 7665 		.string	"level must be non-negative"
 940      6C20 6D75 
 940      7374 2062 
 940      6520 6E6F 
GAS LISTING /tmp/cchCtIPA.s 			page 18


 940      6E2D 6E65 
 941               	.LC8:
 942 00b7 696E 7661 		.string	"invalid level"
 942      6C69 6420 
 942      6C65 7665 
 942      6C00 
 943               	.LC9:
 944 00c5 6600      		.string	"f"
 945               	.LC10:
 946 00c7 6E6F 2066 		.string	"no function environment for tail call at level %d"
 946      756E 6374 
 946      696F 6E20 
 946      656E 7669 
 946      726F 6E6D 
 947               		.section	.text.getfunc,"ax",@progbits
 948               		.type	getfunc, @function
 949               	getfunc:
 950 0000 EF92      		push r14
 951 0002 FF92      		push r15
 952 0004 0F93      		push r16
 953 0006 1F93      		push r17
 954 0008 CF93      		push r28
 955 000a DF93      		push r29
 956 000c CDB7      		in r28,__SP_L__
 957 000e DEB7      		in r29,__SP_H__
 958 0010 C055      		subi r28,80
 959 0012 D109      		sbc r29,__zero_reg__
 960 0014 0FB6      		in __tmp_reg__,__SREG__
 961 0016 F894      		cli
 962 0018 DEBF      		out __SP_H__,r29
 963 001a 0FBE      		out __SREG__,__tmp_reg__
 964 001c CDBF      		out __SP_L__,r28
 965               	/* prologue: function */
 966               	/* frame size = 80 */
 967               	/* stack size = 86 */
 968               	.L__stack_usage = 86
 969 001e 182F      		mov r17,r24
 970 0020 092F      		mov r16,r25
 971 0022 7B01      		movw r14,r22
 972 0024 61E0      		ldi r22,lo8(1)
 973 0026 70E0      		ldi r23,0
 974 0028 0E94 0000 		call lua_type
 975 002c 0897      		sbiw r24,8
 976 002e 01F4      		brne .L90
 977 0030 61E0      		ldi r22,lo8(1)
 978 0032 70E0      		ldi r23,0
 979 0034 812F      		mov r24,r17
 980 0036 902F      		mov r25,r16
 981 0038 0E94 0000 		call lua_pushvalue
 982 003c 00C0      		rjmp .L89
 983               	.L90:
 984 003e EF28      		or r14,r15
 985 0040 01F0      		breq .L92
 986 0042 41E0      		ldi r20,lo8(1)
 987 0044 50E0      		ldi r21,0
 988 0046 61E0      		ldi r22,lo8(1)
 989 0048 70E0      		ldi r23,0
GAS LISTING /tmp/cchCtIPA.s 			page 19


 990 004a 812F      		mov r24,r17
 991 004c 902F      		mov r25,r16
 992 004e 0E94 0000 		call luaL_optinteger
 993 0052 00C0      		rjmp .L97
 994               	.L92:
 995 0054 61E0      		ldi r22,lo8(1)
 996 0056 70E0      		ldi r23,0
 997 0058 812F      		mov r24,r17
 998 005a 902F      		mov r25,r16
 999 005c 0E94 0000 		call luaL_checkinteger
 1000               	.L97:
 1001 0060 7C01      		movw r14,r24
 1002 0062 97FF      		sbrs r25,7
 1003 0064 00C0      		rjmp .L94
 1004 0066 40E0      		ldi r20,lo8(.LC7)
 1005 0068 50E0      		ldi r21,hi8(.LC7)
 1006 006a 61E0      		ldi r22,lo8(1)
 1007 006c 70E0      		ldi r23,0
 1008 006e 812F      		mov r24,r17
 1009 0070 902F      		mov r25,r16
 1010 0072 0E94 0000 		call luaL_argerror
 1011               	.L94:
 1012 0076 AE01      		movw r20,r28
 1013 0078 4F5F      		subi r20,-1
 1014 007a 5F4F      		sbci r21,-1
 1015 007c B701      		movw r22,r14
 1016 007e 812F      		mov r24,r17
 1017 0080 902F      		mov r25,r16
 1018 0082 0E94 0000 		call lua_getstack
 1019 0086 892B      		or r24,r25
 1020 0088 01F4      		brne .L95
 1021 008a 40E0      		ldi r20,lo8(.LC8)
 1022 008c 50E0      		ldi r21,hi8(.LC8)
 1023 008e 61E0      		ldi r22,lo8(1)
 1024 0090 70E0      		ldi r23,0
 1025 0092 812F      		mov r24,r17
 1026 0094 902F      		mov r25,r16
 1027 0096 0E94 0000 		call luaL_argerror
 1028               	.L95:
 1029 009a AE01      		movw r20,r28
 1030 009c 4F5F      		subi r20,-1
 1031 009e 5F4F      		sbci r21,-1
 1032 00a0 60E0      		ldi r22,lo8(.LC9)
 1033 00a2 70E0      		ldi r23,hi8(.LC9)
 1034 00a4 812F      		mov r24,r17
 1035 00a6 902F      		mov r25,r16
 1036 00a8 0E94 0000 		call lua_getinfo
 1037 00ac 6FEF      		ldi r22,lo8(-1)
 1038 00ae 7FEF      		ldi r23,lo8(-1)
 1039 00b0 812F      		mov r24,r17
 1040 00b2 902F      		mov r25,r16
 1041 00b4 0E94 0000 		call lua_type
 1042 00b8 892B      		or r24,r25
 1043 00ba 01F4      		brne .L89
 1044 00bc FF92      		push r15
 1045 00be EF92      		push r14
 1046 00c0 80E0      		ldi r24,lo8(.LC10)
GAS LISTING /tmp/cchCtIPA.s 			page 20


 1047 00c2 90E0      		ldi r25,hi8(.LC10)
 1048 00c4 9F93      		push r25
 1049 00c6 8F93      		push r24
 1050 00c8 0F93      		push r16
 1051 00ca 1F93      		push r17
 1052 00cc 0E94 0000 		call luaL_error
 1053 00d0 0F90      		pop __tmp_reg__
 1054 00d2 0F90      		pop __tmp_reg__
 1055 00d4 0F90      		pop __tmp_reg__
 1056 00d6 0F90      		pop __tmp_reg__
 1057 00d8 0F90      		pop __tmp_reg__
 1058 00da 0F90      		pop __tmp_reg__
 1059               	.L89:
 1060               	/* epilogue start */
 1061 00dc C05B      		subi r28,-80
 1062 00de DF4F      		sbci r29,-1
 1063 00e0 0FB6      		in __tmp_reg__,__SREG__
 1064 00e2 F894      		cli
 1065 00e4 DEBF      		out __SP_H__,r29
 1066 00e6 0FBE      		out __SREG__,__tmp_reg__
 1067 00e8 CDBF      		out __SP_L__,r28
 1068 00ea DF91      		pop r29
 1069 00ec CF91      		pop r28
 1070 00ee 1F91      		pop r17
 1071 00f0 0F91      		pop r16
 1072 00f2 FF90      		pop r15
 1073 00f4 EF90      		pop r14
 1074 00f6 0895      		ret
 1075               		.size	getfunc, .-getfunc
 1076               		.section	.rodata.str1.1
 1077               	.LC11:
 1078 00f9 2773 6574 		.string	"'setfenv' cannot change environment of given object"
 1078      6665 6E76 
 1078      2720 6361 
 1078      6E6E 6F74 
 1078      2063 6861 
 1079               		.section	.text.luaB_setfenv,"ax",@progbits
 1080               		.type	luaB_setfenv, @function
 1081               	luaB_setfenv:
 1082 0000 CF93      		push r28
 1083 0002 DF93      		push r29
 1084               	/* prologue: function */
 1085               	/* frame size = 0 */
 1086               	/* stack size = 2 */
 1087               	.L__stack_usage = 2
 1088 0004 D82F      		mov r29,r24
 1089 0006 C92F      		mov r28,r25
 1090 0008 47E0      		ldi r20,lo8(7)
 1091 000a 50E0      		ldi r21,0
 1092 000c 62E0      		ldi r22,lo8(2)
 1093 000e 70E0      		ldi r23,0
 1094 0010 0E94 0000 		call luaL_checktype
 1095 0014 60E0      		ldi r22,0
 1096 0016 70E0      		ldi r23,0
 1097 0018 8D2F      		mov r24,r29
 1098 001a 9C2F      		mov r25,r28
 1099 001c 0E94 0000 		call getfunc
GAS LISTING /tmp/cchCtIPA.s 			page 21


 1100 0020 62E0      		ldi r22,lo8(2)
 1101 0022 70E0      		ldi r23,0
 1102 0024 8D2F      		mov r24,r29
 1103 0026 9C2F      		mov r25,r28
 1104 0028 0E94 0000 		call lua_pushvalue
 1105 002c 61E0      		ldi r22,lo8(1)
 1106 002e 70E0      		ldi r23,0
 1107 0030 8D2F      		mov r24,r29
 1108 0032 9C2F      		mov r25,r28
 1109 0034 0E94 0000 		call lua_isnumber
 1110 0038 892B      		or r24,r25
 1111 003a 01F0      		breq .L99
 1112 003c 61E0      		ldi r22,lo8(1)
 1113 003e 70E0      		ldi r23,0
 1114 0040 8D2F      		mov r24,r29
 1115 0042 9C2F      		mov r25,r28
 1116 0044 0E94 0000 		call lua_tonumber
 1117 0048 672B      		or r22,r23
 1118 004a 682B      		or r22,r24
 1119 004c 692B      		or r22,r25
 1120 004e 01F4      		brne .L99
 1121 0050 8D2F      		mov r24,r29
 1122 0052 9C2F      		mov r25,r28
 1123 0054 0E94 0000 		call lua_pushthread
 1124 0058 6EEF      		ldi r22,lo8(-2)
 1125 005a 7FEF      		ldi r23,lo8(-1)
 1126 005c 8D2F      		mov r24,r29
 1127 005e 9C2F      		mov r25,r28
 1128 0060 0E94 0000 		call lua_insert
 1129 0064 6EEF      		ldi r22,lo8(-2)
 1130 0066 7FEF      		ldi r23,lo8(-1)
 1131 0068 8D2F      		mov r24,r29
 1132 006a 9C2F      		mov r25,r28
 1133 006c 0E94 0000 		call lua_setfenv
 1134 0070 80E0      		ldi r24,0
 1135 0072 90E0      		ldi r25,0
 1136 0074 00C0      		rjmp .L100
 1137               	.L99:
 1138 0076 6EEF      		ldi r22,lo8(-2)
 1139 0078 7FEF      		ldi r23,lo8(-1)
 1140 007a 8D2F      		mov r24,r29
 1141 007c 9C2F      		mov r25,r28
 1142 007e 0E94 0000 		call lua_iscfunction
 1143 0082 892B      		or r24,r25
 1144 0084 01F0      		breq .L101
 1145               	.L102:
 1146 0086 80E0      		ldi r24,lo8(.LC11)
 1147 0088 90E0      		ldi r25,hi8(.LC11)
 1148 008a 9F93      		push r25
 1149 008c 8F93      		push r24
 1150 008e CF93      		push r28
 1151 0090 DF93      		push r29
 1152 0092 0E94 0000 		call luaL_error
 1153 0096 0F90      		pop __tmp_reg__
 1154 0098 0F90      		pop __tmp_reg__
 1155 009a 0F90      		pop __tmp_reg__
 1156 009c 0F90      		pop __tmp_reg__
GAS LISTING /tmp/cchCtIPA.s 			page 22


 1157 009e 00C0      		rjmp .L109
 1158               	.L101:
 1159 00a0 6EEF      		ldi r22,lo8(-2)
 1160 00a2 7FEF      		ldi r23,lo8(-1)
 1161 00a4 8D2F      		mov r24,r29
 1162 00a6 9C2F      		mov r25,r28
 1163 00a8 0E94 0000 		call lua_setfenv
 1164 00ac 892B      		or r24,r25
 1165 00ae 01F0      		breq .L102
 1166               	.L109:
 1167 00b0 81E0      		ldi r24,lo8(1)
 1168 00b2 90E0      		ldi r25,0
 1169               	.L100:
 1170               	/* epilogue start */
 1171 00b4 DF91      		pop r29
 1172 00b6 CF91      		pop r28
 1173 00b8 0895      		ret
 1174               		.size	luaB_setfenv, .-luaB_setfenv
 1175               		.section	.text.luaB_rawequal,"ax",@progbits
 1176               		.type	luaB_rawequal, @function
 1177               	luaB_rawequal:
 1178 0000 CF93      		push r28
 1179 0002 DF93      		push r29
 1180               	/* prologue: function */
 1181               	/* frame size = 0 */
 1182               	/* stack size = 2 */
 1183               	.L__stack_usage = 2
 1184 0004 EC01      		movw r28,r24
 1185 0006 61E0      		ldi r22,lo8(1)
 1186 0008 70E0      		ldi r23,0
 1187 000a 0E94 0000 		call luaL_checkany
 1188 000e 62E0      		ldi r22,lo8(2)
 1189 0010 70E0      		ldi r23,0
 1190 0012 CE01      		movw r24,r28
 1191 0014 0E94 0000 		call luaL_checkany
 1192 0018 42E0      		ldi r20,lo8(2)
 1193 001a 50E0      		ldi r21,0
 1194 001c 61E0      		ldi r22,lo8(1)
 1195 001e 70E0      		ldi r23,0
 1196 0020 CE01      		movw r24,r28
 1197 0022 0E94 0000 		call lua_rawequal
 1198 0026 BC01      		movw r22,r24
 1199 0028 CE01      		movw r24,r28
 1200 002a 0E94 0000 		call lua_pushboolean
 1201 002e 81E0      		ldi r24,lo8(1)
 1202 0030 90E0      		ldi r25,0
 1203               	/* epilogue start */
 1204 0032 DF91      		pop r29
 1205 0034 CF91      		pop r28
 1206 0036 0895      		ret
 1207               		.size	luaB_rawequal, .-luaB_rawequal
 1208               		.section	.rodata.str1.1
 1209               	.LC12:
 1210 012d 746F 7374 		.string	"tostring"
 1210      7269 6E67 
 1210      00
 1211               	.LC13:
GAS LISTING /tmp/cchCtIPA.s 			page 23


 1212 0136 2774 6F73 		.string	"'tostring' must return a string to 'print'"
 1212      7472 696E 
 1212      6727 206D 
 1212      7573 7420 
 1212      7265 7475 
 1213               	.LC14:
 1214 0161 0D0A 00   		.string	"\r\n"
 1215               		.section	.text.luaB_print,"ax",@progbits
 1216               		.type	luaB_print, @function
 1217               	luaB_print:
 1218 0000 CF92      		push r12
 1219 0002 DF92      		push r13
 1220 0004 EF92      		push r14
 1221 0006 FF92      		push r15
 1222 0008 0F93      		push r16
 1223 000a 1F93      		push r17
 1224 000c CF93      		push r28
 1225 000e DF93      		push r29
 1226               	/* prologue: function */
 1227               	/* frame size = 0 */
 1228               	/* stack size = 8 */
 1229               	.L__stack_usage = 8
 1230 0010 EC01      		movw r28,r24
 1231 0012 0E94 0000 		call lua_gettop
 1232 0016 6C01      		movw r12,r24
 1233 0018 40E0      		ldi r20,lo8(.LC12)
 1234 001a 50E0      		ldi r21,hi8(.LC12)
 1235 001c 6EEE      		ldi r22,lo8(-18)
 1236 001e 78ED      		ldi r23,lo8(-40)
 1237 0020 CE01      		movw r24,r28
 1238 0022 0E94 0000 		call lua_getfield
 1239 0026 01E0      		ldi r16,lo8(1)
 1240 0028 10E0      		ldi r17,0
 1241               	.L112:
 1242 002a C016      		cp r12,r16
 1243 002c D106      		cpc r13,r17
 1244 002e 04F4      		brge .+2
 1245 0030 00C0      		rjmp .L117
 1246 0032 6FEF      		ldi r22,lo8(-1)
 1247 0034 7FEF      		ldi r23,lo8(-1)
 1248 0036 CE01      		movw r24,r28
 1249 0038 0E94 0000 		call lua_pushvalue
 1250 003c B801      		movw r22,r16
 1251 003e CE01      		movw r24,r28
 1252 0040 0E94 0000 		call lua_pushvalue
 1253 0044 41E0      		ldi r20,lo8(1)
 1254 0046 50E0      		ldi r21,0
 1255 0048 61E0      		ldi r22,lo8(1)
 1256 004a 70E0      		ldi r23,0
 1257 004c CE01      		movw r24,r28
 1258 004e 0E94 0000 		call lua_call
 1259 0052 40E0      		ldi r20,0
 1260 0054 50E0      		ldi r21,0
 1261 0056 6FEF      		ldi r22,lo8(-1)
 1262 0058 7FEF      		ldi r23,lo8(-1)
 1263 005a CE01      		movw r24,r28
 1264 005c 0E94 0000 		call lua_tolstring
GAS LISTING /tmp/cchCtIPA.s 			page 24


 1265 0060 7C01      		movw r14,r24
 1266 0062 892B      		or r24,r25
 1267 0064 01F4      		brne .L113
 1268 0066 80E0      		ldi r24,lo8(.LC13)
 1269 0068 90E0      		ldi r25,hi8(.LC13)
 1270 006a 9F93      		push r25
 1271 006c 8F93      		push r24
 1272 006e DF93      		push r29
 1273 0070 CF93      		push r28
 1274 0072 0E94 0000 		call luaL_error
 1275 0076 0F90      		pop __tmp_reg__
 1276 0078 0F90      		pop __tmp_reg__
 1277 007a 0F90      		pop __tmp_reg__
 1278 007c 0F90      		pop __tmp_reg__
 1279 007e 00C0      		rjmp .L114
 1280               	.L113:
 1281 0080 0230      		cpi r16,2
 1282 0082 1105      		cpc r17,__zero_reg__
 1283 0084 04F0      		brlt .L115
 1284 0086 6091 0000 		lds r22,__iob+2
 1285 008a 7091 0000 		lds r23,__iob+2+1
 1286 008e 89E0      		ldi r24,lo8(9)
 1287 0090 90E0      		ldi r25,0
 1288 0092 0E94 0000 		call fputc
 1289               	.L115:
 1290 0096 6091 0000 		lds r22,__iob+2
 1291 009a 7091 0000 		lds r23,__iob+2+1
 1292 009e C701      		movw r24,r14
 1293 00a0 0E94 0000 		call fputs
 1294 00a4 6EEF      		ldi r22,lo8(-2)
 1295 00a6 7FEF      		ldi r23,lo8(-1)
 1296 00a8 CE01      		movw r24,r28
 1297 00aa 0E94 0000 		call lua_settop
 1298 00ae 0F5F      		subi r16,-1
 1299 00b0 1F4F      		sbci r17,-1
 1300 00b2 00C0      		rjmp .L112
 1301               	.L117:
 1302 00b4 6091 0000 		lds r22,__iob+2
 1303 00b8 7091 0000 		lds r23,__iob+2+1
 1304 00bc 80E0      		ldi r24,lo8(.LC14)
 1305 00be 90E0      		ldi r25,hi8(.LC14)
 1306 00c0 0E94 0000 		call fputs
 1307 00c4 80E0      		ldi r24,0
 1308 00c6 90E0      		ldi r25,0
 1309               	.L114:
 1310               	/* epilogue start */
 1311 00c8 DF91      		pop r29
 1312 00ca CF91      		pop r28
 1313 00cc 1F91      		pop r17
 1314 00ce 0F91      		pop r16
 1315 00d0 FF90      		pop r15
 1316 00d2 EF90      		pop r14
 1317 00d4 DF90      		pop r13
 1318 00d6 CF90      		pop r12
 1319 00d8 0895      		ret
 1320               		.size	luaB_print, .-luaB_print
 1321               		.section	.rodata.str1.1
GAS LISTING /tmp/cchCtIPA.s 			page 25


 1322               	.LC15:
 1323 0164 746F 6F20 		.string	"too many nested functions"
 1323      6D61 6E79 
 1323      206E 6573 
 1323      7465 6420 
 1323      6675 6E63 
 1324               	.LC16:
 1325 017e 7265 6164 		.string	"reader function must return a string"
 1325      6572 2066 
 1325      756E 6374 
 1325      696F 6E20 
 1325      6D75 7374 
 1326               		.section	.text.generic_reader,"ax",@progbits
 1327               		.type	generic_reader, @function
 1328               	generic_reader:
 1329 0000 0F93      		push r16
 1330 0002 1F93      		push r17
 1331 0004 CF93      		push r28
 1332 0006 DF93      		push r29
 1333               	/* prologue: function */
 1334               	/* frame size = 0 */
 1335               	/* stack size = 4 */
 1336               	.L__stack_usage = 4
 1337 0008 EC01      		movw r28,r24
 1338 000a 8A01      		movw r16,r20
 1339 000c 40E0      		ldi r20,lo8(.LC15)
 1340 000e 50E0      		ldi r21,hi8(.LC15)
 1341 0010 62E0      		ldi r22,lo8(2)
 1342 0012 70E0      		ldi r23,0
 1343 0014 0E94 0000 		call luaL_checkstack
 1344 0018 61E0      		ldi r22,lo8(1)
 1345 001a 70E0      		ldi r23,0
 1346 001c CE01      		movw r24,r28
 1347 001e 0E94 0000 		call lua_pushvalue
 1348 0022 41E0      		ldi r20,lo8(1)
 1349 0024 50E0      		ldi r21,0
 1350 0026 60E0      		ldi r22,0
 1351 0028 70E0      		ldi r23,0
 1352 002a CE01      		movw r24,r28
 1353 002c 0E94 0000 		call lua_call
 1354 0030 6FEF      		ldi r22,lo8(-1)
 1355 0032 7FEF      		ldi r23,lo8(-1)
 1356 0034 CE01      		movw r24,r28
 1357 0036 0E94 0000 		call lua_type
 1358 003a 892B      		or r24,r25
 1359 003c 01F4      		brne .L119
 1360 003e F801      		movw r30,r16
 1361 0040 1182      		std Z+1,__zero_reg__
 1362 0042 1082      		st Z,__zero_reg__
 1363 0044 00C0      		rjmp .L120
 1364               	.L119:
 1365 0046 6FEF      		ldi r22,lo8(-1)
 1366 0048 7FEF      		ldi r23,lo8(-1)
 1367 004a CE01      		movw r24,r28
 1368 004c 0E94 0000 		call lua_isstring
 1369 0050 892B      		or r24,r25
 1370 0052 01F0      		breq .L121
GAS LISTING /tmp/cchCtIPA.s 			page 26


 1371 0054 63E0      		ldi r22,lo8(3)
 1372 0056 70E0      		ldi r23,0
 1373 0058 CE01      		movw r24,r28
 1374 005a 0E94 0000 		call lua_replace
 1375 005e A801      		movw r20,r16
 1376 0060 63E0      		ldi r22,lo8(3)
 1377 0062 70E0      		ldi r23,0
 1378 0064 CE01      		movw r24,r28
 1379               	/* epilogue start */
 1380 0066 DF91      		pop r29
 1381 0068 CF91      		pop r28
 1382 006a 1F91      		pop r17
 1383 006c 0F91      		pop r16
 1384 006e 0C94 0000 		jmp lua_tolstring
 1385               	.L121:
 1386 0072 80E0      		ldi r24,lo8(.LC16)
 1387 0074 90E0      		ldi r25,hi8(.LC16)
 1388 0076 9F93      		push r25
 1389 0078 8F93      		push r24
 1390 007a DF93      		push r29
 1391 007c CF93      		push r28
 1392 007e 0E94 0000 		call luaL_error
 1393 0082 0F90      		pop __tmp_reg__
 1394 0084 0F90      		pop __tmp_reg__
 1395 0086 0F90      		pop __tmp_reg__
 1396 0088 0F90      		pop __tmp_reg__
 1397               	.L120:
 1398 008a 80E0      		ldi r24,0
 1399 008c 90E0      		ldi r25,0
 1400               	/* epilogue start */
 1401 008e DF91      		pop r29
 1402 0090 CF91      		pop r28
 1403 0092 1F91      		pop r17
 1404 0094 0F91      		pop r16
 1405 0096 0895      		ret
 1406               		.size	generic_reader, .-generic_reader
 1407               		.section	.text.luaB_dofile,"ax",@progbits
 1408               		.type	luaB_dofile, @function
 1409               	luaB_dofile:
 1410 0000 EF92      		push r14
 1411 0002 FF92      		push r15
 1412 0004 0F93      		push r16
 1413 0006 1F93      		push r17
 1414 0008 CF93      		push r28
 1415 000a DF93      		push r29
 1416               	/* prologue: function */
 1417               	/* frame size = 0 */
 1418               	/* stack size = 6 */
 1419               	.L__stack_usage = 6
 1420 000c EC01      		movw r28,r24
 1421 000e 20E0      		ldi r18,0
 1422 0010 30E0      		ldi r19,0
 1423 0012 40E0      		ldi r20,0
 1424 0014 50E0      		ldi r21,0
 1425 0016 61E0      		ldi r22,lo8(1)
 1426 0018 70E0      		ldi r23,0
 1427 001a 0E94 0000 		call luaL_optlstring
GAS LISTING /tmp/cchCtIPA.s 			page 27


 1428 001e 7C01      		movw r14,r24
 1429 0020 CE01      		movw r24,r28
 1430 0022 0E94 0000 		call lua_gettop
 1431 0026 8C01      		movw r16,r24
 1432 0028 B701      		movw r22,r14
 1433 002a CE01      		movw r24,r28
 1434 002c 0E94 0000 		call luaL_loadfile
 1435 0030 892B      		or r24,r25
 1436 0032 01F0      		breq .L123
 1437 0034 CE01      		movw r24,r28
 1438 0036 0E94 0000 		call lua_error
 1439               	.L123:
 1440 003a 4FEF      		ldi r20,lo8(-1)
 1441 003c 5FEF      		ldi r21,lo8(-1)
 1442 003e 60E0      		ldi r22,0
 1443 0040 70E0      		ldi r23,0
 1444 0042 CE01      		movw r24,r28
 1445 0044 0E94 0000 		call lua_call
 1446 0048 CE01      		movw r24,r28
 1447 004a 0E94 0000 		call lua_gettop
 1448 004e 801B      		sub r24,r16
 1449 0050 910B      		sbc r25,r17
 1450               	/* epilogue start */
 1451 0052 DF91      		pop r29
 1452 0054 CF91      		pop r28
 1453 0056 1F91      		pop r17
 1454 0058 0F91      		pop r16
 1455 005a FF90      		pop r15
 1456 005c EF90      		pop r14
 1457 005e 0895      		ret
 1458               		.size	luaB_dofile, .-luaB_dofile
 1459               		.section	.text.luaB_getfenv,"ax",@progbits
 1460               		.type	luaB_getfenv, @function
 1461               	luaB_getfenv:
 1462 0000 CF93      		push r28
 1463 0002 DF93      		push r29
 1464               	/* prologue: function */
 1465               	/* frame size = 0 */
 1466               	/* stack size = 2 */
 1467               	.L__stack_usage = 2
 1468 0004 EC01      		movw r28,r24
 1469 0006 61E0      		ldi r22,lo8(1)
 1470 0008 70E0      		ldi r23,0
 1471 000a 0E94 0000 		call getfunc
 1472 000e 6FEF      		ldi r22,lo8(-1)
 1473 0010 7FEF      		ldi r23,lo8(-1)
 1474 0012 CE01      		movw r24,r28
 1475 0014 0E94 0000 		call lua_iscfunction
 1476 0018 892B      		or r24,r25
 1477 001a 01F0      		breq .L128
 1478 001c 6EEE      		ldi r22,lo8(-18)
 1479 001e 78ED      		ldi r23,lo8(-40)
 1480 0020 CE01      		movw r24,r28
 1481 0022 0E94 0000 		call lua_pushvalue
 1482 0026 00C0      		rjmp .L129
 1483               	.L128:
 1484 0028 6FEF      		ldi r22,lo8(-1)
GAS LISTING /tmp/cchCtIPA.s 			page 28


 1485 002a 7FEF      		ldi r23,lo8(-1)
 1486 002c CE01      		movw r24,r28
 1487 002e 0E94 0000 		call lua_getfenv
 1488               	.L129:
 1489 0032 81E0      		ldi r24,lo8(1)
 1490 0034 90E0      		ldi r25,0
 1491               	/* epilogue start */
 1492 0036 DF91      		pop r29
 1493 0038 CF91      		pop r28
 1494 003a 0895      		ret
 1495               		.size	luaB_getfenv, .-luaB_getfenv
 1496               		.section	.text.luaB_gcinfo,"ax",@progbits
 1497               		.type	luaB_gcinfo, @function
 1498               	luaB_gcinfo:
 1499 0000 CF93      		push r28
 1500 0002 DF93      		push r29
 1501               	/* prologue: function */
 1502               	/* frame size = 0 */
 1503               	/* stack size = 2 */
 1504               	.L__stack_usage = 2
 1505 0004 EC01      		movw r28,r24
 1506 0006 40E0      		ldi r20,0
 1507 0008 50E0      		ldi r21,0
 1508 000a 63E0      		ldi r22,lo8(3)
 1509 000c 70E0      		ldi r23,0
 1510 000e 0E94 0000 		call lua_gc
 1511 0012 BC01      		movw r22,r24
 1512 0014 CE01      		movw r24,r28
 1513 0016 0E94 0000 		call lua_pushinteger
 1514 001a 81E0      		ldi r24,lo8(1)
 1515 001c 90E0      		ldi r25,0
 1516               	/* epilogue start */
 1517 001e DF91      		pop r29
 1518 0020 CF91      		pop r28
 1519 0022 0895      		ret
 1520               		.size	luaB_gcinfo, .-luaB_gcinfo
 1521               		.section	.rodata.str1.1
 1522               	.LC17:
 1523 01a3 636F 6C6C 		.string	"collect"
 1523      6563 7400 
 1524               		.section	.text.luaB_collectgarbage,"ax",@progbits
 1525               		.type	luaB_collectgarbage, @function
 1526               	luaB_collectgarbage:
 1527 0000 EF92      		push r14
 1528 0002 FF92      		push r15
 1529 0004 0F93      		push r16
 1530 0006 1F93      		push r17
 1531 0008 CF93      		push r28
 1532 000a DF93      		push r29
 1533               	/* prologue: function */
 1534               	/* frame size = 0 */
 1535               	/* stack size = 6 */
 1536               	.L__stack_usage = 6
 1537 000c EC01      		movw r28,r24
 1538 000e 20E0      		ldi r18,lo8(opts.2975)
 1539 0010 30E0      		ldi r19,hi8(opts.2975)
 1540 0012 40E0      		ldi r20,lo8(.LC17)
GAS LISTING /tmp/cchCtIPA.s 			page 29


 1541 0014 50E0      		ldi r21,hi8(.LC17)
 1542 0016 61E0      		ldi r22,lo8(1)
 1543 0018 70E0      		ldi r23,0
 1544 001a 0E94 0000 		call luaL_checkoption
 1545 001e 8C01      		movw r16,r24
 1546 0020 40E0      		ldi r20,0
 1547 0022 50E0      		ldi r21,0
 1548 0024 62E0      		ldi r22,lo8(2)
 1549 0026 70E0      		ldi r23,0
 1550 0028 CE01      		movw r24,r28
 1551 002a 0E94 0000 		call luaL_optinteger
 1552 002e 000F      		lsl r16
 1553 0030 111F      		rol r17
 1554 0032 F801      		movw r30,r16
 1555 0034 E050      		subi r30,lo8(-(optsnum.2976))
 1556 0036 F040      		sbci r31,hi8(-(optsnum.2976))
 1557 0038 0081      		ld r16,Z
 1558 003a 1181      		ldd r17,Z+1
 1559 003c AC01      		movw r20,r24
 1560 003e B801      		movw r22,r16
 1561 0040 CE01      		movw r24,r28
 1562 0042 0E94 0000 		call lua_gc
 1563 0046 7C01      		movw r14,r24
 1564 0048 0330      		cpi r16,3
 1565 004a 1105      		cpc r17,__zero_reg__
 1566 004c 01F0      		breq .L133
 1567 004e 0530      		cpi r16,5
 1568 0050 1105      		cpc r17,__zero_reg__
 1569 0052 01F4      		brne .L139
 1570 0054 BC01      		movw r22,r24
 1571 0056 CE01      		movw r24,r28
 1572 0058 0E94 0000 		call lua_pushboolean
 1573 005c 00C0      		rjmp .L136
 1574               	.L133:
 1575 005e 40E0      		ldi r20,0
 1576 0060 50E0      		ldi r21,0
 1577 0062 64E0      		ldi r22,lo8(4)
 1578 0064 70E0      		ldi r23,0
 1579 0066 CE01      		movw r24,r28
 1580 0068 0E94 0000 		call lua_gc
 1581 006c 97FF      		sbrs r25,7
 1582 006e 00C0      		rjmp .L135
 1583 0070 8150      		subi r24,1
 1584 0072 9C4F      		sbci r25,-4
 1585               	.L135:
 1586 0074 8C01      		movw r16,r24
 1587 0076 012F      		mov r16,r17
 1588 0078 110F      		lsl r17
 1589 007a 110B      		sbc r17,r17
 1590 007c 0595      		asr r16
 1591 007e 0595      		asr r16
 1592 0080 012E      		mov __tmp_reg__,r17
 1593 0082 000C      		lsl r0
 1594 0084 220B      		sbc r18,r18
 1595 0086 330B      		sbc r19,r19
 1596 0088 A701      		movw r20,r14
 1597 008a FF0C      		lsl r15
GAS LISTING /tmp/cchCtIPA.s 			page 30


 1598 008c 660B      		sbc r22,r22
 1599 008e 770B      		sbc r23,r23
 1600 0090 400F      		add r20,r16
 1601 0092 511F      		adc r21,r17
 1602 0094 621F      		adc r22,r18
 1603 0096 731F      		adc r23,r19
 1604 0098 00C0      		rjmp .L138
 1605               	.L139:
 1606 009a AC01      		movw r20,r24
 1607 009c 990F      		lsl r25
 1608 009e 660B      		sbc r22,r22
 1609 00a0 770B      		sbc r23,r23
 1610               	.L138:
 1611 00a2 CE01      		movw r24,r28
 1612 00a4 0E94 0000 		call lua_pushnumber
 1613               	.L136:
 1614 00a8 81E0      		ldi r24,lo8(1)
 1615 00aa 90E0      		ldi r25,0
 1616               	/* epilogue start */
 1617 00ac DF91      		pop r29
 1618 00ae CF91      		pop r28
 1619 00b0 1F91      		pop r17
 1620 00b2 0F91      		pop r16
 1621 00b4 FF90      		pop r15
 1622 00b6 EF90      		pop r14
 1623 00b8 0895      		ret
 1624               		.size	luaB_collectgarbage, .-luaB_collectgarbage
 1625               		.section	.text.costatus,"ax",@progbits
 1626               		.type	costatus, @function
 1627               	costatus:
 1628 0000 0F93      		push r16
 1629 0002 1F93      		push r17
 1630 0004 CF93      		push r28
 1631 0006 DF93      		push r29
 1632 0008 CDB7      		in r28,__SP_L__
 1633 000a DEB7      		in r29,__SP_H__
 1634 000c C055      		subi r28,80
 1635 000e D109      		sbc r29,__zero_reg__
 1636 0010 0FB6      		in __tmp_reg__,__SREG__
 1637 0012 F894      		cli
 1638 0014 DEBF      		out __SP_H__,r29
 1639 0016 0FBE      		out __SREG__,__tmp_reg__
 1640 0018 CDBF      		out __SP_L__,r28
 1641               	/* prologue: function */
 1642               	/* frame size = 80 */
 1643               	/* stack size = 84 */
 1644               	.L__stack_usage = 84
 1645 001a 8B01      		movw r16,r22
 1646 001c 6817      		cp r22,r24
 1647 001e 7907      		cpc r23,r25
 1648 0020 01F0      		breq .L145
 1649 0022 CB01      		movw r24,r22
 1650 0024 0E94 0000 		call lua_status
 1651 0028 0097      		sbiw r24,0
 1652 002a 01F0      		breq .L143
 1653 002c 8130      		cpi r24,1
 1654 002e 9105      		cpc r25,__zero_reg__
GAS LISTING /tmp/cchCtIPA.s 			page 31


 1655 0030 01F0      		breq .L141
 1656 0032 00C0      		rjmp .L147
 1657               	.L143:
 1658 0034 AE01      		movw r20,r28
 1659 0036 4F5F      		subi r20,-1
 1660 0038 5F4F      		sbci r21,-1
 1661 003a 60E0      		ldi r22,0
 1662 003c 70E0      		ldi r23,0
 1663 003e C801      		movw r24,r16
 1664 0040 0E94 0000 		call lua_getstack
 1665 0044 1816      		cp __zero_reg__,r24
 1666 0046 1906      		cpc __zero_reg__,r25
 1667 0048 04F0      		brlt .L146
 1668 004a C801      		movw r24,r16
 1669 004c 0E94 0000 		call lua_gettop
 1670 0050 892B      		or r24,r25
 1671 0052 01F0      		breq .L147
 1672 0054 81E0      		ldi r24,lo8(1)
 1673 0056 90E0      		ldi r25,0
 1674 0058 00C0      		rjmp .L141
 1675               	.L146:
 1676 005a 82E0      		ldi r24,lo8(2)
 1677 005c 90E0      		ldi r25,0
 1678 005e 00C0      		rjmp .L141
 1679               	.L147:
 1680 0060 83E0      		ldi r24,lo8(3)
 1681 0062 90E0      		ldi r25,0
 1682 0064 00C0      		rjmp .L141
 1683               	.L145:
 1684 0066 80E0      		ldi r24,0
 1685 0068 90E0      		ldi r25,0
 1686               	.L141:
 1687               	/* epilogue start */
 1688 006a C05B      		subi r28,-80
 1689 006c DF4F      		sbci r29,-1
 1690 006e 0FB6      		in __tmp_reg__,__SREG__
 1691 0070 F894      		cli
 1692 0072 DEBF      		out __SP_H__,r29
 1693 0074 0FBE      		out __SREG__,__tmp_reg__
 1694 0076 CDBF      		out __SP_L__,r28
 1695 0078 DF91      		pop r29
 1696 007a CF91      		pop r28
 1697 007c 1F91      		pop r17
 1698 007e 0F91      		pop r16
 1699 0080 0895      		ret
 1700               		.size	costatus, .-costatus
 1701               		.section	.rodata.str1.1
 1702               	.LC18:
 1703 01ab 746F 6F20 		.string	"too many arguments to resume"
 1703      6D61 6E79 
 1703      2061 7267 
 1703      756D 656E 
 1703      7473 2074 
 1704               	.LC19:
 1705 01c8 6361 6E6E 		.string	"cannot resume %s coroutine"
 1705      6F74 2072 
 1705      6573 756D 
GAS LISTING /tmp/cchCtIPA.s 			page 32


 1705      6520 2573 
 1705      2063 6F72 
 1706               	.LC20:
 1707 01e3 746F 6F20 		.string	"too many results to resume"
 1707      6D61 6E79 
 1707      2072 6573 
 1707      756C 7473 
 1707      2074 6F20 
 1708               		.section	.text.auxresume,"ax",@progbits
 1709               		.type	auxresume, @function
 1710               	auxresume:
 1711 0000 CF92      		push r12
 1712 0002 DF92      		push r13
 1713 0004 EF92      		push r14
 1714 0006 FF92      		push r15
 1715 0008 0F93      		push r16
 1716 000a 1F93      		push r17
 1717 000c CF93      		push r28
 1718 000e DF93      		push r29
 1719               	/* prologue: function */
 1720               	/* frame size = 0 */
 1721               	/* stack size = 8 */
 1722               	.L__stack_usage = 8
 1723 0010 D82F      		mov r29,r24
 1724 0012 C92F      		mov r28,r25
 1725 0014 8B01      		movw r16,r22
 1726 0016 6A01      		movw r12,r20
 1727 0018 0E94 0000 		call costatus
 1728 001c 7C01      		movw r14,r24
 1729 001e B601      		movw r22,r12
 1730 0020 C801      		movw r24,r16
 1731 0022 0E94 0000 		call lua_checkstack
 1732 0026 892B      		or r24,r25
 1733 0028 01F4      		brne .L152
 1734 002a 80E0      		ldi r24,lo8(.LC18)
 1735 002c 90E0      		ldi r25,hi8(.LC18)
 1736 002e 9F93      		push r25
 1737 0030 8F93      		push r24
 1738 0032 CF93      		push r28
 1739 0034 DF93      		push r29
 1740 0036 0E94 0000 		call luaL_error
 1741 003a 0F90      		pop __tmp_reg__
 1742 003c 0F90      		pop __tmp_reg__
 1743 003e 0F90      		pop __tmp_reg__
 1744 0040 0F90      		pop __tmp_reg__
 1745               	.L152:
 1746 0042 81E0      		ldi r24,1
 1747 0044 E816      		cp r14,r24
 1748 0046 F104      		cpc r15,__zero_reg__
 1749 0048 01F0      		breq .L153
 1750 004a F701      		movw r30,r14
 1751 004c EE0F      		lsl r30
 1752 004e FF1F      		rol r31
 1753 0050 E050      		subi r30,lo8(-(statnames))
 1754 0052 F040      		sbci r31,hi8(-(statnames))
 1755 0054 8181      		ldd r24,Z+1
 1756 0056 8F93      		push r24
GAS LISTING /tmp/cchCtIPA.s 			page 33


 1757 0058 8081      		ld r24,Z
 1758 005a 8F93      		push r24
 1759 005c 80E0      		ldi r24,lo8(.LC19)
 1760 005e 90E0      		ldi r25,hi8(.LC19)
 1761 0060 9F93      		push r25
 1762 0062 8F93      		push r24
 1763 0064 CF93      		push r28
 1764 0066 DF93      		push r29
 1765 0068 0E94 0000 		call lua_pushfstring
 1766 006c 0F90      		pop __tmp_reg__
 1767 006e 0F90      		pop __tmp_reg__
 1768 0070 0F90      		pop __tmp_reg__
 1769 0072 0F90      		pop __tmp_reg__
 1770 0074 0F90      		pop __tmp_reg__
 1771 0076 0F90      		pop __tmp_reg__
 1772 0078 00C0      		rjmp .L157
 1773               	.L153:
 1774 007a A601      		movw r20,r12
 1775 007c B801      		movw r22,r16
 1776 007e 8D2F      		mov r24,r29
 1777 0080 9C2F      		mov r25,r28
 1778 0082 0E94 0000 		call lua_xmove
 1779 0086 B801      		movw r22,r16
 1780 0088 8D2F      		mov r24,r29
 1781 008a 9C2F      		mov r25,r28
 1782 008c 0E94 0000 		call lua_setlevel
 1783 0090 B601      		movw r22,r12
 1784 0092 C801      		movw r24,r16
 1785 0094 0E94 0000 		call lua_resume
 1786 0098 0297      		sbiw r24,2
 1787 009a 00F4      		brsh .L155
 1788 009c C801      		movw r24,r16
 1789 009e 0E94 0000 		call lua_gettop
 1790 00a2 7C01      		movw r14,r24
 1791 00a4 BC01      		movw r22,r24
 1792 00a6 6F5F      		subi r22,-1
 1793 00a8 7F4F      		sbci r23,-1
 1794 00aa 8D2F      		mov r24,r29
 1795 00ac 9C2F      		mov r25,r28
 1796 00ae 0E94 0000 		call lua_checkstack
 1797 00b2 892B      		or r24,r25
 1798 00b4 01F4      		brne .L156
 1799 00b6 80E0      		ldi r24,lo8(.LC20)
 1800 00b8 90E0      		ldi r25,hi8(.LC20)
 1801 00ba 9F93      		push r25
 1802 00bc 8F93      		push r24
 1803 00be CF93      		push r28
 1804 00c0 DF93      		push r29
 1805 00c2 0E94 0000 		call luaL_error
 1806 00c6 0F90      		pop __tmp_reg__
 1807 00c8 0F90      		pop __tmp_reg__
 1808 00ca 0F90      		pop __tmp_reg__
 1809 00cc 0F90      		pop __tmp_reg__
 1810               	.L156:
 1811 00ce A701      		movw r20,r14
 1812 00d0 6D2F      		mov r22,r29
 1813 00d2 7C2F      		mov r23,r28
GAS LISTING /tmp/cchCtIPA.s 			page 34


 1814 00d4 C801      		movw r24,r16
 1815 00d6 0E94 0000 		call lua_xmove
 1816 00da C701      		movw r24,r14
 1817 00dc 00C0      		rjmp .L154
 1818               	.L155:
 1819 00de 41E0      		ldi r20,lo8(1)
 1820 00e0 50E0      		ldi r21,0
 1821 00e2 6D2F      		mov r22,r29
 1822 00e4 7C2F      		mov r23,r28
 1823 00e6 C801      		movw r24,r16
 1824 00e8 0E94 0000 		call lua_xmove
 1825               	.L157:
 1826 00ec 8FEF      		ldi r24,lo8(-1)
 1827 00ee 9FEF      		ldi r25,lo8(-1)
 1828               	.L154:
 1829               	/* epilogue start */
 1830 00f0 DF91      		pop r29
 1831 00f2 CF91      		pop r28
 1832 00f4 1F91      		pop r17
 1833 00f6 0F91      		pop r16
 1834 00f8 FF90      		pop r15
 1835 00fa EF90      		pop r14
 1836 00fc DF90      		pop r13
 1837 00fe CF90      		pop r12
 1838 0100 0895      		ret
 1839               		.size	auxresume, .-auxresume
 1840               		.section	.rodata.str1.1
 1841               	.LC21:
 1842 01fe 636F 726F 		.string	"coroutine expected"
 1842      7574 696E 
 1842      6520 6578 
 1842      7065 6374 
 1842      6564 00
 1843               		.section	.text.luaB_costatus,"ax",@progbits
 1844               		.type	luaB_costatus, @function
 1845               	luaB_costatus:
 1846 0000 0F93      		push r16
 1847 0002 1F93      		push r17
 1848 0004 CF93      		push r28
 1849 0006 DF93      		push r29
 1850               	/* prologue: function */
 1851               	/* frame size = 0 */
 1852               	/* stack size = 4 */
 1853               	.L__stack_usage = 4
 1854 0008 EC01      		movw r28,r24
 1855 000a 61E0      		ldi r22,lo8(1)
 1856 000c 70E0      		ldi r23,0
 1857 000e 0E94 0000 		call lua_tothread
 1858 0012 8C01      		movw r16,r24
 1859 0014 892B      		or r24,r25
 1860 0016 01F4      		brne .L159
 1861 0018 40E0      		ldi r20,lo8(.LC21)
 1862 001a 50E0      		ldi r21,hi8(.LC21)
 1863 001c 61E0      		ldi r22,lo8(1)
 1864 001e 70E0      		ldi r23,0
 1865 0020 CE01      		movw r24,r28
 1866 0022 0E94 0000 		call luaL_argerror
GAS LISTING /tmp/cchCtIPA.s 			page 35


 1867               	.L159:
 1868 0026 B801      		movw r22,r16
 1869 0028 CE01      		movw r24,r28
 1870 002a 0E94 0000 		call costatus
 1871 002e 880F      		lsl r24
 1872 0030 991F      		rol r25
 1873 0032 FC01      		movw r30,r24
 1874 0034 E050      		subi r30,lo8(-(statnames))
 1875 0036 F040      		sbci r31,hi8(-(statnames))
 1876 0038 6081      		ld r22,Z
 1877 003a 7181      		ldd r23,Z+1
 1878 003c CE01      		movw r24,r28
 1879 003e 0E94 0000 		call lua_pushstring
 1880 0042 81E0      		ldi r24,lo8(1)
 1881 0044 90E0      		ldi r25,0
 1882               	/* epilogue start */
 1883 0046 DF91      		pop r29
 1884 0048 CF91      		pop r28
 1885 004a 1F91      		pop r17
 1886 004c 0F91      		pop r16
 1887 004e 0895      		ret
 1888               		.size	luaB_costatus, .-luaB_costatus
 1889               		.section	.text.luaB_auxwrap,"ax",@progbits
 1890               		.type	luaB_auxwrap, @function
 1891               	luaB_auxwrap:
 1892 0000 0F93      		push r16
 1893 0002 1F93      		push r17
 1894 0004 CF93      		push r28
 1895 0006 DF93      		push r29
 1896               	/* prologue: function */
 1897               	/* frame size = 0 */
 1898               	/* stack size = 4 */
 1899               	.L__stack_usage = 4
 1900 0008 EC01      		movw r28,r24
 1901 000a 6DEE      		ldi r22,lo8(-19)
 1902 000c 78ED      		ldi r23,lo8(-40)
 1903 000e 0E94 0000 		call lua_tothread
 1904 0012 8C01      		movw r16,r24
 1905 0014 CE01      		movw r24,r28
 1906 0016 0E94 0000 		call lua_gettop
 1907 001a AC01      		movw r20,r24
 1908 001c B801      		movw r22,r16
 1909 001e CE01      		movw r24,r28
 1910 0020 0E94 0000 		call auxresume
 1911 0024 8C01      		movw r16,r24
 1912 0026 97FF      		sbrs r25,7
 1913 0028 00C0      		rjmp .L161
 1914 002a 6FEF      		ldi r22,lo8(-1)
 1915 002c 7FEF      		ldi r23,lo8(-1)
 1916 002e CE01      		movw r24,r28
 1917 0030 0E94 0000 		call lua_isstring
 1918 0034 892B      		or r24,r25
 1919 0036 01F0      		breq .L162
 1920 0038 61E0      		ldi r22,lo8(1)
 1921 003a 70E0      		ldi r23,0
 1922 003c CE01      		movw r24,r28
 1923 003e 0E94 0000 		call luaL_where
GAS LISTING /tmp/cchCtIPA.s 			page 36


 1924 0042 6EEF      		ldi r22,lo8(-2)
 1925 0044 7FEF      		ldi r23,lo8(-1)
 1926 0046 CE01      		movw r24,r28
 1927 0048 0E94 0000 		call lua_insert
 1928 004c 62E0      		ldi r22,lo8(2)
 1929 004e 70E0      		ldi r23,0
 1930 0050 CE01      		movw r24,r28
 1931 0052 0E94 0000 		call lua_concat
 1932               	.L162:
 1933 0056 CE01      		movw r24,r28
 1934 0058 0E94 0000 		call lua_error
 1935               	.L161:
 1936 005c C801      		movw r24,r16
 1937               	/* epilogue start */
 1938 005e DF91      		pop r29
 1939 0060 CF91      		pop r28
 1940 0062 1F91      		pop r17
 1941 0064 0F91      		pop r16
 1942 0066 0895      		ret
 1943               		.size	luaB_auxwrap, .-luaB_auxwrap
 1944               		.section	.rodata.str1.1
 1945               	.LC22:
 1946 0211 3D28 6C6F 		.string	"=(load)"
 1946      6164 2900 
 1947               		.section	.text.luaB_load,"ax",@progbits
 1948               		.type	luaB_load, @function
 1949               	luaB_load:
 1950 0000 0F93      		push r16
 1951 0002 1F93      		push r17
 1952 0004 CF93      		push r28
 1953 0006 DF93      		push r29
 1954               	/* prologue: function */
 1955               	/* frame size = 0 */
 1956               	/* stack size = 4 */
 1957               	.L__stack_usage = 4
 1958 0008 EC01      		movw r28,r24
 1959 000a 20E0      		ldi r18,0
 1960 000c 30E0      		ldi r19,0
 1961 000e 40E0      		ldi r20,lo8(.LC22)
 1962 0010 50E0      		ldi r21,hi8(.LC22)
 1963 0012 62E0      		ldi r22,lo8(2)
 1964 0014 70E0      		ldi r23,0
 1965 0016 0E94 0000 		call luaL_optlstring
 1966 001a 8C01      		movw r16,r24
 1967 001c 48E0      		ldi r20,lo8(8)
 1968 001e 50E0      		ldi r21,0
 1969 0020 61E0      		ldi r22,lo8(1)
 1970 0022 70E0      		ldi r23,0
 1971 0024 CE01      		movw r24,r28
 1972 0026 0E94 0000 		call luaL_checktype
 1973 002a 63E0      		ldi r22,lo8(3)
 1974 002c 70E0      		ldi r23,0
 1975 002e CE01      		movw r24,r28
 1976 0030 0E94 0000 		call lua_settop
 1977 0034 9801      		movw r18,r16
 1978 0036 40E0      		ldi r20,0
 1979 0038 50E0      		ldi r21,0
GAS LISTING /tmp/cchCtIPA.s 			page 37


 1980 003a 60E0      		ldi r22,lo8(gs(generic_reader))
 1981 003c 70E0      		ldi r23,hi8(gs(generic_reader))
 1982 003e CE01      		movw r24,r28
 1983 0040 0E94 0000 		call lua_load
 1984 0044 892B      		or r24,r25
 1985 0046 01F0      		breq .L168
 1986 0048 CE01      		movw r24,r28
 1987 004a 0E94 0000 		call lua_pushnil
 1988 004e 6EEF      		ldi r22,lo8(-2)
 1989 0050 7FEF      		ldi r23,lo8(-1)
 1990 0052 CE01      		movw r24,r28
 1991 0054 0E94 0000 		call lua_insert
 1992 0058 82E0      		ldi r24,lo8(2)
 1993 005a 90E0      		ldi r25,0
 1994 005c 00C0      		rjmp .L167
 1995               	.L168:
 1996 005e 81E0      		ldi r24,lo8(1)
 1997 0060 90E0      		ldi r25,0
 1998               	.L167:
 1999               	/* epilogue start */
 2000 0062 DF91      		pop r29
 2001 0064 CF91      		pop r28
 2002 0066 1F91      		pop r17
 2003 0068 0F91      		pop r16
 2004 006a 0895      		ret
 2005               		.size	luaB_load, .-luaB_load
 2006               		.section	.text.luaB_coresume,"ax",@progbits
 2007               		.type	luaB_coresume, @function
 2008               	luaB_coresume:
 2009 0000 0F93      		push r16
 2010 0002 1F93      		push r17
 2011 0004 CF93      		push r28
 2012 0006 DF93      		push r29
 2013               	/* prologue: function */
 2014               	/* frame size = 0 */
 2015               	/* stack size = 4 */
 2016               	.L__stack_usage = 4
 2017 0008 EC01      		movw r28,r24
 2018 000a 61E0      		ldi r22,lo8(1)
 2019 000c 70E0      		ldi r23,0
 2020 000e 0E94 0000 		call lua_tothread
 2021 0012 8C01      		movw r16,r24
 2022 0014 892B      		or r24,r25
 2023 0016 01F4      		brne .L170
 2024 0018 40E0      		ldi r20,lo8(.LC21)
 2025 001a 50E0      		ldi r21,hi8(.LC21)
 2026 001c 61E0      		ldi r22,lo8(1)
 2027 001e 70E0      		ldi r23,0
 2028 0020 CE01      		movw r24,r28
 2029 0022 0E94 0000 		call luaL_argerror
 2030               	.L170:
 2031 0026 CE01      		movw r24,r28
 2032 0028 0E94 0000 		call lua_gettop
 2033 002c AC01      		movw r20,r24
 2034 002e 4150      		subi r20,1
 2035 0030 5109      		sbc r21,__zero_reg__
 2036 0032 B801      		movw r22,r16
GAS LISTING /tmp/cchCtIPA.s 			page 38


 2037 0034 CE01      		movw r24,r28
 2038 0036 0E94 0000 		call auxresume
 2039 003a 8C01      		movw r16,r24
 2040 003c 97FF      		sbrs r25,7
 2041 003e 00C0      		rjmp .L171
 2042 0040 60E0      		ldi r22,0
 2043 0042 70E0      		ldi r23,0
 2044 0044 CE01      		movw r24,r28
 2045 0046 0E94 0000 		call lua_pushboolean
 2046 004a 6EEF      		ldi r22,lo8(-2)
 2047 004c 7FEF      		ldi r23,lo8(-1)
 2048 004e CE01      		movw r24,r28
 2049 0050 0E94 0000 		call lua_insert
 2050 0054 82E0      		ldi r24,lo8(2)
 2051 0056 90E0      		ldi r25,0
 2052 0058 00C0      		rjmp .L172
 2053               	.L171:
 2054 005a 61E0      		ldi r22,lo8(1)
 2055 005c 70E0      		ldi r23,0
 2056 005e CE01      		movw r24,r28
 2057 0060 0E94 0000 		call lua_pushboolean
 2058 0064 B801      		movw r22,r16
 2059 0066 6095      		com r22
 2060 0068 7095      		com r23
 2061 006a CE01      		movw r24,r28
 2062 006c 0E94 0000 		call lua_insert
 2063 0070 C801      		movw r24,r16
 2064 0072 0196      		adiw r24,1
 2065               	.L172:
 2066               	/* epilogue start */
 2067 0074 DF91      		pop r29
 2068 0076 CF91      		pop r28
 2069 0078 1F91      		pop r17
 2070 007a 0F91      		pop r16
 2071 007c 0895      		ret
 2072               		.size	luaB_coresume, .-luaB_coresume
 2073               		.section	.rodata.str1.1
 2074               	.LC23:
 2075 0219 626F 6F6C 		.string	"boolean or proxy expected"
 2075      6561 6E20 
 2075      6F72 2070 
 2075      726F 7879 
 2075      2065 7870 
 2076               		.section	.text.luaB_newproxy,"ax",@progbits
 2077               		.type	luaB_newproxy, @function
 2078               	luaB_newproxy:
 2079 0000 0F93      		push r16
 2080 0002 1F93      		push r17
 2081 0004 CF93      		push r28
 2082 0006 DF93      		push r29
 2083               	/* prologue: function */
 2084               	/* frame size = 0 */
 2085               	/* stack size = 4 */
 2086               	.L__stack_usage = 4
 2087 0008 EC01      		movw r28,r24
 2088 000a 61E0      		ldi r22,lo8(1)
 2089 000c 70E0      		ldi r23,0
GAS LISTING /tmp/cchCtIPA.s 			page 39


 2090 000e 0E94 0000 		call lua_settop
 2091 0012 60E0      		ldi r22,0
 2092 0014 70E0      		ldi r23,0
 2093 0016 CE01      		movw r24,r28
 2094 0018 0E94 0000 		call lua_newuserdata
 2095 001c 61E0      		ldi r22,lo8(1)
 2096 001e 70E0      		ldi r23,0
 2097 0020 CE01      		movw r24,r28
 2098 0022 0E94 0000 		call lua_toboolean
 2099 0026 892B      		or r24,r25
 2100 0028 01F4      		brne .+2
 2101 002a 00C0      		rjmp .L174
 2102 002c 61E0      		ldi r22,lo8(1)
 2103 002e 70E0      		ldi r23,0
 2104 0030 CE01      		movw r24,r28
 2105 0032 0E94 0000 		call lua_type
 2106 0036 0197      		sbiw r24,1
 2107 0038 01F4      		brne .L175
 2108 003a 40E0      		ldi r20,0
 2109 003c 50E0      		ldi r21,0
 2110 003e 60E0      		ldi r22,0
 2111 0040 70E0      		ldi r23,0
 2112 0042 CE01      		movw r24,r28
 2113 0044 0E94 0000 		call lua_createtable
 2114 0048 6FEF      		ldi r22,lo8(-1)
 2115 004a 7FEF      		ldi r23,lo8(-1)
 2116 004c CE01      		movw r24,r28
 2117 004e 0E94 0000 		call lua_pushvalue
 2118 0052 61E0      		ldi r22,lo8(1)
 2119 0054 70E0      		ldi r23,0
 2120 0056 CE01      		movw r24,r28
 2121 0058 0E94 0000 		call lua_pushboolean
 2122 005c 6DEE      		ldi r22,lo8(-19)
 2123 005e 78ED      		ldi r23,lo8(-40)
 2124 0060 CE01      		movw r24,r28
 2125 0062 0E94 0000 		call lua_rawset
 2126 0066 00C0      		rjmp .L176
 2127               	.L175:
 2128 0068 61E0      		ldi r22,lo8(1)
 2129 006a 70E0      		ldi r23,0
 2130 006c CE01      		movw r24,r28
 2131 006e 0E94 0000 		call lua_getmetatable
 2132 0072 892B      		or r24,r25
 2133 0074 01F4      		brne .L177
 2134               	.L179:
 2135 0076 40E0      		ldi r20,lo8(.LC23)
 2136 0078 50E0      		ldi r21,hi8(.LC23)
 2137 007a 61E0      		ldi r22,lo8(1)
 2138 007c 70E0      		ldi r23,0
 2139 007e CE01      		movw r24,r28
 2140 0080 0E94 0000 		call luaL_argerror
 2141 0084 00C0      		rjmp .L178
 2142               	.L177:
 2143 0086 6DEE      		ldi r22,lo8(-19)
 2144 0088 78ED      		ldi r23,lo8(-40)
 2145 008a CE01      		movw r24,r28
 2146 008c 0E94 0000 		call lua_rawget
GAS LISTING /tmp/cchCtIPA.s 			page 40


 2147 0090 6FEF      		ldi r22,lo8(-1)
 2148 0092 7FEF      		ldi r23,lo8(-1)
 2149 0094 CE01      		movw r24,r28
 2150 0096 0E94 0000 		call lua_toboolean
 2151 009a 8C01      		movw r16,r24
 2152 009c 6EEF      		ldi r22,lo8(-2)
 2153 009e 7FEF      		ldi r23,lo8(-1)
 2154 00a0 CE01      		movw r24,r28
 2155 00a2 0E94 0000 		call lua_settop
 2156 00a6 012B      		or r16,r17
 2157 00a8 01F0      		breq .L179
 2158               	.L178:
 2159 00aa 61E0      		ldi r22,lo8(1)
 2160 00ac 70E0      		ldi r23,0
 2161 00ae CE01      		movw r24,r28
 2162 00b0 0E94 0000 		call lua_getmetatable
 2163               	.L176:
 2164 00b4 62E0      		ldi r22,lo8(2)
 2165 00b6 70E0      		ldi r23,0
 2166 00b8 CE01      		movw r24,r28
 2167 00ba 0E94 0000 		call lua_setmetatable
 2168               	.L174:
 2169 00be 81E0      		ldi r24,lo8(1)
 2170 00c0 90E0      		ldi r25,0
 2171               	/* epilogue start */
 2172 00c2 DF91      		pop r29
 2173 00c4 CF91      		pop r28
 2174 00c6 1F91      		pop r17
 2175 00c8 0F91      		pop r16
 2176 00ca 0895      		ret
 2177               		.size	luaB_newproxy, .-luaB_newproxy
 2178               		.section	.rodata.str1.1
 2179               	.LC24:
 2180 0233 7472 7565 		.string	"true"
 2180      00
 2181               	.LC25:
 2182 0238 6661 6C73 		.string	"false"
 2182      6500 
 2183               	.LC26:
 2184 023e 5F5F 746F 		.string	"__tostring"
 2184      7374 7269 
 2184      6E67 00
 2185               	.LC27:
 2186 0249 6E69 6C00 		.string	"nil"
 2187               	.LC28:
 2188 024d 2573 3A20 		.string	"%s: %p"
 2188      2570 00
 2189               		.section	.text.luaB_tostring,"ax",@progbits
 2190               		.type	luaB_tostring, @function
 2191               	luaB_tostring:
 2192 0000 0F93      		push r16
 2193 0002 1F93      		push r17
 2194 0004 CF93      		push r28
 2195 0006 DF93      		push r29
 2196               	/* prologue: function */
 2197               	/* frame size = 0 */
 2198               	/* stack size = 4 */
GAS LISTING /tmp/cchCtIPA.s 			page 41


 2199               	.L__stack_usage = 4
 2200 0008 EC01      		movw r28,r24
 2201 000a 61E0      		ldi r22,lo8(1)
 2202 000c 70E0      		ldi r23,0
 2203 000e 0E94 0000 		call luaL_checkany
 2204 0012 40E0      		ldi r20,lo8(.LC26)
 2205 0014 50E0      		ldi r21,hi8(.LC26)
 2206 0016 61E0      		ldi r22,lo8(1)
 2207 0018 70E0      		ldi r23,0
 2208 001a CE01      		movw r24,r28
 2209 001c 0E94 0000 		call luaL_callmeta
 2210 0020 892B      		or r24,r25
 2211 0022 01F0      		breq .+2
 2212 0024 00C0      		rjmp .L187
 2213 0026 61E0      		ldi r22,lo8(1)
 2214 0028 70E0      		ldi r23,0
 2215 002a CE01      		movw r24,r28
 2216 002c 0E94 0000 		call lua_type
 2217 0030 8130      		cpi r24,1
 2218 0032 9105      		cpc r25,__zero_reg__
 2219 0034 01F0      		breq .L189
 2220 0036 04F4      		brge .L190
 2221 0038 892B      		or r24,r25
 2222 003a 01F4      		brne .L188
 2223 003c 43E0      		ldi r20,lo8(3)
 2224 003e 50E0      		ldi r21,0
 2225 0040 60E0      		ldi r22,lo8(.LC27)
 2226 0042 70E0      		ldi r23,hi8(.LC27)
 2227 0044 CE01      		movw r24,r28
 2228 0046 0E94 0000 		call lua_pushlstring
 2229 004a 00C0      		rjmp .L187
 2230               	.L190:
 2231 004c 8530      		cpi r24,5
 2232 004e 9105      		cpc r25,__zero_reg__
 2233 0050 01F0      		breq .L192
 2234 0052 0697      		sbiw r24,6
 2235 0054 01F4      		brne .L188
 2236 0056 61E0      		ldi r22,lo8(1)
 2237 0058 70E0      		ldi r23,0
 2238 005a CE01      		movw r24,r28
 2239 005c 0E94 0000 		call lua_pushvalue
 2240 0060 00C0      		rjmp .L187
 2241               	.L192:
 2242 0062 40E0      		ldi r20,0
 2243 0064 50E0      		ldi r21,0
 2244 0066 61E0      		ldi r22,lo8(1)
 2245 0068 70E0      		ldi r23,0
 2246 006a CE01      		movw r24,r28
 2247 006c 0E94 0000 		call lua_tolstring
 2248 0070 BC01      		movw r22,r24
 2249 0072 00C0      		rjmp .L194
 2250               	.L189:
 2251 0074 61E0      		ldi r22,lo8(1)
 2252 0076 70E0      		ldi r23,0
 2253 0078 CE01      		movw r24,r28
 2254 007a 0E94 0000 		call lua_toboolean
 2255 007e 892B      		or r24,r25
GAS LISTING /tmp/cchCtIPA.s 			page 42


 2256 0080 01F4      		brne .L195
 2257 0082 60E0      		ldi r22,lo8(.LC25)
 2258 0084 70E0      		ldi r23,hi8(.LC25)
 2259 0086 00C0      		rjmp .L194
 2260               	.L195:
 2261 0088 60E0      		ldi r22,lo8(.LC24)
 2262 008a 70E0      		ldi r23,hi8(.LC24)
 2263               	.L194:
 2264 008c CE01      		movw r24,r28
 2265 008e 0E94 0000 		call lua_pushstring
 2266 0092 00C0      		rjmp .L187
 2267               	.L188:
 2268 0094 61E0      		ldi r22,lo8(1)
 2269 0096 70E0      		ldi r23,0
 2270 0098 CE01      		movw r24,r28
 2271 009a 0E94 0000 		call lua_topointer
 2272 009e 182F      		mov r17,r24
 2273 00a0 092F      		mov r16,r25
 2274 00a2 61E0      		ldi r22,lo8(1)
 2275 00a4 70E0      		ldi r23,0
 2276 00a6 CE01      		movw r24,r28
 2277 00a8 0E94 0000 		call lua_type
 2278 00ac BC01      		movw r22,r24
 2279 00ae CE01      		movw r24,r28
 2280 00b0 0E94 0000 		call lua_typename
 2281 00b4 0F93      		push r16
 2282 00b6 1F93      		push r17
 2283 00b8 9F93      		push r25
 2284 00ba 8F93      		push r24
 2285 00bc 80E0      		ldi r24,lo8(.LC28)
 2286 00be 90E0      		ldi r25,hi8(.LC28)
 2287 00c0 9F93      		push r25
 2288 00c2 8F93      		push r24
 2289 00c4 DF93      		push r29
 2290 00c6 CF93      		push r28
 2291 00c8 0E94 0000 		call lua_pushfstring
 2292 00cc 8DB7      		in r24,__SP_L__
 2293 00ce 9EB7      		in r25,__SP_H__
 2294 00d0 0896      		adiw r24,8
 2295 00d2 0FB6      		in __tmp_reg__,__SREG__
 2296 00d4 F894      		cli
 2297 00d6 9EBF      		out __SP_H__,r25
 2298 00d8 0FBE      		out __SREG__,__tmp_reg__
 2299 00da 8DBF      		out __SP_L__,r24
 2300               	.L187:
 2301 00dc 81E0      		ldi r24,lo8(1)
 2302 00de 90E0      		ldi r25,0
 2303               	/* epilogue start */
 2304 00e0 DF91      		pop r29
 2305 00e2 CF91      		pop r28
 2306 00e4 1F91      		pop r17
 2307 00e6 0F91      		pop r16
 2308 00e8 0895      		ret
 2309               		.size	luaB_tostring, .-luaB_tostring
 2310               		.section	.text.luaB_getmetatable,"ax",@progbits
 2311               		.type	luaB_getmetatable, @function
 2312               	luaB_getmetatable:
GAS LISTING /tmp/cchCtIPA.s 			page 43


 2313 0000 CF93      		push r28
 2314 0002 DF93      		push r29
 2315               	/* prologue: function */
 2316               	/* frame size = 0 */
 2317               	/* stack size = 2 */
 2318               	.L__stack_usage = 2
 2319 0004 EC01      		movw r28,r24
 2320 0006 61E0      		ldi r22,lo8(1)
 2321 0008 70E0      		ldi r23,0
 2322 000a 0E94 0000 		call luaL_checkany
 2323 000e 61E0      		ldi r22,lo8(1)
 2324 0010 70E0      		ldi r23,0
 2325 0012 CE01      		movw r24,r28
 2326 0014 0E94 0000 		call lua_getmetatable
 2327 0018 892B      		or r24,r25
 2328 001a 01F4      		brne .L197
 2329 001c CE01      		movw r24,r28
 2330 001e 0E94 0000 		call lua_pushnil
 2331 0022 00C0      		rjmp .L198
 2332               	.L197:
 2333 0024 40E0      		ldi r20,lo8(.LC5)
 2334 0026 50E0      		ldi r21,hi8(.LC5)
 2335 0028 61E0      		ldi r22,lo8(1)
 2336 002a 70E0      		ldi r23,0
 2337 002c CE01      		movw r24,r28
 2338 002e 0E94 0000 		call luaL_getmetafield
 2339               	.L198:
 2340 0032 81E0      		ldi r24,lo8(1)
 2341 0034 90E0      		ldi r25,0
 2342               	/* epilogue start */
 2343 0036 DF91      		pop r29
 2344 0038 CF91      		pop r28
 2345 003a 0895      		ret
 2346               		.size	luaB_getmetatable, .-luaB_getmetatable
 2347               		.section	.rodata.str1.1
 2348               	.LC29:
 2349 0254 6173 7365 		.string	"assertion failed!"
 2349      7274 696F 
 2349      6E20 6661 
 2349      696C 6564 
 2349      2100 
 2350               	.LC30:
 2351 0266 2573 00   		.string	"%s"
 2352               		.section	.text.luaB_assert,"ax",@progbits
 2353               		.type	luaB_assert, @function
 2354               	luaB_assert:
 2355 0000 CF93      		push r28
 2356 0002 DF93      		push r29
 2357               	/* prologue: function */
 2358               	/* frame size = 0 */
 2359               	/* stack size = 2 */
 2360               	.L__stack_usage = 2
 2361 0004 D82F      		mov r29,r24
 2362 0006 C92F      		mov r28,r25
 2363 0008 61E0      		ldi r22,lo8(1)
 2364 000a 70E0      		ldi r23,0
 2365 000c 0E94 0000 		call luaL_checkany
GAS LISTING /tmp/cchCtIPA.s 			page 44


 2366 0010 61E0      		ldi r22,lo8(1)
 2367 0012 70E0      		ldi r23,0
 2368 0014 8D2F      		mov r24,r29
 2369 0016 9C2F      		mov r25,r28
 2370 0018 0E94 0000 		call lua_toboolean
 2371 001c 892B      		or r24,r25
 2372 001e 01F4      		brne .L200
 2373 0020 20E0      		ldi r18,0
 2374 0022 30E0      		ldi r19,0
 2375 0024 40E0      		ldi r20,lo8(.LC29)
 2376 0026 50E0      		ldi r21,hi8(.LC29)
 2377 0028 62E0      		ldi r22,lo8(2)
 2378 002a 70E0      		ldi r23,0
 2379 002c 8D2F      		mov r24,r29
 2380 002e 9C2F      		mov r25,r28
 2381 0030 0E94 0000 		call luaL_optlstring
 2382 0034 9F93      		push r25
 2383 0036 8F93      		push r24
 2384 0038 80E0      		ldi r24,lo8(.LC30)
 2385 003a 90E0      		ldi r25,hi8(.LC30)
 2386 003c 9F93      		push r25
 2387 003e 8F93      		push r24
 2388 0040 CF93      		push r28
 2389 0042 DF93      		push r29
 2390 0044 0E94 0000 		call luaL_error
 2391 0048 0F90      		pop __tmp_reg__
 2392 004a 0F90      		pop __tmp_reg__
 2393 004c 0F90      		pop __tmp_reg__
 2394 004e 0F90      		pop __tmp_reg__
 2395 0050 0F90      		pop __tmp_reg__
 2396 0052 0F90      		pop __tmp_reg__
 2397               	/* epilogue start */
 2398 0054 DF91      		pop r29
 2399 0056 CF91      		pop r28
 2400 0058 0895      		ret
 2401               	.L200:
 2402 005a 8D2F      		mov r24,r29
 2403 005c 9C2F      		mov r25,r28
 2404               	/* epilogue start */
 2405 005e DF91      		pop r29
 2406 0060 CF91      		pop r28
 2407 0062 0C94 0000 		jmp lua_gettop
 2408               		.size	luaB_assert, .-luaB_assert
 2409               		.section	.text.luaB_loadfile,"ax",@progbits
 2410               		.type	luaB_loadfile, @function
 2411               	luaB_loadfile:
 2412 0000 CF93      		push r28
 2413 0002 DF93      		push r29
 2414               	/* prologue: function */
 2415               	/* frame size = 0 */
 2416               	/* stack size = 2 */
 2417               	.L__stack_usage = 2
 2418 0004 EC01      		movw r28,r24
 2419 0006 20E0      		ldi r18,0
 2420 0008 30E0      		ldi r19,0
 2421 000a 40E0      		ldi r20,0
 2422 000c 50E0      		ldi r21,0
GAS LISTING /tmp/cchCtIPA.s 			page 45


 2423 000e 61E0      		ldi r22,lo8(1)
 2424 0010 70E0      		ldi r23,0
 2425 0012 0E94 0000 		call luaL_optlstring
 2426 0016 BC01      		movw r22,r24
 2427 0018 CE01      		movw r24,r28
 2428 001a 0E94 0000 		call luaL_loadfile
 2429 001e 892B      		or r24,r25
 2430 0020 01F0      		breq .L205
 2431 0022 CE01      		movw r24,r28
 2432 0024 0E94 0000 		call lua_pushnil
 2433 0028 6EEF      		ldi r22,lo8(-2)
 2434 002a 7FEF      		ldi r23,lo8(-1)
 2435 002c CE01      		movw r24,r28
 2436 002e 0E94 0000 		call lua_insert
 2437 0032 82E0      		ldi r24,lo8(2)
 2438 0034 90E0      		ldi r25,0
 2439 0036 00C0      		rjmp .L204
 2440               	.L205:
 2441 0038 81E0      		ldi r24,lo8(1)
 2442 003a 90E0      		ldi r25,0
 2443               	.L204:
 2444               	/* epilogue start */
 2445 003c DF91      		pop r29
 2446 003e CF91      		pop r28
 2447 0040 0895      		ret
 2448               		.size	luaB_loadfile, .-luaB_loadfile
 2449               		.section	.text.luaB_loadstring,"ax",@progbits
 2450               		.type	luaB_loadstring, @function
 2451               	luaB_loadstring:
 2452 0000 EF92      		push r14
 2453 0002 FF92      		push r15
 2454 0004 0F93      		push r16
 2455 0006 1F93      		push r17
 2456 0008 CF93      		push r28
 2457 000a DF93      		push r29
 2458 000c 1F92      		push __zero_reg__
 2459 000e 1F92      		push __zero_reg__
 2460 0010 CDB7      		in r28,__SP_L__
 2461 0012 DEB7      		in r29,__SP_H__
 2462               	/* prologue: function */
 2463               	/* frame size = 2 */
 2464               	/* stack size = 8 */
 2465               	.L__stack_usage = 8
 2466 0014 8C01      		movw r16,r24
 2467 0016 AE01      		movw r20,r28
 2468 0018 4F5F      		subi r20,-1
 2469 001a 5F4F      		sbci r21,-1
 2470 001c 61E0      		ldi r22,lo8(1)
 2471 001e 70E0      		ldi r23,0
 2472 0020 0E94 0000 		call luaL_checklstring
 2473 0024 7C01      		movw r14,r24
 2474 0026 20E0      		ldi r18,0
 2475 0028 30E0      		ldi r19,0
 2476 002a AC01      		movw r20,r24
 2477 002c 62E0      		ldi r22,lo8(2)
 2478 002e 70E0      		ldi r23,0
 2479 0030 C801      		movw r24,r16
GAS LISTING /tmp/cchCtIPA.s 			page 46


 2480 0032 0E94 0000 		call luaL_optlstring
 2481 0036 4981      		ldd r20,Y+1
 2482 0038 5A81      		ldd r21,Y+2
 2483 003a 9C01      		movw r18,r24
 2484 003c B701      		movw r22,r14
 2485 003e C801      		movw r24,r16
 2486 0040 0E94 0000 		call luaL_loadbuffer
 2487 0044 892B      		or r24,r25
 2488 0046 01F0      		breq .L208
 2489 0048 C801      		movw r24,r16
 2490 004a 0E94 0000 		call lua_pushnil
 2491 004e 6EEF      		ldi r22,lo8(-2)
 2492 0050 7FEF      		ldi r23,lo8(-1)
 2493 0052 C801      		movw r24,r16
 2494 0054 0E94 0000 		call lua_insert
 2495 0058 82E0      		ldi r24,lo8(2)
 2496 005a 90E0      		ldi r25,0
 2497 005c 00C0      		rjmp .L207
 2498               	.L208:
 2499 005e 81E0      		ldi r24,lo8(1)
 2500 0060 90E0      		ldi r25,0
 2501               	.L207:
 2502               	/* epilogue start */
 2503 0062 0F90      		pop __tmp_reg__
 2504 0064 0F90      		pop __tmp_reg__
 2505 0066 DF91      		pop r29
 2506 0068 CF91      		pop r28
 2507 006a 1F91      		pop r17
 2508 006c 0F91      		pop r16
 2509 006e FF90      		pop r15
 2510 0070 EF90      		pop r14
 2511 0072 0895      		ret
 2512               		.size	luaB_loadstring, .-luaB_loadstring
 2513               		.section	.rodata.str1.1
 2514               	.LC31:
 2515 0269 5F47 00   		.string	"_G"
 2516               	.LC32:
 2517 026c 4C75 6120 		.string	"Lua 5.1"
 2517      352E 3100 
 2518               	.LC33:
 2519 0274 5F56 4552 		.string	"_VERSION"
 2519      5349 4F4E 
 2519      00
 2520               	.LC34:
 2521 027d 6970 6169 		.string	"ipairs"
 2521      7273 00
 2522               	.LC35:
 2523 0284 7061 6972 		.string	"pairs"
 2523      7300 
 2524               	.LC36:
 2525 028a 6B76 00   		.string	"kv"
 2526               	.LC37:
 2527 028d 5F5F 6D6F 		.string	"__mode"
 2527      6465 00
 2528               	.LC38:
 2529 0294 6E65 7770 		.string	"newproxy"
 2529      726F 7879 
GAS LISTING /tmp/cchCtIPA.s 			page 47


 2529      00
 2530               	.LC39:
 2531 029d 636F 726F 		.string	"coroutine"
 2531      7574 696E 
 2531      6500 
 2532               		.section	.text.luaopen_base,"ax",@progbits
 2533               	.global	luaopen_base
 2534               		.type	luaopen_base, @function
 2535               	luaopen_base:
 2536 0000 CF93      		push r28
 2537 0002 DF93      		push r29
 2538               	/* prologue: function */
 2539               	/* frame size = 0 */
 2540               	/* stack size = 2 */
 2541               	.L__stack_usage = 2
 2542 0004 EC01      		movw r28,r24
 2543 0006 6EEE      		ldi r22,lo8(-18)
 2544 0008 78ED      		ldi r23,lo8(-40)
 2545 000a 0E94 0000 		call lua_pushvalue
 2546 000e 40E0      		ldi r20,lo8(.LC31)
 2547 0010 50E0      		ldi r21,hi8(.LC31)
 2548 0012 6EEE      		ldi r22,lo8(-18)
 2549 0014 78ED      		ldi r23,lo8(-40)
 2550 0016 CE01      		movw r24,r28
 2551 0018 0E94 0000 		call lua_setfield
 2552 001c 40E0      		ldi r20,lo8(base_funcs)
 2553 001e 50E0      		ldi r21,hi8(base_funcs)
 2554 0020 60E0      		ldi r22,lo8(.LC31)
 2555 0022 70E0      		ldi r23,hi8(.LC31)
 2556 0024 CE01      		movw r24,r28
 2557 0026 0E94 0000 		call luaL_register_light
 2558 002a 47E0      		ldi r20,lo8(7)
 2559 002c 50E0      		ldi r21,0
 2560 002e 60E0      		ldi r22,lo8(.LC32)
 2561 0030 70E0      		ldi r23,hi8(.LC32)
 2562 0032 CE01      		movw r24,r28
 2563 0034 0E94 0000 		call lua_pushlstring
 2564 0038 40E0      		ldi r20,lo8(.LC33)
 2565 003a 50E0      		ldi r21,hi8(.LC33)
 2566 003c 6EEE      		ldi r22,lo8(-18)
 2567 003e 78ED      		ldi r23,lo8(-40)
 2568 0040 CE01      		movw r24,r28
 2569 0042 0E94 0000 		call lua_setfield
 2570 0046 40E0      		ldi r20,0
 2571 0048 50E0      		ldi r21,0
 2572 004a 60E0      		ldi r22,lo8(gs(ipairsaux))
 2573 004c 70E0      		ldi r23,hi8(gs(ipairsaux))
 2574 004e CE01      		movw r24,r28
 2575 0050 0E94 0000 		call lua_pushcclosure
 2576 0054 41E0      		ldi r20,lo8(1)
 2577 0056 50E0      		ldi r21,0
 2578 0058 60E0      		ldi r22,lo8(gs(luaB_ipairs))
 2579 005a 70E0      		ldi r23,hi8(gs(luaB_ipairs))
 2580 005c CE01      		movw r24,r28
 2581 005e 0E94 0000 		call lua_pushcclosure
 2582 0062 40E0      		ldi r20,lo8(.LC34)
 2583 0064 50E0      		ldi r21,hi8(.LC34)
GAS LISTING /tmp/cchCtIPA.s 			page 48


 2584 0066 6EEF      		ldi r22,lo8(-2)
 2585 0068 7FEF      		ldi r23,lo8(-1)
 2586 006a CE01      		movw r24,r28
 2587 006c 0E94 0000 		call lua_setfield
 2588 0070 40E0      		ldi r20,0
 2589 0072 50E0      		ldi r21,0
 2590 0074 60E0      		ldi r22,lo8(gs(luaB_next))
 2591 0076 70E0      		ldi r23,hi8(gs(luaB_next))
 2592 0078 CE01      		movw r24,r28
 2593 007a 0E94 0000 		call lua_pushcclosure
 2594 007e 41E0      		ldi r20,lo8(1)
 2595 0080 50E0      		ldi r21,0
 2596 0082 60E0      		ldi r22,lo8(gs(luaB_pairs))
 2597 0084 70E0      		ldi r23,hi8(gs(luaB_pairs))
 2598 0086 CE01      		movw r24,r28
 2599 0088 0E94 0000 		call lua_pushcclosure
 2600 008c 40E0      		ldi r20,lo8(.LC35)
 2601 008e 50E0      		ldi r21,hi8(.LC35)
 2602 0090 6EEF      		ldi r22,lo8(-2)
 2603 0092 7FEF      		ldi r23,lo8(-1)
 2604 0094 CE01      		movw r24,r28
 2605 0096 0E94 0000 		call lua_setfield
 2606 009a 41E0      		ldi r20,lo8(1)
 2607 009c 50E0      		ldi r21,0
 2608 009e 60E0      		ldi r22,0
 2609 00a0 70E0      		ldi r23,0
 2610 00a2 CE01      		movw r24,r28
 2611 00a4 0E94 0000 		call lua_createtable
 2612 00a8 6FEF      		ldi r22,lo8(-1)
 2613 00aa 7FEF      		ldi r23,lo8(-1)
 2614 00ac CE01      		movw r24,r28
 2615 00ae 0E94 0000 		call lua_pushvalue
 2616 00b2 6EEF      		ldi r22,lo8(-2)
 2617 00b4 7FEF      		ldi r23,lo8(-1)
 2618 00b6 CE01      		movw r24,r28
 2619 00b8 0E94 0000 		call lua_setmetatable
 2620 00bc 42E0      		ldi r20,lo8(2)
 2621 00be 50E0      		ldi r21,0
 2622 00c0 60E0      		ldi r22,lo8(.LC36)
 2623 00c2 70E0      		ldi r23,hi8(.LC36)
 2624 00c4 CE01      		movw r24,r28
 2625 00c6 0E94 0000 		call lua_pushlstring
 2626 00ca 40E0      		ldi r20,lo8(.LC37)
 2627 00cc 50E0      		ldi r21,hi8(.LC37)
 2628 00ce 6EEF      		ldi r22,lo8(-2)
 2629 00d0 7FEF      		ldi r23,lo8(-1)
 2630 00d2 CE01      		movw r24,r28
 2631 00d4 0E94 0000 		call lua_setfield
 2632 00d8 41E0      		ldi r20,lo8(1)
 2633 00da 50E0      		ldi r21,0
 2634 00dc 60E0      		ldi r22,lo8(gs(luaB_newproxy))
 2635 00de 70E0      		ldi r23,hi8(gs(luaB_newproxy))
 2636 00e0 CE01      		movw r24,r28
 2637 00e2 0E94 0000 		call lua_pushcclosure
 2638 00e6 40E0      		ldi r20,lo8(.LC38)
 2639 00e8 50E0      		ldi r21,hi8(.LC38)
 2640 00ea 6EEE      		ldi r22,lo8(-18)
GAS LISTING /tmp/cchCtIPA.s 			page 49


 2641 00ec 78ED      		ldi r23,lo8(-40)
 2642 00ee CE01      		movw r24,r28
 2643 00f0 0E94 0000 		call lua_setfield
 2644 00f4 40E0      		ldi r20,lo8(co_funcs)
 2645 00f6 50E0      		ldi r21,hi8(co_funcs)
 2646 00f8 60E0      		ldi r22,lo8(.LC39)
 2647 00fa 70E0      		ldi r23,hi8(.LC39)
 2648 00fc CE01      		movw r24,r28
 2649 00fe 0E94 0000 		call luaL_register
 2650 0102 82E0      		ldi r24,lo8(2)
 2651 0104 90E0      		ldi r25,0
 2652               	/* epilogue start */
 2653 0106 DF91      		pop r29
 2654 0108 CF91      		pop r28
 2655 010a 0895      		ret
 2656               		.size	luaopen_base, .-luaopen_base
 2657               		.section	.rodata
 2658               		.type	optsnum.2976, @object
 2659               		.size	optsnum.2976, 14
 2660               	optsnum.2976:
 2661 0000 0000      		.word	0
 2662 0002 0100      		.word	1
 2663 0004 0200      		.word	2
 2664 0006 0300      		.word	3
 2665 0008 0500      		.word	5
 2666 000a 0600      		.word	6
 2667 000c 0700      		.word	7
 2668               		.section	.rodata.str1.1
 2669               	.LC40:
 2670 02a7 7374 6F70 		.string	"stop"
 2670      00
 2671               	.LC41:
 2672 02ac 7265 7374 		.string	"restart"
 2672      6172 7400 
 2673               	.LC42:
 2674 02b4 636F 756E 		.string	"count"
 2674      7400 
 2675               	.LC43:
 2676 02ba 7374 6570 		.string	"step"
 2676      00
 2677               	.LC44:
 2678 02bf 7365 7470 		.string	"setpause"
 2678      6175 7365 
 2678      00
 2679               	.LC45:
 2680 02c8 7365 7473 		.string	"setstepmul"
 2680      7465 706D 
 2680      756C 00
 2681               		.section	.rodata
 2682               		.type	opts.2975, @object
 2683               		.size	opts.2975, 16
 2684               	opts.2975:
 2685 000e 0000      		.word	.LC40
 2686 0010 0000      		.word	.LC41
 2687 0012 0000      		.word	.LC17
 2688 0014 0000      		.word	.LC42
 2689 0016 0000      		.word	.LC43
GAS LISTING /tmp/cchCtIPA.s 			page 50


 2690 0018 0000      		.word	.LC44
 2691 001a 0000      		.word	.LC45
 2692 001c 0000      		.word	0
 2693               	.global	co_funcs
 2694               		.section	.rodata.str1.1
 2695               	.LC46:
 2696 02d3 6372 6561 		.string	"create"
 2696      7465 00
 2697               	.LC47:
 2698 02da 7265 7375 		.string	"resume"
 2698      6D65 00
 2699               	.LC48:
 2700 02e1 7275 6E6E 		.string	"running"
 2700      696E 6700 
 2701               	.LC49:
 2702 02e9 7374 6174 		.string	"status"
 2702      7573 00
 2703               	.LC50:
 2704 02f0 7772 6170 		.string	"wrap"
 2704      00
 2705               	.LC51:
 2706 02f5 7969 656C 		.string	"yield"
 2706      6400 
 2707               		.section	.rodata
 2708               		.type	co_funcs, @object
 2709               		.size	co_funcs, 28
 2710               	co_funcs:
 2711 001e 0000      		.word	.LC46
 2712 0020 0000      		.word	gs(luaB_cocreate)
 2713 0022 0000      		.word	.LC47
 2714 0024 0000      		.word	gs(luaB_coresume)
 2715 0026 0000      		.word	.LC48
 2716 0028 0000      		.word	gs(luaB_corunning)
 2717 002a 0000      		.word	.LC49
 2718 002c 0000      		.word	gs(luaB_costatus)
 2719 002e 0000      		.word	.LC50
 2720 0030 0000      		.word	gs(luaB_cowrap)
 2721 0032 0000      		.word	.LC51
 2722 0034 0000      		.word	gs(luaB_yield)
 2723 0036 0000      		.word	0
 2724 0038 0000      		.word	0
 2725               		.section	.rodata.str1.1
 2726               	.LC52:
 2727 02fb 7375 7370 		.string	"suspended"
 2727      656E 6465 
 2727      6400 
 2728               	.LC53:
 2729 0305 6E6F 726D 		.string	"normal"
 2729      616C 00
 2730               	.LC54:
 2731 030c 6465 6164 		.string	"dead"
 2731      00
 2732               		.section	.rodata
 2733               		.type	statnames, @object
 2734               		.size	statnames, 8
 2735               	statnames:
 2736 003a 0000      		.word	.LC48
GAS LISTING /tmp/cchCtIPA.s 			page 51


 2737 003c 0000      		.word	.LC52
 2738 003e 0000      		.word	.LC53
 2739 0040 0000      		.word	.LC54
 2740               		.section	.rodata.str1.1
 2741               	.LC55:
 2742 0311 6173 7365 		.string	"assert"
 2742      7274 00
 2743               	.LC56:
 2744 0318 636F 6C6C 		.string	"collectgarbage"
 2744      6563 7467 
 2744      6172 6261 
 2744      6765 00
 2745               	.LC57:
 2746 0327 646F 6669 		.string	"dofile"
 2746      6C65 00
 2747               	.LC58:
 2748 032e 6572 726F 		.string	"error"
 2748      7200 
 2749               	.LC59:
 2750 0334 6763 696E 		.string	"gcinfo"
 2750      666F 00
 2751               	.LC60:
 2752 033b 6765 7466 		.string	"getfenv"
 2752      656E 7600 
 2753               	.LC61:
 2754 0343 6765 746D 		.string	"getmetatable"
 2754      6574 6174 
 2754      6162 6C65 
 2754      00
 2755               	.LC62:
 2756 0350 6C6F 6164 		.string	"loadfile"
 2756      6669 6C65 
 2756      00
 2757               	.LC63:
 2758 0359 6C6F 6164 		.string	"load"
 2758      00
 2759               	.LC64:
 2760 035e 6C6F 6164 		.string	"loadstring"
 2760      7374 7269 
 2760      6E67 00
 2761               	.LC65:
 2762 0369 6E65 7874 		.string	"next"
 2762      00
 2763               	.LC66:
 2764 036e 7063 616C 		.string	"pcall"
 2764      6C00 
 2765               	.LC67:
 2766 0374 7072 696E 		.string	"print"
 2766      7400 
 2767               	.LC68:
 2768 037a 7261 7765 		.string	"rawequal"
 2768      7175 616C 
 2768      00
 2769               	.LC69:
 2770 0383 7261 7767 		.string	"rawget"
 2770      6574 00
 2771               	.LC70:
GAS LISTING /tmp/cchCtIPA.s 			page 52


 2772 038a 7261 7773 		.string	"rawset"
 2772      6574 00
 2773               	.LC71:
 2774 0391 7365 6C65 		.string	"select"
 2774      6374 00
 2775               	.LC72:
 2776 0398 7365 7466 		.string	"setfenv"
 2776      656E 7600 
 2777               	.LC73:
 2778 03a0 7365 746D 		.string	"setmetatable"
 2778      6574 6174 
 2778      6162 6C65 
 2778      00
 2779               	.LC74:
 2780 03ad 746F 6E75 		.string	"tonumber"
 2780      6D62 6572 
 2780      00
 2781               	.LC75:
 2782 03b6 7479 7065 		.string	"type"
 2782      00
 2783               	.LC76:
 2784 03bb 756E 7061 		.string	"unpack"
 2784      636B 00
 2785               	.LC77:
 2786 03c2 7870 6361 		.string	"xpcall"
 2786      6C6C 00
 2787               		.section	.rodata
 2788               		.type	base_funcs, @object
 2789               		.size	base_funcs, 100
 2790               	base_funcs:
 2791 0042 0000      		.word	.LC55
 2792 0044 0000      		.word	gs(luaB_assert)
 2793 0046 0000      		.word	.LC56
 2794 0048 0000      		.word	gs(luaB_collectgarbage)
 2795 004a 0000      		.word	.LC57
 2796 004c 0000      		.word	gs(luaB_dofile)
 2797 004e 0000      		.word	.LC58
 2798 0050 0000      		.word	gs(luaB_error)
 2799 0052 0000      		.word	.LC59
 2800 0054 0000      		.word	gs(luaB_gcinfo)
 2801 0056 0000      		.word	.LC60
 2802 0058 0000      		.word	gs(luaB_getfenv)
 2803 005a 0000      		.word	.LC61
 2804 005c 0000      		.word	gs(luaB_getmetatable)
 2805 005e 0000      		.word	.LC62
 2806 0060 0000      		.word	gs(luaB_loadfile)
 2807 0062 0000      		.word	.LC63
 2808 0064 0000      		.word	gs(luaB_load)
 2809 0066 0000      		.word	.LC64
 2810 0068 0000      		.word	gs(luaB_loadstring)
 2811 006a 0000      		.word	.LC65
 2812 006c 0000      		.word	gs(luaB_next)
 2813 006e 0000      		.word	.LC66
 2814 0070 0000      		.word	gs(luaB_pcall)
 2815 0072 0000      		.word	.LC67
 2816 0074 0000      		.word	gs(luaB_print)
 2817 0076 0000      		.word	.LC68
GAS LISTING /tmp/cchCtIPA.s 			page 53


 2818 0078 0000      		.word	gs(luaB_rawequal)
 2819 007a 0000      		.word	.LC69
 2820 007c 0000      		.word	gs(luaB_rawget)
 2821 007e 0000      		.word	.LC70
 2822 0080 0000      		.word	gs(luaB_rawset)
 2823 0082 0000      		.word	.LC71
 2824 0084 0000      		.word	gs(luaB_select)
 2825 0086 0000      		.word	.LC72
 2826 0088 0000      		.word	gs(luaB_setfenv)
 2827 008a 0000      		.word	.LC73
 2828 008c 0000      		.word	gs(luaB_setmetatable)
 2829 008e 0000      		.word	.LC74
 2830 0090 0000      		.word	gs(luaB_tonumber)
 2831 0092 0000      		.word	.LC12
 2832 0094 0000      		.word	gs(luaB_tostring)
 2833 0096 0000      		.word	.LC75
 2834 0098 0000      		.word	gs(luaB_type)
 2835 009a 0000      		.word	.LC76
 2836 009c 0000      		.word	gs(luaB_unpack)
 2837 009e 0000      		.word	.LC77
 2838 00a0 0000      		.word	gs(luaB_xpcall)
 2839 00a2 0000      		.word	0
 2840 00a4 0000      		.word	0
 2841               		.ident	"GCC: (GNU) 5.3.0"
 2842               	.global __do_copy_data
GAS LISTING /tmp/cchCtIPA.s 			page 54


DEFINED SYMBOLS
                            *ABS*:0000000000000000 lbaselib.c
     /tmp/cchCtIPA.s:2      *ABS*:000000000000003e __SP_H__
     /tmp/cchCtIPA.s:3      *ABS*:000000000000003d __SP_L__
     /tmp/cchCtIPA.s:4      *ABS*:000000000000003f __SREG__
     /tmp/cchCtIPA.s:5      *ABS*:000000000000003b __RAMPZ__
     /tmp/cchCtIPA.s:6      *ABS*:0000000000000000 __tmp_reg__
     /tmp/cchCtIPA.s:7      *ABS*:0000000000000001 __zero_reg__
     /tmp/cchCtIPA.s:10     .text.luaB_yield:0000000000000000 luaB_yield
     /tmp/cchCtIPA.s:28     .text.luaB_corunning:0000000000000000 luaB_corunning
     /tmp/cchCtIPA.s:54     .text.luaB_cocreate:0000000000000000 luaB_cocreate
     /tmp/cchCtIPA.s:108    .text.luaB_cowrap:0000000000000000 luaB_cowrap
     /tmp/cchCtIPA.s:1891   .text.luaB_auxwrap:0000000000000000 luaB_auxwrap
     /tmp/cchCtIPA.s:132    .text.luaB_pairs:0000000000000000 luaB_pairs
     /tmp/cchCtIPA.s:164    .text.luaB_next:0000000000000000 luaB_next
     /tmp/cchCtIPA.s:203    .text.luaB_ipairs:0000000000000000 luaB_ipairs
     /tmp/cchCtIPA.s:237    .text.ipairsaux:0000000000000000 ipairsaux
     /tmp/cchCtIPA.s:285    .text.luaB_rawset:0000000000000000 luaB_rawset
     /tmp/cchCtIPA.s:323    .text.luaB_rawget:0000000000000000 luaB_rawget
     /tmp/cchCtIPA.s:357    .text.luaB_pcall:0000000000000000 luaB_pcall
     /tmp/cchCtIPA.s:400    .text.luaB_xpcall:0000000000000000 luaB_xpcall
     /tmp/cchCtIPA.s:448    .text.luaB_error:0000000000000000 luaB_error
     /tmp/cchCtIPA.s:502    .text.luaB_unpack:0000000000000000 luaB_unpack
     /tmp/cchCtIPA.s:605    .text.luaB_type:0000000000000000 luaB_type
     /tmp/cchCtIPA.s:638    .text.luaB_select:0000000000000000 luaB_select
     /tmp/cchCtIPA.s:721    .text.luaB_tonumber:0000000000000000 luaB_tonumber
     /tmp/cchCtIPA.s:862    .text.luaB_setmetatable:0000000000000000 luaB_setmetatable
     /tmp/cchCtIPA.s:949    .text.getfunc:0000000000000000 getfunc
     /tmp/cchCtIPA.s:1081   .text.luaB_setfenv:0000000000000000 luaB_setfenv
     /tmp/cchCtIPA.s:1177   .text.luaB_rawequal:0000000000000000 luaB_rawequal
     /tmp/cchCtIPA.s:1217   .text.luaB_print:0000000000000000 luaB_print
     /tmp/cchCtIPA.s:1328   .text.generic_reader:0000000000000000 generic_reader
     /tmp/cchCtIPA.s:1409   .text.luaB_dofile:0000000000000000 luaB_dofile
     /tmp/cchCtIPA.s:1461   .text.luaB_getfenv:0000000000000000 luaB_getfenv
     /tmp/cchCtIPA.s:1498   .text.luaB_gcinfo:0000000000000000 luaB_gcinfo
     /tmp/cchCtIPA.s:1526   .text.luaB_collectgarbage:0000000000000000 luaB_collectgarbage
     /tmp/cchCtIPA.s:2684   .rodata:000000000000000e opts.2975
     /tmp/cchCtIPA.s:2660   .rodata:0000000000000000 optsnum.2976
     /tmp/cchCtIPA.s:1627   .text.costatus:0000000000000000 costatus
     /tmp/cchCtIPA.s:1710   .text.auxresume:0000000000000000 auxresume
     /tmp/cchCtIPA.s:2735   .rodata:000000000000003a statnames
     /tmp/cchCtIPA.s:1845   .text.luaB_costatus:0000000000000000 luaB_costatus
     /tmp/cchCtIPA.s:1949   .text.luaB_load:0000000000000000 luaB_load
     /tmp/cchCtIPA.s:2008   .text.luaB_coresume:0000000000000000 luaB_coresume
     /tmp/cchCtIPA.s:2078   .text.luaB_newproxy:0000000000000000 luaB_newproxy
     /tmp/cchCtIPA.s:2191   .text.luaB_tostring:0000000000000000 luaB_tostring
     /tmp/cchCtIPA.s:2312   .text.luaB_getmetatable:0000000000000000 luaB_getmetatable
     /tmp/cchCtIPA.s:2354   .text.luaB_assert:0000000000000000 luaB_assert
     /tmp/cchCtIPA.s:2411   .text.luaB_loadfile:0000000000000000 luaB_loadfile
     /tmp/cchCtIPA.s:2451   .text.luaB_loadstring:0000000000000000 luaB_loadstring
     /tmp/cchCtIPA.s:2535   .text.luaopen_base:0000000000000000 luaopen_base
     /tmp/cchCtIPA.s:2790   .rodata:0000000000000042 base_funcs
     /tmp/cchCtIPA.s:2710   .rodata:000000000000001e co_funcs

UNDEFINED SYMBOLS
lua_gettop
lua_yield
GAS LISTING /tmp/cchCtIPA.s 			page 55


lua_pushthread
lua_pushnil
lua_newthread
lua_type
luaL_argerror
lua_iscfunction
lua_pushvalue
lua_xmove
lua_pushcclosure
luaL_checktype
lua_settop
lua_next
lua_pushinteger
luaL_checkinteger
lua_rawgeti
luaL_checkany
lua_rawset
lua_rawget
lua_pcall
lua_pushboolean
lua_insert
lua_replace
luaL_optinteger
lua_isstring
luaL_where
lua_concat
lua_error
lua_objlen
lua_checkstack
luaL_error
lua_typename
lua_pushstring
lua_tolstring
lua_isnumber
lua_tonumber
luaL_checklstring
strtoul
isspace
lua_pushnumber
luaL_getmetafield
lua_setmetatable
lua_getstack
lua_getinfo
lua_setfenv
lua_rawequal
lua_getfield
lua_call
__iob
fputc
fputs
luaL_checkstack
luaL_optlstring
luaL_loadfile
lua_getfenv
lua_gc
luaL_checkoption
lua_status
GAS LISTING /tmp/cchCtIPA.s 			page 56


lua_pushfstring
lua_setlevel
lua_resume
lua_tothread
lua_load
lua_newuserdata
lua_toboolean
lua_createtable
lua_getmetatable
luaL_callmeta
lua_pushlstring
lua_topointer
luaL_loadbuffer
lua_setfield
luaL_register_light
luaL_register
__do_copy_data
