GAS LISTING /tmp/ccIJIBIx.s 			page 1


   1               		.file	"lcode.c"
   2               	__SP_H__ = 0x3e
   3               	__SP_L__ = 0x3d
   4               	__SREG__ = 0x3f
   5               	__RAMPZ__ = 0x3b
   6               	__tmp_reg__ = 0
   7               	__zero_reg__ = 1
   8               		.section	.text.isnumeral,"ax",@progbits
   9               		.type	isnumeral, @function
  10               	isnumeral:
  11               	/* prologue: function */
  12               	/* frame size = 0 */
  13               	/* stack size = 0 */
  14               	.L__stack_usage = 0
  15 0000 FC01      		movw r30,r24
  16 0002 8081      		ld r24,Z
  17 0004 9181      		ldd r25,Z+1
  18 0006 0597      		sbiw r24,5
  19 0008 01F4      		brne .L5
  20 000a 8681      		ldd r24,Z+6
  21 000c 9781      		ldd r25,Z+7
  22 000e 0196      		adiw r24,1
  23 0010 01F4      		brne .L5
  24 0012 21E0      		ldi r18,lo8(1)
  25 0014 90E0      		ldi r25,0
  26 0016 4085      		ldd r20,Z+8
  27 0018 5185      		ldd r21,Z+9
  28 001a 4F3F      		cpi r20,-1
  29 001c 5F4F      		sbci r21,-1
  30 001e 01F0      		breq .L3
  31 0020 20E0      		ldi r18,0
  32               	.L3:
  33 0022 822F      		mov r24,r18
  34 0024 0895      		ret
  35               	.L5:
  36 0026 80E0      		ldi r24,0
  37 0028 90E0      		ldi r25,0
  38 002a 0895      		ret
  39               		.size	isnumeral, .-isnumeral
  40               		.section	.rodata.str1.1,"aMS",@progbits,1
  41               	.LC0:
  42 0000 636F 6E74 		.string	"control structure too long"
  42      726F 6C20 
  42      7374 7275 
  42      6374 7572 
  42      6520 746F 
  43               		.section	.text.fixjump,"ax",@progbits
  44               		.type	fixjump, @function
  45               	fixjump:
  46 0000 0F93      		push r16
  47 0002 1F93      		push r17
  48 0004 CF93      		push r28
  49 0006 DF93      		push r29
  50               	/* prologue: function */
  51               	/* frame size = 0 */
  52               	/* stack size = 4 */
  53               	.L__stack_usage = 4
GAS LISTING /tmp/ccIJIBIx.s 			page 2


  54 0008 DC01      		movw r26,r24
  55 000a ED91      		ld r30,X+
  56 000c FC91      		ld r31,X
  57 000e 9B01      		movw r18,r22
  58 0010 220F      		lsl r18
  59 0012 331F      		rol r19
  60 0014 220F      		lsl r18
  61 0016 331F      		rol r19
  62 0018 C681      		ldd r28,Z+6
  63 001a D781      		ldd r29,Z+7
  64 001c C20F      		add r28,r18
  65 001e D31F      		adc r29,r19
  66 0020 6F5F      		subi r22,-1
  67 0022 7F4F      		sbci r23,-1
  68 0024 8A01      		movw r16,r20
  69 0026 061B      		sub r16,r22
  70 0028 170B      		sbc r17,r23
  71 002a 9801      		movw r18,r16
  72 002c 17FF      		sbrs r17,7
  73 002e 00C0      		rjmp .L12
  74 0030 2227      		clr r18
  75 0032 3327      		clr r19
  76 0034 201B      		sub r18,r16
  77 0036 310B      		sbc r19,r17
  78               	.L12:
  79 0038 2E3F      		cpi r18,-2
  80 003a 3F47      		sbci r19,127
  81 003c 04F0      		brlt .L11
  82 003e 60E0      		ldi r22,lo8(.LC0)
  83 0040 70E0      		ldi r23,hi8(.LC0)
  84 0042 FC01      		movw r30,r24
  85 0044 8681      		ldd r24,Z+6
  86 0046 9781      		ldd r25,Z+7
  87 0048 0E94 0000 		call luaX_syntaxerror
  88               	.L11:
  89 004c 4881      		ld r20,Y
  90 004e 5981      		ldd r21,Y+1
  91 0050 6A81      		ldd r22,Y+2
  92 0052 7B81      		ldd r23,Y+3
  93 0054 DB01      		movw r26,r22
  94 0056 CA01      		movw r24,r20
  95 0058 9F73      		andi r25,63
  96 005a AA27      		clr r26
  97 005c BB27      		clr r27
  98 005e 0350      		subi r16,3
  99 0060 1048      		sbci r17,-128
 100 0062 A801      		movw r20,r16
 101 0064 60E0      		ldi r22,0
 102 0066 70E0      		ldi r23,0
 103 0068 2EE0      		ldi r18,14
 104               		1:
 105 006a 440F      		lsl r20
 106 006c 551F      		rol r21
 107 006e 661F      		rol r22
 108 0070 771F      		rol r23
 109 0072 2A95      		dec r18
 110 0074 01F4      		brne 1b
GAS LISTING /tmp/ccIJIBIx.s 			page 3


 111 0076 482B      		or r20,r24
 112 0078 592B      		or r21,r25
 113 007a 6A2B      		or r22,r26
 114 007c 7B2B      		or r23,r27
 115 007e 4883      		st Y,r20
 116 0080 5983      		std Y+1,r21
 117 0082 6A83      		std Y+2,r22
 118 0084 7B83      		std Y+3,r23
 119               	/* epilogue start */
 120 0086 DF91      		pop r29
 121 0088 CF91      		pop r28
 122 008a 1F91      		pop r17
 123 008c 0F91      		pop r16
 124 008e 0895      		ret
 125               		.size	fixjump, .-fixjump
 126               		.section	.rodata.str1.1
 127               	.LC1:
 128 001b 636F 6E73 		.string	"constant table overflow"
 128      7461 6E74 
 128      2074 6162 
 128      6C65 206F 
 128      7665 7266 
 129               		.section	.text.addk,"ax",@progbits
 130               		.type	addk, @function
 131               	addk:
 132 0000 6F92      		push r6
 133 0002 7F92      		push r7
 134 0004 8F92      		push r8
 135 0006 9F92      		push r9
 136 0008 AF92      		push r10
 137 000a BF92      		push r11
 138 000c CF92      		push r12
 139 000e DF92      		push r13
 140 0010 EF92      		push r14
 141 0012 FF92      		push r15
 142 0014 0F93      		push r16
 143 0016 1F93      		push r17
 144 0018 CF93      		push r28
 145 001a DF93      		push r29
 146               	/* prologue: function */
 147               	/* frame size = 0 */
 148               	/* stack size = 14 */
 149               	.L__stack_usage = 14
 150 001c 6C01      		movw r12,r24
 151 001e 5A01      		movw r10,r20
 152 0020 DC01      		movw r26,r24
 153 0022 1896      		adiw r26,8
 154 0024 8D90      		ld r8,X+
 155 0026 9C90      		ld r9,X
 156 0028 1997      		sbiw r26,8+1
 157 002a 1296      		adiw r26,2
 158 002c 8D91      		ld r24,X+
 159 002e 9C91      		ld r25,X
 160 0030 1397      		sbiw r26,2+1
 161 0032 AB01      		movw r20,r22
 162 0034 BC01      		movw r22,r24
 163 0036 C401      		movw r24,r8
GAS LISTING /tmp/ccIJIBIx.s 			page 4


 164 0038 0E94 0000 		call luaH_set
 165 003c FC01      		movw r30,r24
 166 003e 8481      		ldd r24,Z+4
 167 0040 9581      		ldd r25,Z+5
 168 0042 0597      		sbiw r24,5
 169 0044 01F4      		brne .L14
 170 0046 8081      		ld r24,Z
 171 0048 9181      		ldd r25,Z+1
 172 004a 00C0      		rjmp .L15
 173               	.L14:
 174 004c D601      		movw r26,r12
 175 004e CD91      		ld r28,X+
 176 0050 DC91      		ld r29,X
 177 0052 1197      		sbiw r26,1
 178 0054 6C88      		ldd r6,Y+20
 179 0056 7D88      		ldd r7,Y+21
 180 0058 5496      		adiw r26,20
 181 005a 8D91      		ld r24,X+
 182 005c 9C91      		ld r25,X
 183 005e 5597      		sbiw r26,20+1
 184 0060 092E      		mov __tmp_reg__,r25
 185 0062 000C      		lsl r0
 186 0064 AA0B      		sbc r26,r26
 187 0066 BB0B      		sbc r27,r27
 188 0068 8083      		st Z,r24
 189 006a 9183      		std Z+1,r25
 190 006c A283      		std Z+2,r26
 191 006e B383      		std Z+3,r27
 192 0070 85E0      		ldi r24,lo8(5)
 193 0072 90E0      		ldi r25,0
 194 0074 9583      		std Z+5,r25
 195 0076 8483      		std Z+4,r24
 196 0078 F601      		movw r30,r12
 197 007a 2489      		ldd r18,Z+20
 198 007c 3589      		ldd r19,Z+21
 199 007e 8C89      		ldd r24,Y+20
 200 0080 9D89      		ldd r25,Y+21
 201 0082 2817      		cp r18,r24
 202 0084 3907      		cpc r19,r25
 203 0086 04F0      		brlt .L16
 204 0088 6C81      		ldd r22,Y+4
 205 008a 7D81      		ldd r23,Y+5
 206 008c 80E0      		ldi r24,lo8(.LC1)
 207 008e E82E      		mov r14,r24
 208 0090 80E0      		ldi r24,hi8(.LC1)
 209 0092 F82E      		mov r15,r24
 210 0094 0DEF      		ldi r16,lo8(-3)
 211 0096 1FE7      		ldi r17,lo8(127)
 212 0098 26E0      		ldi r18,lo8(6)
 213 009a 30E0      		ldi r19,0
 214 009c AE01      		movw r20,r28
 215 009e 4C5E      		subi r20,-20
 216 00a0 5F4F      		sbci r21,-1
 217 00a2 C401      		movw r24,r8
 218 00a4 0E94 0000 		call luaM_growaux_
 219 00a8 9D83      		std Y+5,r25
 220 00aa 8C83      		std Y+4,r24
GAS LISTING /tmp/ccIJIBIx.s 			page 5


 221               	.L16:
 222 00ac 4C89      		ldd r20,Y+20
 223 00ae 5D89      		ldd r21,Y+21
 224 00b0 86E0      		ldi r24,lo8(6)
 225 00b2 869D      		mul r24,r6
 226 00b4 B001      		movw r22,r0
 227 00b6 879D      		mul r24,r7
 228 00b8 700D      		add r23,r0
 229 00ba 1124      		clr __zero_reg__
 230 00bc 20E0      		ldi r18,0
 231 00be 30E0      		ldi r19,0
 232               	.L17:
 233 00c0 8C81      		ldd r24,Y+4
 234 00c2 9D81      		ldd r25,Y+5
 235 00c4 6416      		cp r6,r20
 236 00c6 7506      		cpc r7,r21
 237 00c8 04F4      		brge .L26
 238 00ca FFEF      		ldi r31,-1
 239 00cc 6F1A      		sub r6,r31
 240 00ce 7F0A      		sbc r7,r31
 241 00d0 860F      		add r24,r22
 242 00d2 971F      		adc r25,r23
 243 00d4 FC01      		movw r30,r24
 244 00d6 E20F      		add r30,r18
 245 00d8 F31F      		adc r31,r19
 246 00da 1582      		std Z+5,__zero_reg__
 247 00dc 1482      		std Z+4,__zero_reg__
 248 00de 2A5F      		subi r18,-6
 249 00e0 3F4F      		sbci r19,-1
 250 00e2 00C0      		rjmp .L17
 251               	.L26:
 252 00e4 D601      		movw r26,r12
 253 00e6 5496      		adiw r26,20
 254 00e8 2D91      		ld r18,X+
 255 00ea 3C91      		ld r19,X
 256 00ec 5597      		sbiw r26,20+1
 257 00ee 46E0      		ldi r20,lo8(6)
 258 00f0 429F      		mul r20,r18
 259 00f2 F001      		movw r30,r0
 260 00f4 439F      		mul r20,r19
 261 00f6 F00D      		add r31,r0
 262 00f8 1124      		clr __zero_reg__
 263 00fa 9F01      		movw r18,r30
 264 00fc 280F      		add r18,r24
 265 00fe 391F      		adc r19,r25
 266 0100 F501      		movw r30,r10
 267 0102 8081      		ld r24,Z
 268 0104 9181      		ldd r25,Z+1
 269 0106 A281      		ldd r26,Z+2
 270 0108 B381      		ldd r27,Z+3
 271 010a F901      		movw r30,r18
 272 010c 8083      		st Z,r24
 273 010e 9183      		std Z+1,r25
 274 0110 A283      		std Z+2,r26
 275 0112 B383      		std Z+3,r27
 276 0114 D501      		movw r26,r10
 277 0116 1496      		adiw r26,4
GAS LISTING /tmp/ccIJIBIx.s 			page 6


 278 0118 8D91      		ld r24,X+
 279 011a 9C91      		ld r25,X
 280 011c 1597      		sbiw r26,4+1
 281 011e 9583      		std Z+5,r25
 282 0120 8483      		std Z+4,r24
 283 0122 1496      		adiw r26,4
 284 0124 8D91      		ld r24,X+
 285 0126 9C91      		ld r25,X
 286 0128 1597      		sbiw r26,4+1
 287 012a 0697      		sbiw r24,6
 288 012c 04F0      		brlt .L19
 289 012e 4D91      		ld r20,X+
 290 0130 5C91      		ld r21,X
 291 0132 FA01      		movw r30,r20
 292 0134 8381      		ldd r24,Z+3
 293 0136 8370      		andi r24,lo8(3)
 294 0138 01F0      		breq .L19
 295 013a 8B81      		ldd r24,Y+3
 296 013c 82FF      		sbrs r24,2
 297 013e 00C0      		rjmp .L19
 298 0140 BE01      		movw r22,r28
 299 0142 C401      		movw r24,r8
 300 0144 0E94 0000 		call luaC_barrierf
 301               	.L19:
 302 0148 D601      		movw r26,r12
 303 014a 5496      		adiw r26,20
 304 014c 8D91      		ld r24,X+
 305 014e 9C91      		ld r25,X
 306 0150 5597      		sbiw r26,20+1
 307 0152 9C01      		movw r18,r24
 308 0154 2F5F      		subi r18,-1
 309 0156 3F4F      		sbci r19,-1
 310 0158 5596      		adiw r26,20+1
 311 015a 3C93      		st X,r19
 312 015c 2E93      		st -X,r18
 313 015e 5497      		sbiw r26,20
 314               	.L15:
 315               	/* epilogue start */
 316 0160 DF91      		pop r29
 317 0162 CF91      		pop r28
 318 0164 1F91      		pop r17
 319 0166 0F91      		pop r16
 320 0168 FF90      		pop r15
 321 016a EF90      		pop r14
 322 016c DF90      		pop r13
 323 016e CF90      		pop r12
 324 0170 BF90      		pop r11
 325 0172 AF90      		pop r10
 326 0174 9F90      		pop r9
 327 0176 8F90      		pop r8
 328 0178 7F90      		pop r7
 329 017a 6F90      		pop r6
 330 017c 0895      		ret
 331               		.size	addk, .-addk
 332               		.section	.text.getjump.isra.0,"ax",@progbits
 333               		.type	getjump.isra.0, @function
 334               	getjump.isra.0:
GAS LISTING /tmp/ccIJIBIx.s 			page 7


 335               	/* prologue: function */
 336               	/* frame size = 0 */
 337               	/* stack size = 0 */
 338               	.L__stack_usage = 0
 339 0000 9B01      		movw r18,r22
 340 0002 220F      		lsl r18
 341 0004 331F      		rol r19
 342 0006 220F      		lsl r18
 343 0008 331F      		rol r19
 344 000a FC01      		movw r30,r24
 345 000c 8681      		ldd r24,Z+6
 346 000e 9781      		ldd r25,Z+7
 347 0010 FC01      		movw r30,r24
 348 0012 E20F      		add r30,r18
 349 0014 F31F      		adc r31,r19
 350 0016 8081      		ld r24,Z
 351 0018 9181      		ldd r25,Z+1
 352 001a A281      		ldd r26,Z+2
 353 001c B381      		ldd r27,Z+3
 354 001e 5EE0      		ldi r21,14
 355               		1:
 356 0020 B695      		lsr r27
 357 0022 A795      		ror r26
 358 0024 9795      		ror r25
 359 0026 8795      		ror r24
 360 0028 5A95      		dec r21
 361 002a 01F4      		brne 1b
 362 002c 8D5F      		subi r24,-3
 363 002e 9F47      		sbci r25,127
 364 0030 8F3F      		cpi r24,-1
 365 0032 FFEF      		ldi r31,-1
 366 0034 9F07      		cpc r25,r31
 367 0036 01F0      		breq .L29
 368 0038 6F5F      		subi r22,-1
 369 003a 7F4F      		sbci r23,-1
 370 003c 860F      		add r24,r22
 371 003e 971F      		adc r25,r23
 372 0040 0895      		ret
 373               	.L29:
 374 0042 8FEF      		ldi r24,lo8(-1)
 375 0044 9FEF      		ldi r25,lo8(-1)
 376 0046 0895      		ret
 377               		.size	getjump.isra.0, .-getjump.isra.0
 378               		.section	.text.getjumpcontrol.isra.1,"ax",@progbits
 379               		.type	getjumpcontrol.isra.1, @function
 380               	getjumpcontrol.isra.1:
 381               	/* prologue: function */
 382               	/* frame size = 0 */
 383               	/* stack size = 0 */
 384               	.L__stack_usage = 0
 385 0000 9B01      		movw r18,r22
 386 0002 220F      		lsl r18
 387 0004 331F      		rol r19
 388 0006 220F      		lsl r18
 389 0008 331F      		rol r19
 390 000a FC01      		movw r30,r24
 391 000c 8681      		ldd r24,Z+6
GAS LISTING /tmp/ccIJIBIx.s 			page 8


 392 000e 9781      		ldd r25,Z+7
 393 0010 280F      		add r18,r24
 394 0012 391F      		adc r19,r25
 395 0014 1616      		cp __zero_reg__,r22
 396 0016 1706      		cpc __zero_reg__,r23
 397 0018 04F4      		brge .L33
 398 001a D901      		movw r26,r18
 399 001c 1497      		sbiw r26,4
 400 001e ED91      		ld r30,X+
 401 0020 FC91      		ld r31,X
 402 0022 1197      		sbiw r26,1
 403 0024 EF73      		andi r30,63
 404 0026 FF27      		clr r31
 405 0028 E050      		subi r30,lo8(-(luaP_opmodes))
 406 002a F040      		sbci r31,hi8(-(luaP_opmodes))
 407 002c 8081      		ld r24,Z
 408 002e 87FF      		sbrs r24,7
 409 0030 00C0      		rjmp .L33
 410 0032 CD01      		movw r24,r26
 411 0034 0895      		ret
 412               	.L33:
 413 0036 C901      		movw r24,r18
 414 0038 0895      		ret
 415               		.size	getjumpcontrol.isra.1, .-getjumpcontrol.isra.1
 416               		.section	.text.need_value,"ax",@progbits
 417               		.type	need_value, @function
 418               	need_value:
 419 0000 EF92      		push r14
 420 0002 FF92      		push r15
 421 0004 0F93      		push r16
 422 0006 1F93      		push r17
 423 0008 CF93      		push r28
 424 000a DF93      		push r29
 425               	/* prologue: function */
 426               	/* frame size = 0 */
 427               	/* stack size = 6 */
 428               	.L__stack_usage = 6
 429 000c 7C01      		movw r14,r24
 430 000e EB01      		movw r28,r22
 431               	.L35:
 432 0010 CF3F      		cpi r28,-1
 433 0012 FFEF      		ldi r31,-1
 434 0014 DF07      		cpc r29,r31
 435 0016 01F0      		breq .L39
 436 0018 F701      		movw r30,r14
 437 001a 0081      		ld r16,Z
 438 001c 1181      		ldd r17,Z+1
 439 001e BE01      		movw r22,r28
 440 0020 C801      		movw r24,r16
 441 0022 0E94 0000 		call getjumpcontrol.isra.1
 442 0026 FC01      		movw r30,r24
 443 0028 8081      		ld r24,Z
 444 002a 9181      		ldd r25,Z+1
 445 002c 8F73      		andi r24,63
 446 002e 9927      		clr r25
 447 0030 4B97      		sbiw r24,27
 448 0032 01F4      		brne .L38
GAS LISTING /tmp/ccIJIBIx.s 			page 9


 449 0034 BE01      		movw r22,r28
 450 0036 C801      		movw r24,r16
 451 0038 0E94 0000 		call getjump.isra.0
 452 003c EC01      		movw r28,r24
 453 003e 00C0      		rjmp .L35
 454               	.L39:
 455 0040 80E0      		ldi r24,0
 456 0042 90E0      		ldi r25,0
 457 0044 00C0      		rjmp .L36
 458               	.L38:
 459 0046 81E0      		ldi r24,lo8(1)
 460 0048 90E0      		ldi r25,0
 461               	.L36:
 462               	/* epilogue start */
 463 004a DF91      		pop r29
 464 004c CF91      		pop r28
 465 004e 1F91      		pop r17
 466 0050 0F91      		pop r16
 467 0052 FF90      		pop r15
 468 0054 EF90      		pop r14
 469 0056 0895      		ret
 470               		.size	need_value, .-need_value
 471               		.section	.text.patchtestreg,"ax",@progbits
 472               		.type	patchtestreg, @function
 473               	patchtestreg:
 474 0000 0F93      		push r16
 475 0002 1F93      		push r17
 476 0004 CF93      		push r28
 477 0006 DF93      		push r29
 478               	/* prologue: function */
 479               	/* frame size = 0 */
 480               	/* stack size = 4 */
 481               	.L__stack_usage = 4
 482 0008 EA01      		movw r28,r20
 483 000a FC01      		movw r30,r24
 484 000c 8081      		ld r24,Z
 485 000e 9181      		ldd r25,Z+1
 486 0010 0E94 0000 		call getjumpcontrol.isra.1
 487 0014 FC01      		movw r30,r24
 488 0016 0081      		ld r16,Z
 489 0018 1181      		ldd r17,Z+1
 490 001a 2281      		ldd r18,Z+2
 491 001c 3381      		ldd r19,Z+3
 492 001e C801      		movw r24,r16
 493 0020 8F73      		andi r24,63
 494 0022 9927      		clr r25
 495 0024 4B97      		sbiw r24,27
 496 0026 01F0      		breq .+2
 497 0028 00C0      		rjmp .L43
 498 002a D901      		movw r26,r18
 499 002c C801      		movw r24,r16
 500 002e 47E1      		ldi r20,23
 501               		1:
 502 0030 B695      		lsr r27
 503 0032 A795      		ror r26
 504 0034 9795      		ror r25
 505 0036 8795      		ror r24
GAS LISTING /tmp/ccIJIBIx.s 			page 10


 506 0038 4A95      		dec r20
 507 003a 01F4      		brne 1b
 508 003c CF3F      		cpi r28,-1
 509 003e D105      		cpc r29,__zero_reg__
 510 0040 01F0      		breq .L42
 511 0042 C817      		cp r28,r24
 512 0044 D907      		cpc r29,r25
 513 0046 01F0      		breq .L42
 514 0048 AE01      		movw r20,r28
 515 004a DD0F      		lsl r29
 516 004c 660B      		sbc r22,r22
 517 004e 770B      		sbc r23,r23
 518 0050 A6E0      		ldi r26,6
 519               		1:
 520 0052 440F      		lsl r20
 521 0054 551F      		rol r21
 522 0056 661F      		rol r22
 523 0058 771F      		rol r23
 524 005a AA95      		dec r26
 525 005c 01F4      		brne 1b
 526 005e 407C      		andi r20,192
 527 0060 5F73      		andi r21,63
 528 0062 6627      		clr r22
 529 0064 7727      		clr r23
 530 0066 0F73      		andi r16,63
 531 0068 107C      		andi r17,192
 532 006a 402B      		or r20,r16
 533 006c 512B      		or r21,r17
 534 006e 622B      		or r22,r18
 535 0070 732B      		or r23,r19
 536 0072 4083      		st Z,r20
 537 0074 5183      		std Z+1,r21
 538 0076 6283      		std Z+2,r22
 539 0078 7383      		std Z+3,r23
 540 007a 00C0      		rjmp .L47
 541               	.L42:
 542 007c 46E0      		ldi r20,6
 543               		1:
 544 007e 880F      		lsl r24
 545 0080 991F      		rol r25
 546 0082 AA1F      		rol r26
 547 0084 BB1F      		rol r27
 548 0086 4A95      		dec r20
 549 0088 01F4      		brne 1b
 550 008a 8A61      		ori r24,26
 551 008c 5EE0      		ldi r21,14
 552               		1:
 553 008e 3695      		lsr r19
 554 0090 2795      		ror r18
 555 0092 1795      		ror r17
 556 0094 0795      		ror r16
 557 0096 5A95      		dec r21
 558 0098 01F4      		brne 1b
 559 009a 1170      		andi r17,1
 560 009c 012E      		mov __tmp_reg__,r17
 561 009e 000C      		lsl r0
 562 00a0 220B      		sbc r18,r18
GAS LISTING /tmp/ccIJIBIx.s 			page 11


 563 00a2 330B      		sbc r19,r19
 564 00a4 6EE0      		ldi r22,14
 565               		1:
 566 00a6 000F      		lsl r16
 567 00a8 111F      		rol r17
 568 00aa 221F      		rol r18
 569 00ac 331F      		rol r19
 570 00ae 6A95      		dec r22
 571 00b0 01F4      		brne 1b
 572 00b2 082B      		or r16,r24
 573 00b4 192B      		or r17,r25
 574 00b6 2A2B      		or r18,r26
 575 00b8 3B2B      		or r19,r27
 576 00ba 0083      		st Z,r16
 577 00bc 1183      		std Z+1,r17
 578 00be 2283      		std Z+2,r18
 579 00c0 3383      		std Z+3,r19
 580               	.L47:
 581 00c2 81E0      		ldi r24,lo8(1)
 582 00c4 90E0      		ldi r25,0
 583 00c6 00C0      		rjmp .L41
 584               	.L43:
 585 00c8 80E0      		ldi r24,0
 586 00ca 90E0      		ldi r25,0
 587               	.L41:
 588               	/* epilogue start */
 589 00cc DF91      		pop r29
 590 00ce CF91      		pop r28
 591 00d0 1F91      		pop r17
 592 00d2 0F91      		pop r16
 593 00d4 0895      		ret
 594               		.size	patchtestreg, .-patchtestreg
 595               		.section	.text.removevalues,"ax",@progbits
 596               		.type	removevalues, @function
 597               	removevalues:
 598 0000 0F93      		push r16
 599 0002 1F93      		push r17
 600 0004 CF93      		push r28
 601 0006 DF93      		push r29
 602               	/* prologue: function */
 603               	/* frame size = 0 */
 604               	/* stack size = 4 */
 605               	.L__stack_usage = 4
 606 0008 8C01      		movw r16,r24
 607 000a EB01      		movw r28,r22
 608               	.L49:
 609 000c CF3F      		cpi r28,-1
 610 000e FFEF      		ldi r31,-1
 611 0010 DF07      		cpc r29,r31
 612 0012 01F0      		breq .L51
 613 0014 4FEF      		ldi r20,lo8(-1)
 614 0016 50E0      		ldi r21,0
 615 0018 BE01      		movw r22,r28
 616 001a C801      		movw r24,r16
 617 001c 0E94 0000 		call patchtestreg
 618 0020 BE01      		movw r22,r28
 619 0022 F801      		movw r30,r16
GAS LISTING /tmp/ccIJIBIx.s 			page 12


 620 0024 8081      		ld r24,Z
 621 0026 9181      		ldd r25,Z+1
 622 0028 0E94 0000 		call getjump.isra.0
 623 002c EC01      		movw r28,r24
 624 002e 00C0      		rjmp .L49
 625               	.L51:
 626               	/* epilogue start */
 627 0030 DF91      		pop r29
 628 0032 CF91      		pop r28
 629 0034 1F91      		pop r17
 630 0036 0F91      		pop r16
 631 0038 0895      		ret
 632               		.size	removevalues, .-removevalues
 633               		.section	.text.patchlistaux,"ax",@progbits
 634               		.type	patchlistaux, @function
 635               	patchlistaux:
 636 0000 8F92      		push r8
 637 0002 9F92      		push r9
 638 0004 AF92      		push r10
 639 0006 BF92      		push r11
 640 0008 CF92      		push r12
 641 000a DF92      		push r13
 642 000c EF92      		push r14
 643 000e FF92      		push r15
 644 0010 0F93      		push r16
 645 0012 1F93      		push r17
 646 0014 CF93      		push r28
 647 0016 DF93      		push r29
 648               	/* prologue: function */
 649               	/* frame size = 0 */
 650               	/* stack size = 12 */
 651               	.L__stack_usage = 12
 652 0018 7C01      		movw r14,r24
 653 001a EB01      		movw r28,r22
 654 001c 6A01      		movw r12,r20
 655 001e 5901      		movw r10,r18
 656               	.L53:
 657 0020 CF3F      		cpi r28,-1
 658 0022 FFEF      		ldi r31,-1
 659 0024 DF07      		cpc r29,r31
 660 0026 01F0      		breq .L58
 661 0028 BE01      		movw r22,r28
 662 002a F701      		movw r30,r14
 663 002c 8081      		ld r24,Z
 664 002e 9181      		ldd r25,Z+1
 665 0030 0E94 0000 		call getjump.isra.0
 666 0034 4C01      		movw r8,r24
 667 0036 A501      		movw r20,r10
 668 0038 BE01      		movw r22,r28
 669 003a C701      		movw r24,r14
 670 003c 0E94 0000 		call patchtestreg
 671 0040 892B      		or r24,r25
 672 0042 01F0      		breq .L54
 673 0044 A601      		movw r20,r12
 674 0046 00C0      		rjmp .L57
 675               	.L54:
 676 0048 A801      		movw r20,r16
GAS LISTING /tmp/ccIJIBIx.s 			page 13


 677               	.L57:
 678 004a BE01      		movw r22,r28
 679 004c C701      		movw r24,r14
 680 004e 0E94 0000 		call fixjump
 681 0052 E401      		movw r28,r8
 682 0054 00C0      		rjmp .L53
 683               	.L58:
 684               	/* epilogue start */
 685 0056 DF91      		pop r29
 686 0058 CF91      		pop r28
 687 005a 1F91      		pop r17
 688 005c 0F91      		pop r16
 689 005e FF90      		pop r15
 690 0060 EF90      		pop r14
 691 0062 DF90      		pop r13
 692 0064 CF90      		pop r12
 693 0066 BF90      		pop r11
 694 0068 AF90      		pop r10
 695 006a 9F90      		pop r9
 696 006c 8F90      		pop r8
 697 006e 0895      		ret
 698               		.size	patchlistaux, .-patchlistaux
 699               		.section	.rodata.str1.1
 700               	.LC2:
 701 0033 636F 6465 		.string	"code size overflow"
 701      2073 697A 
 701      6520 6F76 
 701      6572 666C 
 701      6F77 00
 702               		.section	.text.luaK_code,"ax",@progbits
 703               		.type	luaK_code, @function
 704               	luaK_code:
 705 0000 4F92      		push r4
 706 0002 5F92      		push r5
 707 0004 6F92      		push r6
 708 0006 7F92      		push r7
 709 0008 AF92      		push r10
 710 000a BF92      		push r11
 711 000c CF92      		push r12
 712 000e DF92      		push r13
 713 0010 EF92      		push r14
 714 0012 FF92      		push r15
 715 0014 0F93      		push r16
 716 0016 1F93      		push r17
 717 0018 CF93      		push r28
 718 001a DF93      		push r29
 719               	/* prologue: function */
 720               	/* frame size = 0 */
 721               	/* stack size = 14 */
 722               	.L__stack_usage = 14
 723 001c EC01      		movw r28,r24
 724 001e 2A01      		movw r4,r20
 725 0020 3B01      		movw r6,r22
 726 0022 5901      		movw r10,r18
 727 0024 C880      		ld r12,Y
 728 0026 D980      		ldd r13,Y+1
 729 0028 4C85      		ldd r20,Y+12
GAS LISTING /tmp/ccIJIBIx.s 			page 14


 730 002a 5D85      		ldd r21,Y+13
 731 002c 6889      		ldd r22,Y+16
 732 002e 7989      		ldd r23,Y+17
 733 0030 8A01      		movw r16,r20
 734 0032 2FEF      		ldi r18,lo8(-1)
 735 0034 30E0      		ldi r19,0
 736 0036 0E94 0000 		call patchlistaux
 737 003a 8FEF      		ldi r24,lo8(-1)
 738 003c 9FEF      		ldi r25,lo8(-1)
 739 003e 998B      		std Y+17,r25
 740 0040 888B      		std Y+16,r24
 741 0042 2C85      		ldd r18,Y+12
 742 0044 3D85      		ldd r19,Y+13
 743 0046 D601      		movw r26,r12
 744 0048 5696      		adiw r26,22
 745 004a 8D91      		ld r24,X+
 746 004c 9C91      		ld r25,X
 747 004e 5797      		sbiw r26,22+1
 748 0050 2817      		cp r18,r24
 749 0052 3907      		cpc r19,r25
 750 0054 04F0      		brlt .L60
 751 0056 1696      		adiw r26,6
 752 0058 6D91      		ld r22,X+
 753 005a 7C91      		ld r23,X
 754 005c 1797      		sbiw r26,6+1
 755 005e 50E0      		ldi r21,lo8(.LC2)
 756 0060 E52E      		mov r14,r21
 757 0062 50E0      		ldi r21,hi8(.LC2)
 758 0064 F52E      		mov r15,r21
 759 0066 0DEF      		ldi r16,lo8(-3)
 760 0068 1FE7      		ldi r17,lo8(127)
 761 006a 24E0      		ldi r18,lo8(4)
 762 006c 30E0      		ldi r19,0
 763 006e A601      		movw r20,r12
 764 0070 4A5E      		subi r20,-22
 765 0072 5F4F      		sbci r21,-1
 766 0074 8885      		ldd r24,Y+8
 767 0076 9985      		ldd r25,Y+9
 768 0078 0E94 0000 		call luaM_growaux_
 769 007c F601      		movw r30,r12
 770 007e 9783      		std Z+7,r25
 771 0080 8683      		std Z+6,r24
 772               	.L60:
 773 0082 2C85      		ldd r18,Y+12
 774 0084 3D85      		ldd r19,Y+13
 775 0086 C901      		movw r24,r18
 776 0088 880F      		lsl r24
 777 008a 991F      		rol r25
 778 008c 880F      		lsl r24
 779 008e 991F      		rol r25
 780 0090 D601      		movw r26,r12
 781 0092 1696      		adiw r26,6
 782 0094 ED91      		ld r30,X+
 783 0096 FC91      		ld r31,X
 784 0098 1797      		sbiw r26,6+1
 785 009a E80F      		add r30,r24
 786 009c F91F      		adc r31,r25
GAS LISTING /tmp/ccIJIBIx.s 			page 15


 787 009e 4082      		st Z,r4
 788 00a0 5182      		std Z+1,r5
 789 00a2 6282      		std Z+2,r6
 790 00a4 7382      		std Z+3,r7
 791 00a6 5896      		adiw r26,24
 792 00a8 8D91      		ld r24,X+
 793 00aa 9C91      		ld r25,X
 794 00ac 5997      		sbiw r26,24+1
 795 00ae 2817      		cp r18,r24
 796 00b0 3907      		cpc r19,r25
 797 00b2 04F0      		brlt .L61
 798 00b4 1A96      		adiw r26,10
 799 00b6 6D91      		ld r22,X+
 800 00b8 7C91      		ld r23,X
 801 00ba 1B97      		sbiw r26,10+1
 802 00bc 90E0      		ldi r25,lo8(.LC2)
 803 00be E92E      		mov r14,r25
 804 00c0 90E0      		ldi r25,hi8(.LC2)
 805 00c2 F92E      		mov r15,r25
 806 00c4 0DEF      		ldi r16,lo8(-3)
 807 00c6 1FE7      		ldi r17,lo8(127)
 808 00c8 22E0      		ldi r18,lo8(2)
 809 00ca 30E0      		ldi r19,0
 810 00cc A601      		movw r20,r12
 811 00ce 485E      		subi r20,-24
 812 00d0 5F4F      		sbci r21,-1
 813 00d2 8885      		ldd r24,Y+8
 814 00d4 9985      		ldd r25,Y+9
 815 00d6 0E94 0000 		call luaM_growaux_
 816 00da F601      		movw r30,r12
 817 00dc 9387      		std Z+11,r25
 818 00de 8287      		std Z+10,r24
 819               	.L61:
 820 00e0 EC85      		ldd r30,Y+12
 821 00e2 FD85      		ldd r31,Y+13
 822 00e4 EE0F      		lsl r30
 823 00e6 FF1F      		rol r31
 824 00e8 D601      		movw r26,r12
 825 00ea 1A96      		adiw r26,10
 826 00ec 8D91      		ld r24,X+
 827 00ee 9C91      		ld r25,X
 828 00f0 1B97      		sbiw r26,10+1
 829 00f2 E80F      		add r30,r24
 830 00f4 F91F      		adc r31,r25
 831 00f6 B182      		std Z+1,r11
 832 00f8 A082      		st Z,r10
 833 00fa 8C85      		ldd r24,Y+12
 834 00fc 9D85      		ldd r25,Y+13
 835 00fe 9C01      		movw r18,r24
 836 0100 2F5F      		subi r18,-1
 837 0102 3F4F      		sbci r19,-1
 838 0104 3D87      		std Y+13,r19
 839 0106 2C87      		std Y+12,r18
 840               	/* epilogue start */
 841 0108 DF91      		pop r29
 842 010a CF91      		pop r28
 843 010c 1F91      		pop r17
GAS LISTING /tmp/ccIJIBIx.s 			page 16


 844 010e 0F91      		pop r16
 845 0110 FF90      		pop r15
 846 0112 EF90      		pop r14
 847 0114 DF90      		pop r13
 848 0116 CF90      		pop r12
 849 0118 BF90      		pop r11
 850 011a AF90      		pop r10
 851 011c 7F90      		pop r7
 852 011e 6F90      		pop r6
 853 0120 5F90      		pop r5
 854 0122 4F90      		pop r4
 855 0124 0895      		ret
 856               		.size	luaK_code, .-luaK_code
 857               		.section	.text.freereg,"ax",@progbits
 858               		.type	freereg, @function
 859               	freereg:
 860               	/* prologue: function */
 861               	/* frame size = 0 */
 862               	/* stack size = 0 */
 863               	.L__stack_usage = 0
 864 0000 FC01      		movw r30,r24
 865 0002 70FD      		sbrc r23,0
 866 0004 00C0      		rjmp .L62
 867 0006 828D      		ldd r24,Z+26
 868 0008 90E0      		ldi r25,0
 869 000a 6817      		cp r22,r24
 870 000c 7907      		cpc r23,r25
 871 000e 04F0      		brlt .L62
 872 0010 8289      		ldd r24,Z+18
 873 0012 9389      		ldd r25,Z+19
 874 0014 0197      		sbiw r24,1
 875 0016 938B      		std Z+19,r25
 876 0018 828B      		std Z+18,r24
 877               	.L62:
 878 001a 0895      		ret
 879               		.size	freereg, .-freereg
 880               		.section	.text.freeexp,"ax",@progbits
 881               		.type	freeexp, @function
 882               	freeexp:
 883               	/* prologue: function */
 884               	/* frame size = 0 */
 885               	/* stack size = 0 */
 886               	.L__stack_usage = 0
 887 0000 FB01      		movw r30,r22
 888 0002 2081      		ld r18,Z
 889 0004 3181      		ldd r19,Z+1
 890 0006 2C30      		cpi r18,12
 891 0008 3105      		cpc r19,__zero_reg__
 892 000a 01F4      		brne .L64
 893 000c 6281      		ldd r22,Z+2
 894 000e 7381      		ldd r23,Z+3
 895 0010 0C94 0000 		jmp freereg
 896               	.L64:
 897 0014 0895      		ret
 898               		.size	freeexp, .-freeexp
 899               		.section	.text.invertjump.isra.3,"ax",@progbits
 900               		.type	invertjump.isra.3, @function
GAS LISTING /tmp/ccIJIBIx.s 			page 17


 901               	invertjump.isra.3:
 902 0000 0F93      		push r16
 903 0002 1F93      		push r17
 904               	/* prologue: function */
 905               	/* frame size = 0 */
 906               	/* stack size = 2 */
 907               	.L__stack_usage = 2
 908 0004 FC01      		movw r30,r24
 909 0006 8081      		ld r24,Z
 910 0008 9181      		ldd r25,Z+1
 911 000a 0E94 0000 		call getjumpcontrol.isra.1
 912 000e FC01      		movw r30,r24
 913 0010 4081      		ld r20,Z
 914 0012 5181      		ldd r21,Z+1
 915 0014 6281      		ldd r22,Z+2
 916 0016 7381      		ldd r23,Z+3
 917 0018 8A01      		movw r16,r20
 918 001a 9B01      		movw r18,r22
 919 001c 0F73      		andi r16,63
 920 001e 107C      		andi r17,192
 921 0020 E6E0      		ldi r30,6
 922               		1:
 923 0022 7695      		lsr r23
 924 0024 6795      		ror r22
 925 0026 5795      		ror r21
 926 0028 4795      		ror r20
 927 002a EA95      		dec r30
 928 002c 01F4      		brne 1b
 929 002e 5527      		clr r21
 930 0030 452B      		or r20,r21
 931 0032 01F0      		breq .L68
 932 0034 40E0      		ldi r20,0
 933 0036 50E0      		ldi r21,0
 934 0038 BA01      		movw r22,r20
 935 003a 00C0      		rjmp .L67
 936               	.L68:
 937 003c 40E4      		ldi r20,lo8(64)
 938 003e 50E0      		ldi r21,0
 939 0040 60E0      		ldi r22,0
 940 0042 70E0      		ldi r23,0
 941               	.L67:
 942 0044 402B      		or r20,r16
 943 0046 512B      		or r21,r17
 944 0048 622B      		or r22,r18
 945 004a 732B      		or r23,r19
 946 004c FC01      		movw r30,r24
 947 004e 4083      		st Z,r20
 948 0050 5183      		std Z+1,r21
 949 0052 6283      		std Z+2,r22
 950 0054 7383      		std Z+3,r23
 951               	/* epilogue start */
 952 0056 1F91      		pop r17
 953 0058 0F91      		pop r16
 954 005a 0895      		ret
 955               		.size	invertjump.isra.3, .-invertjump.isra.3
 956               		.section	.text.luaK_getlabel,"ax",@progbits
 957               	.global	luaK_getlabel
GAS LISTING /tmp/ccIJIBIx.s 			page 18


 958               		.hidden	luaK_getlabel
 959               		.type	luaK_getlabel, @function
 960               	luaK_getlabel:
 961               	/* prologue: function */
 962               	/* frame size = 0 */
 963               	/* stack size = 0 */
 964               	.L__stack_usage = 0
 965 0000 FC01      		movw r30,r24
 966 0002 8485      		ldd r24,Z+12
 967 0004 9585      		ldd r25,Z+13
 968 0006 9787      		std Z+15,r25
 969 0008 8687      		std Z+14,r24
 970 000a 0895      		ret
 971               		.size	luaK_getlabel, .-luaK_getlabel
 972               		.section	.text.luaK_concat,"ax",@progbits
 973               	.global	luaK_concat
 974               		.hidden	luaK_concat
 975               		.type	luaK_concat, @function
 976               	luaK_concat:
 977 0000 CF92      		push r12
 978 0002 DF92      		push r13
 979 0004 EF92      		push r14
 980 0006 FF92      		push r15
 981 0008 0F93      		push r16
 982 000a 1F93      		push r17
 983 000c CF93      		push r28
 984 000e DF93      		push r29
 985 0010 1F92      		push __zero_reg__
 986 0012 1F92      		push __zero_reg__
 987 0014 CDB7      		in r28,__SP_L__
 988 0016 DEB7      		in r29,__SP_H__
 989               	/* prologue: function */
 990               	/* frame size = 2 */
 991               	/* stack size = 10 */
 992               	.L__stack_usage = 10
 993 0018 8C01      		movw r16,r24
 994 001a 4F3F      		cpi r20,-1
 995 001c 2FEF      		ldi r18,-1
 996 001e 5207      		cpc r21,r18
 997 0020 01F0      		breq .L70
 998 0022 FB01      		movw r30,r22
 999 0024 C080      		ld r12,Z
 1000 0026 D180      		ldd r13,Z+1
 1001 0028 FFEF      		ldi r31,-1
 1002 002a CF16      		cp r12,r31
 1003 002c DF06      		cpc r13,r31
 1004 002e 01F4      		brne .L72
 1005 0030 FB01      		movw r30,r22
 1006 0032 5183      		std Z+1,r21
 1007 0034 4083      		st Z,r20
 1008 0036 00C0      		rjmp .L70
 1009               	.L72:
 1010 0038 FC01      		movw r30,r24
 1011 003a E080      		ld r14,Z
 1012 003c F180      		ldd r15,Z+1
 1013               	.L73:
 1014 003e B601      		movw r22,r12
GAS LISTING /tmp/ccIJIBIx.s 			page 19


 1015 0040 C701      		movw r24,r14
 1016 0042 4983      		std Y+1,r20
 1017 0044 5A83      		std Y+2,r21
 1018 0046 0E94 0000 		call getjump.isra.0
 1019 004a 4981      		ldd r20,Y+1
 1020 004c 5A81      		ldd r21,Y+2
 1021 004e 8F3F      		cpi r24,-1
 1022 0050 FFEF      		ldi r31,-1
 1023 0052 9F07      		cpc r25,r31
 1024 0054 01F0      		breq .L78
 1025 0056 6C01      		movw r12,r24
 1026 0058 00C0      		rjmp .L73
 1027               	.L78:
 1028 005a B601      		movw r22,r12
 1029 005c C801      		movw r24,r16
 1030               	/* epilogue start */
 1031 005e 0F90      		pop __tmp_reg__
 1032 0060 0F90      		pop __tmp_reg__
 1033 0062 DF91      		pop r29
 1034 0064 CF91      		pop r28
 1035 0066 1F91      		pop r17
 1036 0068 0F91      		pop r16
 1037 006a FF90      		pop r15
 1038 006c EF90      		pop r14
 1039 006e DF90      		pop r13
 1040 0070 CF90      		pop r12
 1041 0072 0C94 0000 		jmp fixjump
 1042               	.L70:
 1043               	/* epilogue start */
 1044 0076 0F90      		pop __tmp_reg__
 1045 0078 0F90      		pop __tmp_reg__
 1046 007a DF91      		pop r29
 1047 007c CF91      		pop r28
 1048 007e 1F91      		pop r17
 1049 0080 0F91      		pop r16
 1050 0082 FF90      		pop r15
 1051 0084 EF90      		pop r14
 1052 0086 DF90      		pop r13
 1053 0088 CF90      		pop r12
 1054 008a 0895      		ret
 1055               		.size	luaK_concat, .-luaK_concat
 1056               		.section	.text.luaK_patchtohere,"ax",@progbits
 1057               	.global	luaK_patchtohere
 1058               		.hidden	luaK_patchtohere
 1059               		.type	luaK_patchtohere, @function
 1060               	luaK_patchtohere:
 1061               	/* prologue: function */
 1062               	/* frame size = 0 */
 1063               	/* stack size = 0 */
 1064               	.L__stack_usage = 0
 1065 0000 AB01      		movw r20,r22
 1066 0002 FC01      		movw r30,r24
 1067 0004 2485      		ldd r18,Z+12
 1068 0006 3585      		ldd r19,Z+13
 1069 0008 3787      		std Z+15,r19
 1070 000a 2687      		std Z+14,r18
 1071 000c BC01      		movw r22,r24
GAS LISTING /tmp/ccIJIBIx.s 			page 20


 1072 000e 605F      		subi r22,-16
 1073 0010 7F4F      		sbci r23,-1
 1074 0012 0C94 0000 		jmp luaK_concat
 1075               		.size	luaK_patchtohere, .-luaK_patchtohere
 1076               		.section	.text.luaK_patchlist,"ax",@progbits
 1077               	.global	luaK_patchlist
 1078               		.hidden	luaK_patchlist
 1079               		.type	luaK_patchlist, @function
 1080               	luaK_patchlist:
 1081 0000 0F93      		push r16
 1082 0002 1F93      		push r17
 1083               	/* prologue: function */
 1084               	/* frame size = 0 */
 1085               	/* stack size = 2 */
 1086               	.L__stack_usage = 2
 1087 0004 FC01      		movw r30,r24
 1088 0006 2485      		ldd r18,Z+12
 1089 0008 3585      		ldd r19,Z+13
 1090 000a 2417      		cp r18,r20
 1091 000c 3507      		cpc r19,r21
 1092 000e 01F4      		brne .L81
 1093               	/* epilogue start */
 1094 0010 1F91      		pop r17
 1095 0012 0F91      		pop r16
 1096 0014 0C94 0000 		jmp luaK_patchtohere
 1097               	.L81:
 1098 0018 8A01      		movw r16,r20
 1099 001a 2FEF      		ldi r18,lo8(-1)
 1100 001c 30E0      		ldi r19,0
 1101 001e 0E94 0000 		call patchlistaux
 1102               	/* epilogue start */
 1103 0022 1F91      		pop r17
 1104 0024 0F91      		pop r16
 1105 0026 0895      		ret
 1106               		.size	luaK_patchlist, .-luaK_patchlist
 1107               		.section	.rodata.str1.1
 1108               	.LC3:
 1109 0046 6675 6E63 		.string	"function or expression too complex"
 1109      7469 6F6E 
 1109      206F 7220 
 1109      6578 7072 
 1109      6573 7369 
 1110               		.section	.text.luaK_checkstack,"ax",@progbits
 1111               	.global	luaK_checkstack
 1112               		.hidden	luaK_checkstack
 1113               		.type	luaK_checkstack, @function
 1114               	luaK_checkstack:
 1115 0000 0F93      		push r16
 1116 0002 1F93      		push r17
 1117 0004 CF93      		push r28
 1118 0006 DF93      		push r29
 1119               	/* prologue: function */
 1120               	/* frame size = 0 */
 1121               	/* stack size = 4 */
 1122               	.L__stack_usage = 4
 1123 0008 8C01      		movw r16,r24
 1124 000a DC01      		movw r26,r24
GAS LISTING /tmp/ccIJIBIx.s 			page 21


 1125 000c 5296      		adiw r26,18
 1126 000e 8D91      		ld r24,X+
 1127 0010 9C91      		ld r25,X
 1128 0012 5397      		sbiw r26,18+1
 1129 0014 EB01      		movw r28,r22
 1130 0016 C80F      		add r28,r24
 1131 0018 D91F      		adc r29,r25
 1132 001a ED91      		ld r30,X+
 1133 001c FC91      		ld r31,X
 1134 001e 1197      		sbiw r26,1
 1135 0020 87A1      		ldd r24,Z+39
 1136 0022 90E0      		ldi r25,0
 1137 0024 8C17      		cp r24,r28
 1138 0026 9D07      		cpc r25,r29
 1139 0028 04F4      		brge .L82
 1140 002a CA3F      		cpi r28,-6
 1141 002c D105      		cpc r29,__zero_reg__
 1142 002e 04F0      		brlt .L84
 1143 0030 60E0      		ldi r22,lo8(.LC3)
 1144 0032 70E0      		ldi r23,hi8(.LC3)
 1145 0034 1696      		adiw r26,6
 1146 0036 8D91      		ld r24,X+
 1147 0038 9C91      		ld r25,X
 1148 003a 1797      		sbiw r26,6+1
 1149 003c 0E94 0000 		call luaX_syntaxerror
 1150               	.L84:
 1151 0040 D801      		movw r26,r16
 1152 0042 ED91      		ld r30,X+
 1153 0044 FC91      		ld r31,X
 1154 0046 C7A3      		std Z+39,r28
 1155               	.L82:
 1156               	/* epilogue start */
 1157 0048 DF91      		pop r29
 1158 004a CF91      		pop r28
 1159 004c 1F91      		pop r17
 1160 004e 0F91      		pop r16
 1161 0050 0895      		ret
 1162               		.size	luaK_checkstack, .-luaK_checkstack
 1163               		.section	.text.luaK_reserveregs,"ax",@progbits
 1164               	.global	luaK_reserveregs
 1165               		.hidden	luaK_reserveregs
 1166               		.type	luaK_reserveregs, @function
 1167               	luaK_reserveregs:
 1168 0000 0F93      		push r16
 1169 0002 1F93      		push r17
 1170 0004 CF93      		push r28
 1171 0006 DF93      		push r29
 1172               	/* prologue: function */
 1173               	/* frame size = 0 */
 1174               	/* stack size = 4 */
 1175               	.L__stack_usage = 4
 1176 0008 8C01      		movw r16,r24
 1177 000a EB01      		movw r28,r22
 1178 000c 0E94 0000 		call luaK_checkstack
 1179 0010 F801      		movw r30,r16
 1180 0012 8289      		ldd r24,Z+18
 1181 0014 9389      		ldd r25,Z+19
GAS LISTING /tmp/ccIJIBIx.s 			page 22


 1182 0016 C80F      		add r28,r24
 1183 0018 D91F      		adc r29,r25
 1184 001a D38B      		std Z+19,r29
 1185 001c C28B      		std Z+18,r28
 1186               	/* epilogue start */
 1187 001e DF91      		pop r29
 1188 0020 CF91      		pop r28
 1189 0022 1F91      		pop r17
 1190 0024 0F91      		pop r16
 1191 0026 0895      		ret
 1192               		.size	luaK_reserveregs, .-luaK_reserveregs
 1193               		.section	.text.luaK_stringK,"ax",@progbits
 1194               	.global	luaK_stringK
 1195               		.hidden	luaK_stringK
 1196               		.type	luaK_stringK, @function
 1197               	luaK_stringK:
 1198 0000 CF93      		push r28
 1199 0002 DF93      		push r29
 1200 0004 00D0      		rcall .
 1201 0006 00D0      		rcall .
 1202 0008 CDB7      		in r28,__SP_L__
 1203 000a DEB7      		in r29,__SP_H__
 1204               	/* prologue: function */
 1205               	/* frame size = 6 */
 1206               	/* stack size = 8 */
 1207               	.L__stack_usage = 8
 1208 000c 7A83      		std Y+2,r23
 1209 000e 6983      		std Y+1,r22
 1210 0010 26E0      		ldi r18,lo8(6)
 1211 0012 30E0      		ldi r19,0
 1212 0014 3E83      		std Y+6,r19
 1213 0016 2D83      		std Y+5,r18
 1214 0018 AE01      		movw r20,r28
 1215 001a 4F5F      		subi r20,-1
 1216 001c 5F4F      		sbci r21,-1
 1217 001e BA01      		movw r22,r20
 1218 0020 0E94 0000 		call addk
 1219               	/* epilogue start */
 1220 0024 2696      		adiw r28,6
 1221 0026 0FB6      		in __tmp_reg__,__SREG__
 1222 0028 F894      		cli
 1223 002a DEBF      		out __SP_H__,r29
 1224 002c 0FBE      		out __SREG__,__tmp_reg__
 1225 002e CDBF      		out __SP_L__,r28
 1226 0030 DF91      		pop r29
 1227 0032 CF91      		pop r28
 1228 0034 0895      		ret
 1229               		.size	luaK_stringK, .-luaK_stringK
 1230               		.section	.text.luaK_numberK,"ax",@progbits
 1231               	.global	luaK_numberK
 1232               		.hidden	luaK_numberK
 1233               		.type	luaK_numberK, @function
 1234               	luaK_numberK:
 1235 0000 CF93      		push r28
 1236 0002 DF93      		push r29
 1237 0004 00D0      		rcall .
 1238 0006 00D0      		rcall .
GAS LISTING /tmp/ccIJIBIx.s 			page 23


 1239 0008 CDB7      		in r28,__SP_L__
 1240 000a DEB7      		in r29,__SP_H__
 1241               	/* prologue: function */
 1242               	/* frame size = 6 */
 1243               	/* stack size = 8 */
 1244               	.L__stack_usage = 8
 1245 000c 4983      		std Y+1,r20
 1246 000e 5A83      		std Y+2,r21
 1247 0010 6B83      		std Y+3,r22
 1248 0012 7C83      		std Y+4,r23
 1249 0014 25E0      		ldi r18,lo8(5)
 1250 0016 30E0      		ldi r19,0
 1251 0018 3E83      		std Y+6,r19
 1252 001a 2D83      		std Y+5,r18
 1253 001c AE01      		movw r20,r28
 1254 001e 4F5F      		subi r20,-1
 1255 0020 5F4F      		sbci r21,-1
 1256 0022 BA01      		movw r22,r20
 1257 0024 0E94 0000 		call addk
 1258               	/* epilogue start */
 1259 0028 2696      		adiw r28,6
 1260 002a 0FB6      		in __tmp_reg__,__SREG__
 1261 002c F894      		cli
 1262 002e DEBF      		out __SP_H__,r29
 1263 0030 0FBE      		out __SREG__,__tmp_reg__
 1264 0032 CDBF      		out __SP_L__,r28
 1265 0034 DF91      		pop r29
 1266 0036 CF91      		pop r28
 1267 0038 0895      		ret
 1268               		.size	luaK_numberK, .-luaK_numberK
 1269               		.section	.text.luaK_setreturns,"ax",@progbits
 1270               	.global	luaK_setreturns
 1271               		.hidden	luaK_setreturns
 1272               		.type	luaK_setreturns, @function
 1273               	luaK_setreturns:
 1274 0000 CF92      		push r12
 1275 0002 DF92      		push r13
 1276 0004 EF92      		push r14
 1277 0006 FF92      		push r15
 1278 0008 0F93      		push r16
 1279 000a 1F93      		push r17
 1280 000c CF93      		push r28
 1281 000e DF93      		push r29
 1282               	/* prologue: function */
 1283               	/* frame size = 0 */
 1284               	/* stack size = 8 */
 1285               	.L__stack_usage = 8
 1286 0010 DB01      		movw r26,r22
 1287 0012 2D91      		ld r18,X+
 1288 0014 3C91      		ld r19,X
 1289 0016 1197      		sbiw r26,1
 1290 0018 2D30      		cpi r18,13
 1291 001a 3105      		cpc r19,__zero_reg__
 1292 001c 01F4      		brne .L89
 1293 001e FC01      		movw r30,r24
 1294 0020 C081      		ld r28,Z
 1295 0022 D181      		ldd r29,Z+1
GAS LISTING /tmp/ccIJIBIx.s 			page 24


 1296 0024 1296      		adiw r26,2
 1297 0026 ED91      		ld r30,X+
 1298 0028 FC91      		ld r31,X
 1299 002a 1397      		sbiw r26,2+1
 1300 002c EE0F      		lsl r30
 1301 002e FF1F      		rol r31
 1302 0030 EE0F      		lsl r30
 1303 0032 FF1F      		rol r31
 1304 0034 8E81      		ldd r24,Y+6
 1305 0036 9F81      		ldd r25,Y+7
 1306 0038 E80F      		add r30,r24
 1307 003a F91F      		adc r31,r25
 1308 003c 4F5F      		subi r20,-1
 1309 003e 5F4F      		sbci r21,-1
 1310 0040 052E      		mov __tmp_reg__,r21
 1311 0042 000C      		lsl r0
 1312 0044 660B      		sbc r22,r22
 1313 0046 770B      		sbc r23,r23
 1314 0048 AEE0      		ldi r26,14
 1315               		1:
 1316 004a 440F      		lsl r20
 1317 004c 551F      		rol r21
 1318 004e 661F      		rol r22
 1319 0050 771F      		rol r23
 1320 0052 AA95      		dec r26
 1321 0054 01F4      		brne 1b
 1322 0056 4427      		clr r20
 1323 0058 507C      		andi r21,192
 1324 005a 6F77      		andi r22,127
 1325 005c 7727      		clr r23
 1326 005e 8081      		ld r24,Z
 1327 0060 9181      		ldd r25,Z+1
 1328 0062 A281      		ldd r26,Z+2
 1329 0064 B381      		ldd r27,Z+3
 1330 0066 9F73      		andi r25,63
 1331 0068 A078      		andi r26,128
 1332 006a 482B      		or r20,r24
 1333 006c 592B      		or r21,r25
 1334 006e 6A2B      		or r22,r26
 1335 0070 7B2B      		or r23,r27
 1336 0072 4083      		st Z,r20
 1337 0074 5183      		std Z+1,r21
 1338 0076 6283      		std Z+2,r22
 1339 0078 7383      		std Z+3,r23
 1340 007a 00C0      		rjmp .L88
 1341               	.L89:
 1342 007c 2E30      		cpi r18,14
 1343 007e 3105      		cpc r19,__zero_reg__
 1344 0080 01F0      		breq .+2
 1345 0082 00C0      		rjmp .L88
 1346 0084 EC01      		movw r28,r24
 1347 0086 E881      		ld r30,Y
 1348 0088 F981      		ldd r31,Y+1
 1349 008a 2681      		ldd r18,Z+6
 1350 008c 3781      		ldd r19,Z+7
 1351 008e 1296      		adiw r26,2
 1352 0090 ED91      		ld r30,X+
GAS LISTING /tmp/ccIJIBIx.s 			page 25


 1353 0092 FC91      		ld r31,X
 1354 0094 1397      		sbiw r26,2+1
 1355 0096 EE0F      		lsl r30
 1356 0098 FF1F      		rol r31
 1357 009a EE0F      		lsl r30
 1358 009c FF1F      		rol r31
 1359 009e E20F      		add r30,r18
 1360 00a0 F31F      		adc r31,r19
 1361 00a2 C080      		ld r12,Z
 1362 00a4 D180      		ldd r13,Z+1
 1363 00a6 E280      		ldd r14,Z+2
 1364 00a8 F380      		ldd r15,Z+3
 1365 00aa E894      		clt
 1366 00ac E7F8      		bld r14,7
 1367 00ae FF24      		clr r15
 1368 00b0 4F5F      		subi r20,-1
 1369 00b2 5F4F      		sbci r21,-1
 1370 00b4 052E      		mov __tmp_reg__,r21
 1371 00b6 000C      		lsl r0
 1372 00b8 660B      		sbc r22,r22
 1373 00ba 770B      		sbc r23,r23
 1374 00bc 17E1      		ldi r17,23
 1375               		1:
 1376 00be 440F      		lsl r20
 1377 00c0 551F      		rol r21
 1378 00c2 661F      		rol r22
 1379 00c4 771F      		rol r23
 1380 00c6 1A95      		dec r17
 1381 00c8 01F4      		brne 1b
 1382 00ca 4C29      		or r20,r12
 1383 00cc 5D29      		or r21,r13
 1384 00ce 6E29      		or r22,r14
 1385 00d0 7F29      		or r23,r15
 1386 00d2 4083      		st Z,r20
 1387 00d4 5183      		std Z+1,r21
 1388 00d6 6283      		std Z+2,r22
 1389 00d8 7383      		std Z+3,r23
 1390 00da 1296      		adiw r26,2
 1391 00dc ED91      		ld r30,X+
 1392 00de FC91      		ld r31,X
 1393 00e0 1397      		sbiw r26,2+1
 1394 00e2 EE0F      		lsl r30
 1395 00e4 FF1F      		rol r31
 1396 00e6 EE0F      		lsl r30
 1397 00e8 FF1F      		rol r31
 1398 00ea E20F      		add r30,r18
 1399 00ec F31F      		adc r31,r19
 1400 00ee 4A89      		ldd r20,Y+18
 1401 00f0 5B89      		ldd r21,Y+19
 1402 00f2 052E      		mov __tmp_reg__,r21
 1403 00f4 000C      		lsl r0
 1404 00f6 660B      		sbc r22,r22
 1405 00f8 770B      		sbc r23,r23
 1406 00fa 26E0      		ldi r18,6
 1407               		1:
 1408 00fc 440F      		lsl r20
 1409 00fe 551F      		rol r21
GAS LISTING /tmp/ccIJIBIx.s 			page 26


 1410 0100 661F      		rol r22
 1411 0102 771F      		rol r23
 1412 0104 2A95      		dec r18
 1413 0106 01F4      		brne 1b
 1414 0108 407C      		andi r20,192
 1415 010a 5F73      		andi r21,63
 1416 010c 6627      		clr r22
 1417 010e 7727      		clr r23
 1418 0110 0081      		ld r16,Z
 1419 0112 1181      		ldd r17,Z+1
 1420 0114 2281      		ldd r18,Z+2
 1421 0116 3381      		ldd r19,Z+3
 1422 0118 0F73      		andi r16,63
 1423 011a 107C      		andi r17,192
 1424 011c 402B      		or r20,r16
 1425 011e 512B      		or r21,r17
 1426 0120 622B      		or r22,r18
 1427 0122 732B      		or r23,r19
 1428 0124 4083      		st Z,r20
 1429 0126 5183      		std Z+1,r21
 1430 0128 6283      		std Z+2,r22
 1431 012a 7383      		std Z+3,r23
 1432 012c 61E0      		ldi r22,lo8(1)
 1433 012e 70E0      		ldi r23,0
 1434               	/* epilogue start */
 1435 0130 DF91      		pop r29
 1436 0132 CF91      		pop r28
 1437 0134 1F91      		pop r17
 1438 0136 0F91      		pop r16
 1439 0138 FF90      		pop r15
 1440 013a EF90      		pop r14
 1441 013c DF90      		pop r13
 1442 013e CF90      		pop r12
 1443 0140 0C94 0000 		jmp luaK_reserveregs
 1444               	.L88:
 1445               	/* epilogue start */
 1446 0144 DF91      		pop r29
 1447 0146 CF91      		pop r28
 1448 0148 1F91      		pop r17
 1449 014a 0F91      		pop r16
 1450 014c FF90      		pop r15
 1451 014e EF90      		pop r14
 1452 0150 DF90      		pop r13
 1453 0152 CF90      		pop r12
 1454 0154 0895      		ret
 1455               		.size	luaK_setreturns, .-luaK_setreturns
 1456               		.section	.text.luaK_setoneret,"ax",@progbits
 1457               	.global	luaK_setoneret
 1458               		.hidden	luaK_setoneret
 1459               		.type	luaK_setoneret, @function
 1460               	luaK_setoneret:
 1461 0000 CF93      		push r28
 1462 0002 DF93      		push r29
 1463               	/* prologue: function */
 1464               	/* frame size = 0 */
 1465               	/* stack size = 2 */
 1466               	.L__stack_usage = 2
GAS LISTING /tmp/ccIJIBIx.s 			page 27


 1467 0004 FB01      		movw r30,r22
 1468 0006 2081      		ld r18,Z
 1469 0008 3181      		ldd r19,Z+1
 1470 000a 2D30      		cpi r18,13
 1471 000c 3105      		cpc r19,__zero_reg__
 1472 000e 01F4      		brne .L92
 1473 0010 2CE0      		ldi r18,lo8(12)
 1474 0012 30E0      		ldi r19,0
 1475 0014 3183      		std Z+1,r19
 1476 0016 2083      		st Z,r18
 1477 0018 DC01      		movw r26,r24
 1478 001a CD91      		ld r28,X+
 1479 001c DC91      		ld r29,X
 1480 001e A281      		ldd r26,Z+2
 1481 0020 B381      		ldd r27,Z+3
 1482 0022 AA0F      		lsl r26
 1483 0024 BB1F      		rol r27
 1484 0026 AA0F      		lsl r26
 1485 0028 BB1F      		rol r27
 1486 002a 8E81      		ldd r24,Y+6
 1487 002c 9F81      		ldd r25,Y+7
 1488 002e A80F      		add r26,r24
 1489 0030 B91F      		adc r27,r25
 1490 0032 8D91      		ld r24,X+
 1491 0034 9D91      		ld r25,X+
 1492 0036 0D90      		ld __tmp_reg__,X+
 1493 0038 BC91      		ld r27,X
 1494 003a A02D      		mov r26,__tmp_reg__
 1495 003c 26E0      		ldi r18,6
 1496               		1:
 1497 003e B695      		lsr r27
 1498 0040 A795      		ror r26
 1499 0042 9795      		ror r25
 1500 0044 8795      		ror r24
 1501 0046 2A95      		dec r18
 1502 0048 01F4      		brne 1b
 1503 004a 9927      		clr r25
 1504 004c 9383      		std Z+3,r25
 1505 004e 8283      		std Z+2,r24
 1506 0050 00C0      		rjmp .L91
 1507               	.L92:
 1508 0052 2E30      		cpi r18,14
 1509 0054 3105      		cpc r19,__zero_reg__
 1510 0056 01F4      		brne .L91
 1511 0058 DC01      		movw r26,r24
 1512 005a CD91      		ld r28,X+
 1513 005c DC91      		ld r29,X
 1514 005e A281      		ldd r26,Z+2
 1515 0060 B381      		ldd r27,Z+3
 1516 0062 AA0F      		lsl r26
 1517 0064 BB1F      		rol r27
 1518 0066 AA0F      		lsl r26
 1519 0068 BB1F      		rol r27
 1520 006a 8E81      		ldd r24,Y+6
 1521 006c 9F81      		ldd r25,Y+7
 1522 006e A80F      		add r26,r24
 1523 0070 B91F      		adc r27,r25
GAS LISTING /tmp/ccIJIBIx.s 			page 28


 1524 0072 4D91      		ld r20,X+
 1525 0074 5D91      		ld r21,X+
 1526 0076 6D91      		ld r22,X+
 1527 0078 7C91      		ld r23,X
 1528 007a 1397      		sbiw r26,3
 1529 007c 6F77      		andi r22,127
 1530 007e 7727      		clr r23
 1531 0080 7160      		ori r23,1
 1532 0082 4D93      		st X+,r20
 1533 0084 5D93      		st X+,r21
 1534 0086 6D93      		st X+,r22
 1535 0088 7C93      		st X,r23
 1536 008a 1397      		sbiw r26,3
 1537 008c 8BE0      		ldi r24,lo8(11)
 1538 008e 90E0      		ldi r25,0
 1539 0090 9183      		std Z+1,r25
 1540 0092 8083      		st Z,r24
 1541               	.L91:
 1542               	/* epilogue start */
 1543 0094 DF91      		pop r29
 1544 0096 CF91      		pop r28
 1545 0098 0895      		ret
 1546               		.size	luaK_setoneret, .-luaK_setoneret
 1547               		.section	.text.luaK_fixline,"ax",@progbits
 1548               	.global	luaK_fixline
 1549               		.hidden	luaK_fixline
 1550               		.type	luaK_fixline, @function
 1551               	luaK_fixline:
 1552 0000 CF93      		push r28
 1553 0002 DF93      		push r29
 1554               	/* prologue: function */
 1555               	/* frame size = 0 */
 1556               	/* stack size = 2 */
 1557               	.L__stack_usage = 2
 1558 0004 EC01      		movw r28,r24
 1559 0006 A881      		ld r26,Y
 1560 0008 B981      		ldd r27,Y+1
 1561 000a EC85      		ldd r30,Y+12
 1562 000c FD85      		ldd r31,Y+13
 1563 000e E150      		subi r30,1
 1564 0010 F048      		sbci r31,-128
 1565 0012 EE0F      		lsl r30
 1566 0014 FF1F      		rol r31
 1567 0016 1A96      		adiw r26,10
 1568 0018 8D91      		ld r24,X+
 1569 001a 9C91      		ld r25,X
 1570 001c 1B97      		sbiw r26,10+1
 1571 001e E80F      		add r30,r24
 1572 0020 F91F      		adc r31,r25
 1573 0022 7183      		std Z+1,r23
 1574 0024 6083      		st Z,r22
 1575               	/* epilogue start */
 1576 0026 DF91      		pop r29
 1577 0028 CF91      		pop r28
 1578 002a 0895      		ret
 1579               		.size	luaK_fixline, .-luaK_fixline
 1580               		.section	.text.luaK_codeABC,"ax",@progbits
GAS LISTING /tmp/ccIJIBIx.s 			page 29


 1581               	.global	luaK_codeABC
 1582               		.hidden	luaK_codeABC
 1583               		.type	luaK_codeABC, @function
 1584               	luaK_codeABC:
 1585 0000 CF92      		push r12
 1586 0002 DF92      		push r13
 1587 0004 EF92      		push r14
 1588 0006 FF92      		push r15
 1589 0008 0F93      		push r16
 1590 000a 1F93      		push r17
 1591               	/* prologue: function */
 1592               	/* frame size = 0 */
 1593               	/* stack size = 6 */
 1594               	.L__stack_usage = 6
 1595 000c DC01      		movw r26,r24
 1596 000e 1696      		adiw r26,6
 1597 0010 ED91      		ld r30,X+
 1598 0012 FC91      		ld r31,X
 1599 0014 1797      		sbiw r26,6+1
 1600 0016 0480      		ldd __tmp_reg__,Z+4
 1601 0018 F581      		ldd r31,Z+5
 1602 001a E02D      		mov r30,__tmp_reg__
 1603 001c 6901      		movw r12,r18
 1604 001e 330F      		lsl r19
 1605 0020 EE08      		sbc r14,r14
 1606 0022 FF08      		sbc r15,r15
 1607 0024 27E1      		ldi r18,23
 1608               		1:
 1609 0026 CC0C      		lsl r12
 1610 0028 DD1C      		rol r13
 1611 002a EE1C      		rol r14
 1612 002c FF1C      		rol r15
 1613 002e 2A95      		dec r18
 1614 0030 01F4      		brne 1b
 1615 0032 012E      		mov __tmp_reg__,r17
 1616 0034 000C      		lsl r0
 1617 0036 220B      		sbc r18,r18
 1618 0038 330B      		sbc r19,r19
 1619 003a AEE0      		ldi r26,14
 1620               		1:
 1621 003c 000F      		lsl r16
 1622 003e 111F      		rol r17
 1623 0040 221F      		rol r18
 1624 0042 331F      		rol r19
 1625 0044 AA95      		dec r26
 1626 0046 01F4      		brne 1b
 1627 0048 0C29      		or r16,r12
 1628 004a 1D29      		or r17,r13
 1629 004c 2E29      		or r18,r14
 1630 004e 3F29      		or r19,r15
 1631 0050 6B01      		movw r12,r22
 1632 0052 E12C      		mov r14,__zero_reg__
 1633 0054 F12C      		mov r15,__zero_reg__
 1634 0056 0C29      		or r16,r12
 1635 0058 1D29      		or r17,r13
 1636 005a 2E29      		or r18,r14
 1637 005c 3F29      		or r19,r15
GAS LISTING /tmp/ccIJIBIx.s 			page 30


 1638 005e 052E      		mov __tmp_reg__,r21
 1639 0060 000C      		lsl r0
 1640 0062 660B      		sbc r22,r22
 1641 0064 770B      		sbc r23,r23
 1642 0066 B6E0      		ldi r27,6
 1643               		1:
 1644 0068 440F      		lsl r20
 1645 006a 551F      		rol r21
 1646 006c 661F      		rol r22
 1647 006e 771F      		rol r23
 1648 0070 BA95      		dec r27
 1649 0072 01F4      		brne 1b
 1650 0074 402B      		or r20,r16
 1651 0076 512B      		or r21,r17
 1652 0078 622B      		or r22,r18
 1653 007a 732B      		or r23,r19
 1654 007c 9F01      		movw r18,r30
 1655               	/* epilogue start */
 1656 007e 1F91      		pop r17
 1657 0080 0F91      		pop r16
 1658 0082 FF90      		pop r15
 1659 0084 EF90      		pop r14
 1660 0086 DF90      		pop r13
 1661 0088 CF90      		pop r12
 1662 008a 0C94 0000 		jmp luaK_code
 1663               		.size	luaK_codeABC, .-luaK_codeABC
 1664               		.section	.text.luaK_nil,"ax",@progbits
 1665               	.global	luaK_nil
 1666               		.hidden	luaK_nil
 1667               		.type	luaK_nil, @function
 1668               	luaK_nil:
 1669 0000 8F92      		push r8
 1670 0002 9F92      		push r9
 1671 0004 AF92      		push r10
 1672 0006 BF92      		push r11
 1673 0008 CF92      		push r12
 1674 000a DF92      		push r13
 1675 000c EF92      		push r14
 1676 000e FF92      		push r15
 1677 0010 0F93      		push r16
 1678 0012 1F93      		push r17
 1679 0014 CF93      		push r28
 1680 0016 DF93      		push r29
 1681               	/* prologue: function */
 1682               	/* frame size = 0 */
 1683               	/* stack size = 12 */
 1684               	.L__stack_usage = 12
 1685 0018 9A01      		movw r18,r20
 1686 001a DC01      		movw r26,r24
 1687 001c 1C96      		adiw r26,12
 1688 001e ED91      		ld r30,X+
 1689 0020 FC91      		ld r31,X
 1690 0022 1D97      		sbiw r26,12+1
 1691 0024 1E96      		adiw r26,14
 1692 0026 4D91      		ld r20,X+
 1693 0028 5C91      		ld r21,X
 1694 002a 1F97      		sbiw r26,14+1
GAS LISTING /tmp/ccIJIBIx.s 			page 31


 1695 002c 4E17      		cp r20,r30
 1696 002e 5F07      		cpc r21,r31
 1697 0030 04F0      		brlt .+2
 1698 0032 00C0      		rjmp .L97
 1699 0034 3097      		sbiw r30,0
 1700 0036 01F4      		brne .L98
 1701 0038 5A96      		adiw r26,26
 1702 003a 4C91      		ld r20,X
 1703 003c 50E0      		ldi r21,0
 1704 003e 6417      		cp r22,r20
 1705 0040 7507      		cpc r23,r21
 1706 0042 04F4      		brge .+2
 1707 0044 00C0      		rjmp .L97
 1708 0046 00C0      		rjmp .L96
 1709               	.L98:
 1710 0048 EC01      		movw r28,r24
 1711 004a A881      		ld r26,Y
 1712 004c B981      		ldd r27,Y+1
 1713 004e E150      		subi r30,1
 1714 0050 F04C      		sbci r31,-64
 1715 0052 EE0F      		lsl r30
 1716 0054 FF1F      		rol r31
 1717 0056 EE0F      		lsl r30
 1718 0058 FF1F      		rol r31
 1719 005a 1696      		adiw r26,6
 1720 005c 4D91      		ld r20,X+
 1721 005e 5C91      		ld r21,X
 1722 0060 1797      		sbiw r26,6+1
 1723 0062 E40F      		add r30,r20
 1724 0064 F51F      		adc r31,r21
 1725 0066 C080      		ld r12,Z
 1726 0068 D180      		ldd r13,Z+1
 1727 006a E280      		ldd r14,Z+2
 1728 006c F380      		ldd r15,Z+3
 1729 006e A601      		movw r20,r12
 1730 0070 4F73      		andi r20,63
 1731 0072 5527      		clr r21
 1732 0074 4330      		cpi r20,3
 1733 0076 5105      		cpc r21,__zero_reg__
 1734 0078 01F4      		brne .L97
 1735 007a 4601      		movw r8,r12
 1736 007c 5701      		movw r10,r14
 1737 007e 56E0      		ldi r21,6
 1738               		1:
 1739 0080 B694      		lsr r11
 1740 0082 A794      		ror r10
 1741 0084 9794      		ror r9
 1742 0086 8794      		ror r8
 1743 0088 5A95      		dec r21
 1744 008a 01F4      		brne 1b
 1745 008c 9924      		clr r9
 1746 008e 6815      		cp r22,r8
 1747 0090 7905      		cpc r23,r9
 1748 0092 04F0      		brlt .L97
 1749 0094 4601      		movw r8,r12
 1750 0096 5701      		movw r10,r14
 1751 0098 47E1      		ldi r20,23
GAS LISTING /tmp/ccIJIBIx.s 			page 32


 1752               		1:
 1753 009a B694      		lsr r11
 1754 009c A794      		ror r10
 1755 009e 9794      		ror r9
 1756 00a0 8794      		ror r8
 1757 00a2 4A95      		dec r20
 1758 00a4 01F4      		brne 1b
 1759 00a6 D401      		movw r26,r8
 1760 00a8 DFEF      		ldi r29,-1
 1761 00aa 8D1A      		sub r8,r29
 1762 00ac 9D0A      		sbc r9,r29
 1763 00ae 8616      		cp r8,r22
 1764 00b0 9706      		cpc r9,r23
 1765 00b2 04F0      		brlt .L97
 1766 00b4 260F      		add r18,r22
 1767 00b6 371F      		adc r19,r23
 1768 00b8 A901      		movw r20,r18
 1769 00ba 4150      		subi r20,1
 1770 00bc 5109      		sbc r21,__zero_reg__
 1771 00be A417      		cp r26,r20
 1772 00c0 B507      		cpc r27,r21
 1773 00c2 04F4      		brge .L96
 1774 00c4 E894      		clt
 1775 00c6 E7F8      		bld r14,7
 1776 00c8 FF24      		clr r15
 1777 00ca 052E      		mov __tmp_reg__,r21
 1778 00cc 000C      		lsl r0
 1779 00ce 660B      		sbc r22,r22
 1780 00d0 770B      		sbc r23,r23
 1781 00d2 87E1      		ldi r24,23
 1782               		1:
 1783 00d4 440F      		lsl r20
 1784 00d6 551F      		rol r21
 1785 00d8 661F      		rol r22
 1786 00da 771F      		rol r23
 1787 00dc 8A95      		dec r24
 1788 00de 01F4      		brne 1b
 1789 00e0 4C29      		or r20,r12
 1790 00e2 5D29      		or r21,r13
 1791 00e4 6E29      		or r22,r14
 1792 00e6 7F29      		or r23,r15
 1793 00e8 4083      		st Z,r20
 1794 00ea 5183      		std Z+1,r21
 1795 00ec 6283      		std Z+2,r22
 1796 00ee 7383      		std Z+3,r23
 1797 00f0 00C0      		rjmp .L96
 1798               	.L97:
 1799 00f2 260F      		add r18,r22
 1800 00f4 371F      		adc r19,r23
 1801 00f6 2150      		subi r18,1
 1802 00f8 3109      		sbc r19,__zero_reg__
 1803 00fa 00E0      		ldi r16,0
 1804 00fc 10E0      		ldi r17,0
 1805 00fe AB01      		movw r20,r22
 1806 0100 63E0      		ldi r22,lo8(3)
 1807 0102 70E0      		ldi r23,0
 1808 0104 0E94 0000 		call luaK_codeABC
GAS LISTING /tmp/ccIJIBIx.s 			page 33


 1809               	.L96:
 1810               	/* epilogue start */
 1811 0108 DF91      		pop r29
 1812 010a CF91      		pop r28
 1813 010c 1F91      		pop r17
 1814 010e 0F91      		pop r16
 1815 0110 FF90      		pop r15
 1816 0112 EF90      		pop r14
 1817 0114 DF90      		pop r13
 1818 0116 CF90      		pop r12
 1819 0118 BF90      		pop r11
 1820 011a AF90      		pop r10
 1821 011c 9F90      		pop r9
 1822 011e 8F90      		pop r8
 1823 0120 0895      		ret
 1824               		.size	luaK_nil, .-luaK_nil
 1825               		.section	.text.luaK_ret,"ax",@progbits
 1826               	.global	luaK_ret
 1827               		.hidden	luaK_ret
 1828               		.type	luaK_ret, @function
 1829               	luaK_ret:
 1830 0000 0F93      		push r16
 1831 0002 1F93      		push r17
 1832               	/* prologue: function */
 1833               	/* frame size = 0 */
 1834               	/* stack size = 2 */
 1835               	.L__stack_usage = 2
 1836 0004 9A01      		movw r18,r20
 1837 0006 2F5F      		subi r18,-1
 1838 0008 3F4F      		sbci r19,-1
 1839 000a 00E0      		ldi r16,0
 1840 000c 10E0      		ldi r17,0
 1841 000e AB01      		movw r20,r22
 1842 0010 6EE1      		ldi r22,lo8(30)
 1843 0012 70E0      		ldi r23,0
 1844 0014 0E94 0000 		call luaK_codeABC
 1845               	/* epilogue start */
 1846 0018 1F91      		pop r17
 1847 001a 0F91      		pop r16
 1848 001c 0895      		ret
 1849               		.size	luaK_ret, .-luaK_ret
 1850               		.section	.text.luaK_codeABx,"ax",@progbits
 1851               	.global	luaK_codeABx
 1852               		.hidden	luaK_codeABx
 1853               		.type	luaK_codeABx, @function
 1854               	luaK_codeABx:
 1855 0000 CF92      		push r12
 1856 0002 DF92      		push r13
 1857 0004 EF92      		push r14
 1858 0006 FF92      		push r15
 1859 0008 0F93      		push r16
 1860 000a 1F93      		push r17
 1861               	/* prologue: function */
 1862               	/* frame size = 0 */
 1863               	/* stack size = 6 */
 1864               	.L__stack_usage = 6
 1865 000c 6B01      		movw r12,r22
GAS LISTING /tmp/ccIJIBIx.s 			page 34


 1866 000e DC01      		movw r26,r24
 1867 0010 1696      		adiw r26,6
 1868 0012 ED91      		ld r30,X+
 1869 0014 FC91      		ld r31,X
 1870 0016 1797      		sbiw r26,6+1
 1871 0018 0480      		ldd __tmp_reg__,Z+4
 1872 001a F581      		ldd r31,Z+5
 1873 001c E02D      		mov r30,__tmp_reg__
 1874 001e 052E      		mov __tmp_reg__,r21
 1875 0020 000C      		lsl r0
 1876 0022 660B      		sbc r22,r22
 1877 0024 770B      		sbc r23,r23
 1878 0026 A6E0      		ldi r26,6
 1879               		1:
 1880 0028 440F      		lsl r20
 1881 002a 551F      		rol r21
 1882 002c 661F      		rol r22
 1883 002e 771F      		rol r23
 1884 0030 AA95      		dec r26
 1885 0032 01F4      		brne 1b
 1886 0034 E12C      		mov r14,__zero_reg__
 1887 0036 F12C      		mov r15,__zero_reg__
 1888 0038 4C29      		or r20,r12
 1889 003a 5D29      		or r21,r13
 1890 003c 6E29      		or r22,r14
 1891 003e 7F29      		or r23,r15
 1892 0040 8901      		movw r16,r18
 1893 0042 20E0      		ldi r18,0
 1894 0044 30E0      		ldi r19,0
 1895 0046 BEE0      		ldi r27,14
 1896               		1:
 1897 0048 000F      		lsl r16
 1898 004a 111F      		rol r17
 1899 004c 221F      		rol r18
 1900 004e 331F      		rol r19
 1901 0050 BA95      		dec r27
 1902 0052 01F4      		brne 1b
 1903 0054 402B      		or r20,r16
 1904 0056 512B      		or r21,r17
 1905 0058 622B      		or r22,r18
 1906 005a 732B      		or r23,r19
 1907 005c 9F01      		movw r18,r30
 1908               	/* epilogue start */
 1909 005e 1F91      		pop r17
 1910 0060 0F91      		pop r16
 1911 0062 FF90      		pop r15
 1912 0064 EF90      		pop r14
 1913 0066 DF90      		pop r13
 1914 0068 CF90      		pop r12
 1915 006a 0C94 0000 		jmp luaK_code
 1916               		.size	luaK_codeABx, .-luaK_codeABx
 1917               		.section	.text.luaK_jump,"ax",@progbits
 1918               	.global	luaK_jump
 1919               		.hidden	luaK_jump
 1920               		.type	luaK_jump, @function
 1921               	luaK_jump:
 1922 0000 EF92      		push r14
GAS LISTING /tmp/ccIJIBIx.s 			page 35


 1923 0002 FF92      		push r15
 1924 0004 0F93      		push r16
 1925 0006 1F93      		push r17
 1926 0008 CF93      		push r28
 1927 000a DF93      		push r29
 1928 000c 1F92      		push __zero_reg__
 1929 000e 1F92      		push __zero_reg__
 1930 0010 CDB7      		in r28,__SP_L__
 1931 0012 DEB7      		in r29,__SP_H__
 1932               	/* prologue: function */
 1933               	/* frame size = 2 */
 1934               	/* stack size = 8 */
 1935               	.L__stack_usage = 8
 1936 0014 8C01      		movw r16,r24
 1937 0016 FC01      		movw r30,r24
 1938 0018 E088      		ldd r14,Z+16
 1939 001a F188      		ldd r15,Z+17
 1940 001c 8FEF      		ldi r24,lo8(-1)
 1941 001e 9FEF      		ldi r25,lo8(-1)
 1942 0020 918B      		std Z+17,r25
 1943 0022 808B      		std Z+16,r24
 1944 0024 2CEF      		ldi r18,lo8(-4)
 1945 0026 3FE7      		ldi r19,lo8(127)
 1946 0028 40E0      		ldi r20,0
 1947 002a 50E0      		ldi r21,0
 1948 002c 66E1      		ldi r22,lo8(22)
 1949 002e 70E0      		ldi r23,0
 1950 0030 C801      		movw r24,r16
 1951 0032 0E94 0000 		call luaK_codeABx
 1952 0036 9A83      		std Y+2,r25
 1953 0038 8983      		std Y+1,r24
 1954 003a A701      		movw r20,r14
 1955 003c BE01      		movw r22,r28
 1956 003e 6F5F      		subi r22,-1
 1957 0040 7F4F      		sbci r23,-1
 1958 0042 C801      		movw r24,r16
 1959 0044 0E94 0000 		call luaK_concat
 1960 0048 8981      		ldd r24,Y+1
 1961 004a 9A81      		ldd r25,Y+2
 1962               	/* epilogue start */
 1963 004c 0F90      		pop __tmp_reg__
 1964 004e 0F90      		pop __tmp_reg__
 1965 0050 DF91      		pop r29
 1966 0052 CF91      		pop r28
 1967 0054 1F91      		pop r17
 1968 0056 0F91      		pop r16
 1969 0058 FF90      		pop r15
 1970 005a EF90      		pop r14
 1971 005c 0895      		ret
 1972               		.size	luaK_jump, .-luaK_jump
 1973               		.section	.text.luaK_dischargevars,"ax",@progbits
 1974               	.global	luaK_dischargevars
 1975               		.hidden	luaK_dischargevars
 1976               		.type	luaK_dischargevars, @function
 1977               	luaK_dischargevars:
 1978 0000 EF92      		push r14
 1979 0002 FF92      		push r15
GAS LISTING /tmp/ccIJIBIx.s 			page 36


 1980 0004 0F93      		push r16
 1981 0006 1F93      		push r17
 1982 0008 CF93      		push r28
 1983 000a DF93      		push r29
 1984               	/* prologue: function */
 1985               	/* frame size = 0 */
 1986               	/* stack size = 6 */
 1987               	.L__stack_usage = 6
 1988 000c 7C01      		movw r14,r24
 1989 000e EB01      		movw r28,r22
 1990 0010 8881      		ld r24,Y
 1991 0012 9981      		ldd r25,Y+1
 1992 0014 8830      		cpi r24,8
 1993 0016 9105      		cpc r25,__zero_reg__
 1994 0018 01F0      		breq .L105
 1995 001a 00F4      		brsh .L106
 1996 001c 8630      		cpi r24,6
 1997 001e 9105      		cpc r25,__zero_reg__
 1998 0020 01F0      		breq .L107
 1999 0022 0797      		sbiw r24,7
 2000 0024 01F0      		breq .+2
 2001 0026 00C0      		rjmp .L103
 2002 0028 2A81      		ldd r18,Y+2
 2003 002a 3B81      		ldd r19,Y+3
 2004 002c 00E0      		ldi r16,0
 2005 002e 10E0      		ldi r17,0
 2006 0030 40E0      		ldi r20,0
 2007 0032 50E0      		ldi r21,0
 2008 0034 64E0      		ldi r22,lo8(4)
 2009 0036 70E0      		ldi r23,0
 2010 0038 00C0      		rjmp .L113
 2011               	.L106:
 2012 003a 8930      		cpi r24,9
 2013 003c 9105      		cpc r25,__zero_reg__
 2014 003e 01F0      		breq .L109
 2015 0040 0D97      		sbiw r24,13
 2016 0042 0297      		sbiw r24,2
 2017 0044 00F4      		brsh .L103
 2018 0046 C701      		movw r24,r14
 2019               	/* epilogue start */
 2020 0048 DF91      		pop r29
 2021 004a CF91      		pop r28
 2022 004c 1F91      		pop r17
 2023 004e 0F91      		pop r16
 2024 0050 FF90      		pop r15
 2025 0052 EF90      		pop r14
 2026 0054 0C94 0000 		jmp luaK_setoneret
 2027               	.L107:
 2028 0058 8CE0      		ldi r24,lo8(12)
 2029 005a 90E0      		ldi r25,0
 2030 005c 00C0      		rjmp .L114
 2031               	.L105:
 2032 005e 2A81      		ldd r18,Y+2
 2033 0060 3B81      		ldd r19,Y+3
 2034 0062 40E0      		ldi r20,0
 2035 0064 50E0      		ldi r21,0
 2036 0066 65E0      		ldi r22,lo8(5)
GAS LISTING /tmp/ccIJIBIx.s 			page 37


 2037 0068 70E0      		ldi r23,0
 2038 006a C701      		movw r24,r14
 2039 006c 0E94 0000 		call luaK_codeABx
 2040 0070 00C0      		rjmp .L112
 2041               	.L109:
 2042 0072 6C81      		ldd r22,Y+4
 2043 0074 7D81      		ldd r23,Y+5
 2044 0076 C701      		movw r24,r14
 2045 0078 0E94 0000 		call freereg
 2046 007c 6A81      		ldd r22,Y+2
 2047 007e 7B81      		ldd r23,Y+3
 2048 0080 C701      		movw r24,r14
 2049 0082 0E94 0000 		call freereg
 2050 0086 0C81      		ldd r16,Y+4
 2051 0088 1D81      		ldd r17,Y+5
 2052 008a 2A81      		ldd r18,Y+2
 2053 008c 3B81      		ldd r19,Y+3
 2054 008e 40E0      		ldi r20,0
 2055 0090 50E0      		ldi r21,0
 2056 0092 66E0      		ldi r22,lo8(6)
 2057 0094 70E0      		ldi r23,0
 2058               	.L113:
 2059 0096 C701      		movw r24,r14
 2060 0098 0E94 0000 		call luaK_codeABC
 2061               	.L112:
 2062 009c 9B83      		std Y+3,r25
 2063 009e 8A83      		std Y+2,r24
 2064 00a0 8BE0      		ldi r24,lo8(11)
 2065 00a2 90E0      		ldi r25,0
 2066               	.L114:
 2067 00a4 9983      		std Y+1,r25
 2068 00a6 8883      		st Y,r24
 2069               	.L103:
 2070               	/* epilogue start */
 2071 00a8 DF91      		pop r29
 2072 00aa CF91      		pop r28
 2073 00ac 1F91      		pop r17
 2074 00ae 0F91      		pop r16
 2075 00b0 FF90      		pop r15
 2076 00b2 EF90      		pop r14
 2077 00b4 0895      		ret
 2078               		.size	luaK_dischargevars, .-luaK_dischargevars
 2079               		.section	.text.discharge2reg,"ax",@progbits
 2080               		.type	discharge2reg, @function
 2081               	discharge2reg:
 2082 0000 CF92      		push r12
 2083 0002 DF92      		push r13
 2084 0004 EF92      		push r14
 2085 0006 FF92      		push r15
 2086 0008 0F93      		push r16
 2087 000a 1F93      		push r17
 2088 000c CF93      		push r28
 2089 000e DF93      		push r29
 2090               	/* prologue: function */
 2091               	/* frame size = 0 */
 2092               	/* stack size = 8 */
 2093               	.L__stack_usage = 8
GAS LISTING /tmp/ccIJIBIx.s 			page 38


 2094 0010 6C01      		movw r12,r24
 2095 0012 EB01      		movw r28,r22
 2096 0014 7A01      		movw r14,r20
 2097 0016 0E94 0000 		call luaK_dischargevars
 2098 001a 4881      		ld r20,Y
 2099 001c 5981      		ldd r21,Y+1
 2100 001e FA01      		movw r30,r20
 2101 0020 3197      		sbiw r30,1
 2102 0022 EC30      		cpi r30,12
 2103 0024 F105      		cpc r31,__zero_reg__
 2104 0026 00F0      		brlo .+2
 2105 0028 00C0      		rjmp .L115
 2106 002a 8827      		clr r24
 2107 002c E050      		subi r30,pm_lo8(-(.L118))
 2108 002e F040      		sbci r31,pm_hi8(-(.L118))
 2109 0030 8040      		sbci r24,pm_hh8(-(.L118))
 2110 0032 0C94 0000 		jmp __tablejump2__
 2111               		.section	.progmem.gcc_sw_table.discharge2reg,"a",@progbits
 2112               		.p2align	1
 2113               	.L118:
 2114 0000 0000      		.word gs(.L117)
 2115 0002 0000      		.word gs(.L119)
 2116 0004 0000      		.word gs(.L119)
 2117 0006 0000      		.word gs(.L120)
 2118 0008 0000      		.word gs(.L121)
 2119 000a 0000      		.word gs(.L115)
 2120 000c 0000      		.word gs(.L115)
 2121 000e 0000      		.word gs(.L115)
 2122 0010 0000      		.word gs(.L115)
 2123 0012 0000      		.word gs(.L115)
 2124 0014 0000      		.word gs(.L122)
 2125 0016 0000      		.word gs(.L123)
 2126               		.section	.text.discharge2reg
 2127               	.L117:
 2128 0036 41E0      		ldi r20,lo8(1)
 2129 0038 50E0      		ldi r21,0
 2130 003a B701      		movw r22,r14
 2131 003c C601      		movw r24,r12
 2132 003e 0E94 0000 		call luaK_nil
 2133 0042 00C0      		rjmp .L124
 2134               	.L119:
 2135 0044 21E0      		ldi r18,lo8(1)
 2136 0046 30E0      		ldi r19,0
 2137 0048 4230      		cpi r20,2
 2138 004a 5105      		cpc r21,__zero_reg__
 2139 004c 01F0      		breq .L125
 2140 004e 20E0      		ldi r18,0
 2141 0050 30E0      		ldi r19,0
 2142               	.L125:
 2143 0052 00E0      		ldi r16,0
 2144 0054 10E0      		ldi r17,0
 2145 0056 A701      		movw r20,r14
 2146 0058 62E0      		ldi r22,lo8(2)
 2147 005a 70E0      		ldi r23,0
 2148 005c 00C0      		rjmp .L129
 2149               	.L120:
 2150 005e 2A81      		ldd r18,Y+2
GAS LISTING /tmp/ccIJIBIx.s 			page 39


 2151 0060 3B81      		ldd r19,Y+3
 2152 0062 00C0      		rjmp .L130
 2153               	.L121:
 2154 0064 4A81      		ldd r20,Y+2
 2155 0066 5B81      		ldd r21,Y+3
 2156 0068 6C81      		ldd r22,Y+4
 2157 006a 7D81      		ldd r23,Y+5
 2158 006c C601      		movw r24,r12
 2159 006e 0E94 0000 		call luaK_numberK
 2160 0072 9C01      		movw r18,r24
 2161               	.L130:
 2162 0074 A701      		movw r20,r14
 2163 0076 61E0      		ldi r22,lo8(1)
 2164 0078 70E0      		ldi r23,0
 2165 007a C601      		movw r24,r12
 2166 007c 0E94 0000 		call luaK_codeABx
 2167 0080 00C0      		rjmp .L124
 2168               	.L122:
 2169 0082 F601      		movw r30,r12
 2170 0084 A081      		ld r26,Z
 2171 0086 B181      		ldd r27,Z+1
 2172 0088 EA81      		ldd r30,Y+2
 2173 008a FB81      		ldd r31,Y+3
 2174 008c EE0F      		lsl r30
 2175 008e FF1F      		rol r31
 2176 0090 EE0F      		lsl r30
 2177 0092 FF1F      		rol r31
 2178 0094 1696      		adiw r26,6
 2179 0096 8D91      		ld r24,X+
 2180 0098 9C91      		ld r25,X
 2181 009a 1797      		sbiw r26,6+1
 2182 009c E80F      		add r30,r24
 2183 009e F91F      		adc r31,r25
 2184 00a0 8081      		ld r24,Z
 2185 00a2 9181      		ldd r25,Z+1
 2186 00a4 A281      		ldd r26,Z+2
 2187 00a6 B381      		ldd r27,Z+3
 2188 00a8 AC01      		movw r20,r24
 2189 00aa BD01      		movw r22,r26
 2190 00ac 4F73      		andi r20,63
 2191 00ae 507C      		andi r21,192
 2192 00b0 C701      		movw r24,r14
 2193 00b2 0F2C      		mov __tmp_reg__,r15
 2194 00b4 000C      		lsl r0
 2195 00b6 AA0B      		sbc r26,r26
 2196 00b8 BB0B      		sbc r27,r27
 2197 00ba 26E0      		ldi r18,6
 2198               		1:
 2199 00bc 880F      		lsl r24
 2200 00be 991F      		rol r25
 2201 00c0 AA1F      		rol r26
 2202 00c2 BB1F      		rol r27
 2203 00c4 2A95      		dec r18
 2204 00c6 01F4      		brne 1b
 2205 00c8 807C      		andi r24,192
 2206 00ca 9F73      		andi r25,63
 2207 00cc AA27      		clr r26
GAS LISTING /tmp/ccIJIBIx.s 			page 40


 2208 00ce BB27      		clr r27
 2209 00d0 842B      		or r24,r20
 2210 00d2 952B      		or r25,r21
 2211 00d4 A62B      		or r26,r22
 2212 00d6 B72B      		or r27,r23
 2213 00d8 8083      		st Z,r24
 2214 00da 9183      		std Z+1,r25
 2215 00dc A283      		std Z+2,r26
 2216 00de B383      		std Z+3,r27
 2217 00e0 00C0      		rjmp .L124
 2218               	.L123:
 2219 00e2 2A81      		ldd r18,Y+2
 2220 00e4 3B81      		ldd r19,Y+3
 2221 00e6 E216      		cp r14,r18
 2222 00e8 F306      		cpc r15,r19
 2223 00ea 01F0      		breq .L124
 2224 00ec 00E0      		ldi r16,0
 2225 00ee 10E0      		ldi r17,0
 2226 00f0 A701      		movw r20,r14
 2227 00f2 60E0      		ldi r22,0
 2228 00f4 70E0      		ldi r23,0
 2229               	.L129:
 2230 00f6 C601      		movw r24,r12
 2231 00f8 0E94 0000 		call luaK_codeABC
 2232               	.L124:
 2233 00fc FB82      		std Y+3,r15
 2234 00fe EA82      		std Y+2,r14
 2235 0100 8CE0      		ldi r24,lo8(12)
 2236 0102 90E0      		ldi r25,0
 2237 0104 9983      		std Y+1,r25
 2238 0106 8883      		st Y,r24
 2239               	.L115:
 2240               	/* epilogue start */
 2241 0108 DF91      		pop r29
 2242 010a CF91      		pop r28
 2243 010c 1F91      		pop r17
 2244 010e 0F91      		pop r16
 2245 0110 FF90      		pop r15
 2246 0112 EF90      		pop r14
 2247 0114 DF90      		pop r13
 2248 0116 CF90      		pop r12
 2249 0118 0895      		ret
 2250               		.size	discharge2reg, .-discharge2reg
 2251               		.section	.text.exp2reg,"ax",@progbits
 2252               		.type	exp2reg, @function
 2253               	exp2reg:
 2254 0000 6F92      		push r6
 2255 0002 7F92      		push r7
 2256 0004 8F92      		push r8
 2257 0006 9F92      		push r9
 2258 0008 AF92      		push r10
 2259 000a BF92      		push r11
 2260 000c CF92      		push r12
 2261 000e DF92      		push r13
 2262 0010 EF92      		push r14
 2263 0012 FF92      		push r15
 2264 0014 0F93      		push r16
GAS LISTING /tmp/ccIJIBIx.s 			page 41


 2265 0016 1F93      		push r17
 2266 0018 CF93      		push r28
 2267 001a DF93      		push r29
 2268               	/* prologue: function */
 2269               	/* frame size = 0 */
 2270               	/* stack size = 14 */
 2271               	.L__stack_usage = 14
 2272 001c EC01      		movw r28,r24
 2273 001e 7B01      		movw r14,r22
 2274 0020 6A01      		movw r12,r20
 2275 0022 0E94 0000 		call discharge2reg
 2276 0026 F701      		movw r30,r14
 2277 0028 8081      		ld r24,Z
 2278 002a 9181      		ldd r25,Z+1
 2279 002c 0A97      		sbiw r24,10
 2280 002e 01F4      		brne .L132
 2281 0030 4281      		ldd r20,Z+2
 2282 0032 5381      		ldd r21,Z+3
 2283 0034 B701      		movw r22,r14
 2284 0036 6A5F      		subi r22,-6
 2285 0038 7F4F      		sbci r23,-1
 2286 003a CE01      		movw r24,r28
 2287 003c 0E94 0000 		call luaK_concat
 2288               	.L132:
 2289 0040 F701      		movw r30,r14
 2290 0042 6681      		ldd r22,Z+6
 2291 0044 7781      		ldd r23,Z+7
 2292 0046 A084      		ldd r10,Z+8
 2293 0048 B184      		ldd r11,Z+9
 2294 004a 6A15      		cp r22,r10
 2295 004c 7B05      		cpc r23,r11
 2296 004e 01F4      		brne .+2
 2297 0050 00C0      		rjmp .L133
 2298 0052 CE01      		movw r24,r28
 2299 0054 0E94 0000 		call need_value
 2300 0058 892B      		or r24,r25
 2301 005a 01F4      		brne .L134
 2302 005c B501      		movw r22,r10
 2303 005e CE01      		movw r24,r28
 2304 0060 0E94 0000 		call need_value
 2305 0064 892B      		or r24,r25
 2306 0066 01F0      		breq .L137
 2307               	.L134:
 2308 0068 F701      		movw r30,r14
 2309 006a 8081      		ld r24,Z
 2310 006c 9181      		ldd r25,Z+1
 2311 006e 0A97      		sbiw r24,10
 2312 0070 01F0      		breq .L138
 2313 0072 CE01      		movw r24,r28
 2314 0074 0E94 0000 		call luaK_jump
 2315 0078 5C01      		movw r10,r24
 2316 007a 00C0      		rjmp .L136
 2317               	.L138:
 2318 007c AA24      		clr r10
 2319 007e AA94      		dec r10
 2320 0080 BA2C      		mov r11,r10
 2321               	.L136:
GAS LISTING /tmp/ccIJIBIx.s 			page 42


 2322 0082 8C85      		ldd r24,Y+12
 2323 0084 9D85      		ldd r25,Y+13
 2324 0086 9F87      		std Y+15,r25
 2325 0088 8E87      		std Y+14,r24
 2326 008a 01E0      		ldi r16,lo8(1)
 2327 008c 10E0      		ldi r17,0
 2328 008e 20E0      		ldi r18,0
 2329 0090 30E0      		ldi r19,0
 2330 0092 A601      		movw r20,r12
 2331 0094 62E0      		ldi r22,lo8(2)
 2332 0096 70E0      		ldi r23,0
 2333 0098 CE01      		movw r24,r28
 2334 009a 0E94 0000 		call luaK_codeABC
 2335 009e 4C01      		movw r8,r24
 2336 00a0 8C85      		ldd r24,Y+12
 2337 00a2 9D85      		ldd r25,Y+13
 2338 00a4 9F87      		std Y+15,r25
 2339 00a6 8E87      		std Y+14,r24
 2340 00a8 00E0      		ldi r16,0
 2341 00aa 10E0      		ldi r17,0
 2342 00ac 21E0      		ldi r18,lo8(1)
 2343 00ae 30E0      		ldi r19,0
 2344 00b0 A601      		movw r20,r12
 2345 00b2 62E0      		ldi r22,lo8(2)
 2346 00b4 70E0      		ldi r23,0
 2347 00b6 CE01      		movw r24,r28
 2348 00b8 0E94 0000 		call luaK_codeABC
 2349 00bc 3C01      		movw r6,r24
 2350 00be B501      		movw r22,r10
 2351 00c0 CE01      		movw r24,r28
 2352 00c2 0E94 0000 		call luaK_patchtohere
 2353 00c6 00C0      		rjmp .L135
 2354               	.L137:
 2355 00c8 6624      		clr r6
 2356 00ca 6A94      		dec r6
 2357 00cc 762C      		mov r7,r6
 2358 00ce 8824      		clr r8
 2359 00d0 8A94      		dec r8
 2360 00d2 982C      		mov r9,r8
 2361               	.L135:
 2362 00d4 AC84      		ldd r10,Y+12
 2363 00d6 BD84      		ldd r11,Y+13
 2364 00d8 BF86      		std Y+15,r11
 2365 00da AE86      		std Y+14,r10
 2366 00dc F701      		movw r30,r14
 2367 00de 6085      		ldd r22,Z+8
 2368 00e0 7185      		ldd r23,Z+9
 2369 00e2 8401      		movw r16,r8
 2370 00e4 9601      		movw r18,r12
 2371 00e6 A501      		movw r20,r10
 2372 00e8 CE01      		movw r24,r28
 2373 00ea 0E94 0000 		call patchlistaux
 2374 00ee F701      		movw r30,r14
 2375 00f0 6681      		ldd r22,Z+6
 2376 00f2 7781      		ldd r23,Z+7
 2377 00f4 8301      		movw r16,r6
 2378 00f6 9601      		movw r18,r12
GAS LISTING /tmp/ccIJIBIx.s 			page 43


 2379 00f8 A501      		movw r20,r10
 2380 00fa CE01      		movw r24,r28
 2381 00fc 0E94 0000 		call patchlistaux
 2382               	.L133:
 2383 0100 8FEF      		ldi r24,lo8(-1)
 2384 0102 9FEF      		ldi r25,lo8(-1)
 2385 0104 F701      		movw r30,r14
 2386 0106 9783      		std Z+7,r25
 2387 0108 8683      		std Z+6,r24
 2388 010a 9187      		std Z+9,r25
 2389 010c 8087      		std Z+8,r24
 2390 010e D382      		std Z+3,r13
 2391 0110 C282      		std Z+2,r12
 2392 0112 8CE0      		ldi r24,lo8(12)
 2393 0114 90E0      		ldi r25,0
 2394 0116 9183      		std Z+1,r25
 2395 0118 8083      		st Z,r24
 2396               	/* epilogue start */
 2397 011a DF91      		pop r29
 2398 011c CF91      		pop r28
 2399 011e 1F91      		pop r17
 2400 0120 0F91      		pop r16
 2401 0122 FF90      		pop r15
 2402 0124 EF90      		pop r14
 2403 0126 DF90      		pop r13
 2404 0128 CF90      		pop r12
 2405 012a BF90      		pop r11
 2406 012c AF90      		pop r10
 2407 012e 9F90      		pop r9
 2408 0130 8F90      		pop r8
 2409 0132 7F90      		pop r7
 2410 0134 6F90      		pop r6
 2411 0136 0895      		ret
 2412               		.size	exp2reg, .-exp2reg
 2413               		.section	.text.luaK_exp2nextreg,"ax",@progbits
 2414               	.global	luaK_exp2nextreg
 2415               		.hidden	luaK_exp2nextreg
 2416               		.type	luaK_exp2nextreg, @function
 2417               	luaK_exp2nextreg:
 2418 0000 0F93      		push r16
 2419 0002 1F93      		push r17
 2420 0004 CF93      		push r28
 2421 0006 DF93      		push r29
 2422               	/* prologue: function */
 2423               	/* frame size = 0 */
 2424               	/* stack size = 4 */
 2425               	.L__stack_usage = 4
 2426 0008 EC01      		movw r28,r24
 2427 000a 8B01      		movw r16,r22
 2428 000c 0E94 0000 		call luaK_dischargevars
 2429 0010 B801      		movw r22,r16
 2430 0012 CE01      		movw r24,r28
 2431 0014 0E94 0000 		call freeexp
 2432 0018 61E0      		ldi r22,lo8(1)
 2433 001a 70E0      		ldi r23,0
 2434 001c CE01      		movw r24,r28
 2435 001e 0E94 0000 		call luaK_reserveregs
GAS LISTING /tmp/ccIJIBIx.s 			page 44


 2436 0022 4A89      		ldd r20,Y+18
 2437 0024 5B89      		ldd r21,Y+19
 2438 0026 4150      		subi r20,1
 2439 0028 5109      		sbc r21,__zero_reg__
 2440 002a B801      		movw r22,r16
 2441 002c CE01      		movw r24,r28
 2442               	/* epilogue start */
 2443 002e DF91      		pop r29
 2444 0030 CF91      		pop r28
 2445 0032 1F91      		pop r17
 2446 0034 0F91      		pop r16
 2447 0036 0C94 0000 		jmp exp2reg
 2448               		.size	luaK_exp2nextreg, .-luaK_exp2nextreg
 2449               		.section	.text.luaK_exp2anyreg,"ax",@progbits
 2450               	.global	luaK_exp2anyreg
 2451               		.hidden	luaK_exp2anyreg
 2452               		.type	luaK_exp2anyreg, @function
 2453               	luaK_exp2anyreg:
 2454 0000 0F93      		push r16
 2455 0002 1F93      		push r17
 2456 0004 CF93      		push r28
 2457 0006 DF93      		push r29
 2458               	/* prologue: function */
 2459               	/* frame size = 0 */
 2460               	/* stack size = 4 */
 2461               	.L__stack_usage = 4
 2462 0008 8C01      		movw r16,r24
 2463 000a EB01      		movw r28,r22
 2464 000c 0E94 0000 		call luaK_dischargevars
 2465 0010 8881      		ld r24,Y
 2466 0012 9981      		ldd r25,Y+1
 2467 0014 0C97      		sbiw r24,12
 2468 0016 01F4      		brne .L141
 2469 0018 2E81      		ldd r18,Y+6
 2470 001a 3F81      		ldd r19,Y+7
 2471 001c 8885      		ldd r24,Y+8
 2472 001e 9985      		ldd r25,Y+9
 2473 0020 4A81      		ldd r20,Y+2
 2474 0022 5B81      		ldd r21,Y+3
 2475 0024 2817      		cp r18,r24
 2476 0026 3907      		cpc r19,r25
 2477 0028 01F4      		brne .L142
 2478 002a CA01      		movw r24,r20
 2479 002c 00C0      		rjmp .L143
 2480               	.L142:
 2481 002e F801      		movw r30,r16
 2482 0030 828D      		ldd r24,Z+26
 2483 0032 90E0      		ldi r25,0
 2484 0034 4817      		cp r20,r24
 2485 0036 5907      		cpc r21,r25
 2486 0038 04F0      		brlt .L141
 2487 003a BE01      		movw r22,r28
 2488 003c C801      		movw r24,r16
 2489 003e 0E94 0000 		call exp2reg
 2490 0042 00C0      		rjmp .L144
 2491               	.L141:
 2492 0044 BE01      		movw r22,r28
GAS LISTING /tmp/ccIJIBIx.s 			page 45


 2493 0046 C801      		movw r24,r16
 2494 0048 0E94 0000 		call luaK_exp2nextreg
 2495               	.L144:
 2496 004c 8A81      		ldd r24,Y+2
 2497 004e 9B81      		ldd r25,Y+3
 2498               	.L143:
 2499               	/* epilogue start */
 2500 0050 DF91      		pop r29
 2501 0052 CF91      		pop r28
 2502 0054 1F91      		pop r17
 2503 0056 0F91      		pop r16
 2504 0058 0895      		ret
 2505               		.size	luaK_exp2anyreg, .-luaK_exp2anyreg
 2506               		.section	.text.luaK_exp2val,"ax",@progbits
 2507               	.global	luaK_exp2val
 2508               		.hidden	luaK_exp2val
 2509               		.type	luaK_exp2val, @function
 2510               	luaK_exp2val:
 2511               	/* prologue: function */
 2512               	/* frame size = 0 */
 2513               	/* stack size = 0 */
 2514               	.L__stack_usage = 0
 2515 0000 FB01      		movw r30,r22
 2516 0002 4681      		ldd r20,Z+6
 2517 0004 5781      		ldd r21,Z+7
 2518 0006 2085      		ldd r18,Z+8
 2519 0008 3185      		ldd r19,Z+9
 2520 000a 4217      		cp r20,r18
 2521 000c 5307      		cpc r21,r19
 2522 000e 01F0      		breq .L146
 2523 0010 0C94 0000 		jmp luaK_exp2anyreg
 2524               	.L146:
 2525 0014 0C94 0000 		jmp luaK_dischargevars
 2526               		.size	luaK_exp2val, .-luaK_exp2val
 2527               		.section	.text.luaK_exp2RK,"ax",@progbits
 2528               	.global	luaK_exp2RK
 2529               		.hidden	luaK_exp2RK
 2530               		.type	luaK_exp2RK, @function
 2531               	luaK_exp2RK:
 2532 0000 EF92      		push r14
 2533 0002 FF92      		push r15
 2534 0004 0F93      		push r16
 2535 0006 1F93      		push r17
 2536 0008 CF93      		push r28
 2537 000a DF93      		push r29
 2538 000c CDB7      		in r28,__SP_L__
 2539 000e DEB7      		in r29,__SP_H__
 2540 0010 2C97      		sbiw r28,12
 2541 0012 0FB6      		in __tmp_reg__,__SREG__
 2542 0014 F894      		cli
 2543 0016 DEBF      		out __SP_H__,r29
 2544 0018 0FBE      		out __SREG__,__tmp_reg__
 2545 001a CDBF      		out __SP_L__,r28
 2546               	/* prologue: function */
 2547               	/* frame size = 12 */
 2548               	/* stack size = 18 */
 2549               	.L__stack_usage = 18
GAS LISTING /tmp/ccIJIBIx.s 			page 46


 2550 001c 8C01      		movw r16,r24
 2551 001e 7B01      		movw r14,r22
 2552 0020 0E94 0000 		call luaK_exp2val
 2553 0024 F701      		movw r30,r14
 2554 0026 8081      		ld r24,Z
 2555 0028 9181      		ldd r25,Z+1
 2556 002a 8430      		cpi r24,4
 2557 002c 9105      		cpc r25,__zero_reg__
 2558 002e 01F4      		brne .+2
 2559 0030 00C0      		rjmp .L149
 2560 0032 00F4      		brsh .L150
 2561 0034 8130      		cpi r24,1
 2562 0036 9105      		cpc r25,__zero_reg__
 2563 0038 00F4      		brsh .+2
 2564 003a 00C0      		rjmp .L148
 2565 003c 00C0      		rjmp .L151
 2566               	.L150:
 2567 003e 8530      		cpi r24,5
 2568 0040 9105      		cpc r25,__zero_reg__
 2569 0042 01F0      		breq .+2
 2570 0044 00C0      		rjmp .L148
 2571               	.L151:
 2572 0046 F801      		movw r30,r16
 2573 0048 2489      		ldd r18,Z+20
 2574 004a 3589      		ldd r19,Z+21
 2575 004c 2F3F      		cpi r18,-1
 2576 004e 3105      		cpc r19,__zero_reg__
 2577 0050 01F0      		breq .+4
 2578 0052 04F0      		brlt .+2
 2579 0054 00C0      		rjmp .L148
 2580 0056 8130      		cpi r24,1
 2581 0058 9105      		cpc r25,__zero_reg__
 2582 005a 01F4      		brne .L152
 2583 005c AE01      		movw r20,r28
 2584 005e 4F5F      		subi r20,-1
 2585 0060 5F4F      		sbci r21,-1
 2586 0062 86E0      		ldi r24,lo8(6)
 2587 0064 FA01      		movw r30,r20
 2588               		0:
 2589 0066 1192      		st Z+,__zero_reg__
 2590 0068 8A95      		dec r24
 2591 006a 01F4      		brne 0b
 2592 006c F801      		movw r30,r16
 2593 006e 8281      		ldd r24,Z+2
 2594 0070 9381      		ldd r25,Z+3
 2595 0072 9887      		std Y+8,r25
 2596 0074 8F83      		std Y+7,r24
 2597 0076 87E0      		ldi r24,lo8(7)
 2598 0078 90E0      		ldi r25,0
 2599 007a 9C87      		std Y+12,r25
 2600 007c 8B87      		std Y+11,r24
 2601 007e BE01      		movw r22,r28
 2602 0080 695F      		subi r22,-7
 2603 0082 7F4F      		sbci r23,-1
 2604 0084 00C0      		rjmp .L163
 2605               	.L152:
 2606 0086 8530      		cpi r24,5
GAS LISTING /tmp/ccIJIBIx.s 			page 47


 2607 0088 9105      		cpc r25,__zero_reg__
 2608 008a 01F4      		brne .L154
 2609 008c F701      		movw r30,r14
 2610 008e 4281      		ldd r20,Z+2
 2611 0090 5381      		ldd r21,Z+3
 2612 0092 6481      		ldd r22,Z+4
 2613 0094 7581      		ldd r23,Z+5
 2614 0096 C801      		movw r24,r16
 2615 0098 0E94 0000 		call luaK_numberK
 2616 009c 00C0      		rjmp .L153
 2617               	.L154:
 2618 009e 21E0      		ldi r18,lo8(1)
 2619 00a0 30E0      		ldi r19,0
 2620 00a2 0297      		sbiw r24,2
 2621 00a4 01F0      		breq .L155
 2622 00a6 20E0      		ldi r18,0
 2623 00a8 30E0      		ldi r19,0
 2624               	.L155:
 2625 00aa 3A83      		std Y+2,r19
 2626 00ac 2983      		std Y+1,r18
 2627 00ae 81E0      		ldi r24,lo8(1)
 2628 00b0 90E0      		ldi r25,0
 2629 00b2 9E83      		std Y+6,r25
 2630 00b4 8D83      		std Y+5,r24
 2631 00b6 AE01      		movw r20,r28
 2632 00b8 4F5F      		subi r20,-1
 2633 00ba 5F4F      		sbci r21,-1
 2634 00bc BA01      		movw r22,r20
 2635               	.L163:
 2636 00be C801      		movw r24,r16
 2637 00c0 0E94 0000 		call addk
 2638               	.L153:
 2639 00c4 F701      		movw r30,r14
 2640 00c6 9383      		std Z+3,r25
 2641 00c8 8283      		std Z+2,r24
 2642 00ca 24E0      		ldi r18,lo8(4)
 2643 00cc 30E0      		ldi r19,0
 2644 00ce 3183      		std Z+1,r19
 2645 00d0 2083      		st Z,r18
 2646 00d2 00C0      		rjmp .L164
 2647               	.L149:
 2648 00d4 F701      		movw r30,r14
 2649 00d6 8281      		ldd r24,Z+2
 2650 00d8 9381      		ldd r25,Z+3
 2651 00da 8F3F      		cpi r24,-1
 2652 00dc 9105      		cpc r25,__zero_reg__
 2653 00de 01F0      		breq .+2
 2654 00e0 04F4      		brge .L148
 2655               	.L164:
 2656 00e2 9160      		ori r25,1
 2657 00e4 00C0      		rjmp .L156
 2658               	.L148:
 2659 00e6 B701      		movw r22,r14
 2660 00e8 C801      		movw r24,r16
 2661 00ea 0E94 0000 		call luaK_exp2anyreg
 2662               	.L156:
 2663               	/* epilogue start */
GAS LISTING /tmp/ccIJIBIx.s 			page 48


 2664 00ee 2C96      		adiw r28,12
 2665 00f0 0FB6      		in __tmp_reg__,__SREG__
 2666 00f2 F894      		cli
 2667 00f4 DEBF      		out __SP_H__,r29
 2668 00f6 0FBE      		out __SREG__,__tmp_reg__
 2669 00f8 CDBF      		out __SP_L__,r28
 2670 00fa DF91      		pop r29
 2671 00fc CF91      		pop r28
 2672 00fe 1F91      		pop r17
 2673 0100 0F91      		pop r16
 2674 0102 FF90      		pop r15
 2675 0104 EF90      		pop r14
 2676 0106 0895      		ret
 2677               		.size	luaK_exp2RK, .-luaK_exp2RK
 2678               		.section	.text.luaK_indexed,"ax",@progbits
 2679               	.global	luaK_indexed
 2680               		.hidden	luaK_indexed
 2681               		.type	luaK_indexed, @function
 2682               	luaK_indexed:
 2683 0000 CF93      		push r28
 2684 0002 DF93      		push r29
 2685               	/* prologue: function */
 2686               	/* frame size = 0 */
 2687               	/* stack size = 2 */
 2688               	.L__stack_usage = 2
 2689 0004 EB01      		movw r28,r22
 2690 0006 BA01      		movw r22,r20
 2691 0008 0E94 0000 		call luaK_exp2RK
 2692 000c 9D83      		std Y+5,r25
 2693 000e 8C83      		std Y+4,r24
 2694 0010 89E0      		ldi r24,lo8(9)
 2695 0012 90E0      		ldi r25,0
 2696 0014 9983      		std Y+1,r25
 2697 0016 8883      		st Y,r24
 2698               	/* epilogue start */
 2699 0018 DF91      		pop r29
 2700 001a CF91      		pop r28
 2701 001c 0895      		ret
 2702               		.size	luaK_indexed, .-luaK_indexed
 2703               	.global	__floatsisf
 2704               	.global	__addsf3
 2705               	.global	__fixsfsi
 2706               		.section	.text.codearith,"ax",@progbits
 2707               		.type	codearith, @function
 2708               	codearith:
 2709 0000 4F92      		push r4
 2710 0002 5F92      		push r5
 2711 0004 6F92      		push r6
 2712 0006 7F92      		push r7
 2713 0008 8F92      		push r8
 2714 000a 9F92      		push r9
 2715 000c AF92      		push r10
 2716 000e BF92      		push r11
 2717 0010 CF92      		push r12
 2718 0012 DF92      		push r13
 2719 0014 EF92      		push r14
 2720 0016 FF92      		push r15
GAS LISTING /tmp/ccIJIBIx.s 			page 49


 2721 0018 0F93      		push r16
 2722 001a 1F93      		push r17
 2723 001c CF93      		push r28
 2724 001e DF93      		push r29
 2725 0020 00D0      		rcall .
 2726 0022 1F92      		push __zero_reg__
 2727 0024 CDB7      		in r28,__SP_L__
 2728 0026 DEB7      		in r29,__SP_H__
 2729               	/* prologue: function */
 2730               	/* frame size = 4 */
 2731               	/* stack size = 20 */
 2732               	.L__stack_usage = 20
 2733 0028 7C01      		movw r14,r24
 2734 002a 5B01      		movw r10,r22
 2735 002c 4A01      		movw r8,r20
 2736 002e 6901      		movw r12,r18
 2737 0030 CA01      		movw r24,r20
 2738 0032 0E94 0000 		call isnumeral
 2739 0036 892B      		or r24,r25
 2740 0038 01F4      		brne .+2
 2741 003a 00C0      		rjmp .L167
 2742 003c C601      		movw r24,r12
 2743 003e 0E94 0000 		call isnumeral
 2744 0042 892B      		or r24,r25
 2745 0044 01F4      		brne .+2
 2746 0046 00C0      		rjmp .L167
 2747 0048 F401      		movw r30,r8
 2748 004a 2281      		ldd r18,Z+2
 2749 004c 3381      		ldd r19,Z+3
 2750 004e 4481      		ldd r20,Z+4
 2751 0050 5581      		ldd r21,Z+5
 2752 0052 F601      		movw r30,r12
 2753 0054 4280      		ldd r4,Z+2
 2754 0056 5380      		ldd r5,Z+3
 2755 0058 6480      		ldd r6,Z+4
 2756 005a 7580      		ldd r7,Z+5
 2757 005c F501      		movw r30,r10
 2758 005e 3C97      		sbiw r30,12
 2759 0060 E930      		cpi r30,9
 2760 0062 F105      		cpc r31,__zero_reg__
 2761 0064 00F0      		brlo .+2
 2762 0066 00C0      		rjmp .L183
 2763 0068 8827      		clr r24
 2764 006a E050      		subi r30,pm_lo8(-(.L170))
 2765 006c F040      		sbci r31,pm_hi8(-(.L170))
 2766 006e 8040      		sbci r24,pm_hh8(-(.L170))
 2767 0070 0C94 0000 		jmp __tablejump2__
 2768               		.section	.progmem.gcc_sw_table.codearith,"a",@progbits
 2769               		.p2align	1
 2770               	.L170:
 2771 0000 0000      		.word gs(.L169)
 2772 0002 0000      		.word gs(.L171)
 2773 0004 0000      		.word gs(.L172)
 2774 0006 0000      		.word gs(.L173)
 2775 0008 0000      		.word gs(.L174)
 2776 000a 0000      		.word gs(.L175)
 2777 000c 0000      		.word gs(.L176)
GAS LISTING /tmp/ccIJIBIx.s 			page 50


 2778 000e 0000      		.word gs(.L183)
 2779 0010 0000      		.word gs(.L177)
 2780               		.section	.text.codearith
 2781               	.L169:
 2782 0074 CA01      		movw r24,r20
 2783 0076 B901      		movw r22,r18
 2784 0078 640D      		add r22,r4
 2785 007a 751D      		adc r23,r5
 2786 007c 861D      		adc r24,r6
 2787 007e 971D      		adc r25,r7
 2788 0080 00C0      		rjmp .L168
 2789               	.L171:
 2790 0082 CA01      		movw r24,r20
 2791 0084 B901      		movw r22,r18
 2792 0086 6419      		sub r22,r4
 2793 0088 7509      		sbc r23,r5
 2794 008a 8609      		sbc r24,r6
 2795 008c 9709      		sbc r25,r7
 2796 008e 00C0      		rjmp .L168
 2797               	.L172:
 2798 0090 C301      		movw r24,r6
 2799 0092 B201      		movw r22,r4
 2800 0094 0E94 0000 		call __mulsi3
 2801 0098 00C0      		rjmp .L168
 2802               	.L173:
 2803 009a 4114      		cp r4,__zero_reg__
 2804 009c 5104      		cpc r5,__zero_reg__
 2805 009e 6104      		cpc r6,__zero_reg__
 2806 00a0 7104      		cpc r7,__zero_reg__
 2807 00a2 01F4      		brne .+2
 2808 00a4 00C0      		rjmp .L178
 2809 00a6 CA01      		movw r24,r20
 2810 00a8 B901      		movw r22,r18
 2811 00aa A301      		movw r20,r6
 2812 00ac 9201      		movw r18,r4
 2813 00ae 0E94 0000 		call __divmodsi4
 2814 00b2 CA01      		movw r24,r20
 2815 00b4 B901      		movw r22,r18
 2816 00b6 00C0      		rjmp .L168
 2817               	.L174:
 2818 00b8 4114      		cp r4,__zero_reg__
 2819 00ba 5104      		cpc r5,__zero_reg__
 2820 00bc 6104      		cpc r6,__zero_reg__
 2821 00be 7104      		cpc r7,__zero_reg__
 2822 00c0 01F4      		brne .+2
 2823 00c2 00C0      		rjmp .L178
 2824 00c4 CA01      		movw r24,r20
 2825 00c6 B901      		movw r22,r18
 2826 00c8 A301      		movw r20,r6
 2827 00ca 9201      		movw r18,r4
 2828 00cc 0E94 0000 		call __divmodsi4
 2829 00d0 00C0      		rjmp .L168
 2830               	.L175:
 2831 00d2 C301      		movw r24,r6
 2832 00d4 B201      		movw r22,r4
 2833 00d6 2983      		std Y+1,r18
 2834 00d8 3A83      		std Y+2,r19
GAS LISTING /tmp/ccIJIBIx.s 			page 51


 2835 00da 4B83      		std Y+3,r20
 2836 00dc 5C83      		std Y+4,r21
 2837 00de 0E94 0000 		call __floatsisf
 2838 00e2 6B01      		movw r12,r22
 2839 00e4 7C01      		movw r14,r24
 2840 00e6 2981      		ldd r18,Y+1
 2841 00e8 3A81      		ldd r19,Y+2
 2842 00ea 4B81      		ldd r20,Y+3
 2843 00ec 5C81      		ldd r21,Y+4
 2844 00ee CA01      		movw r24,r20
 2845 00f0 B901      		movw r22,r18
 2846 00f2 0E94 0000 		call __floatsisf
 2847 00f6 A701      		movw r20,r14
 2848 00f8 9601      		movw r18,r12
 2849 00fa 0E94 0000 		call pow
 2850 00fe 20E0      		ldi r18,0
 2851 0100 30E0      		ldi r19,0
 2852 0102 40E0      		ldi r20,0
 2853 0104 5FE3      		ldi r21,lo8(63)
 2854 0106 0E94 0000 		call __addsf3
 2855 010a 0E94 0000 		call __fixsfsi
 2856 010e 072E      		mov __tmp_reg__,r23
 2857 0110 000C      		lsl r0
 2858 0112 880B      		sbc r24,r24
 2859 0114 990B      		sbc r25,r25
 2860 0116 00C0      		rjmp .L168
 2861               	.L176:
 2862 0118 6627      		clr r22
 2863 011a 7727      		clr r23
 2864 011c CB01      		movw r24,r22
 2865 011e 621B      		sub r22,r18
 2866 0120 730B      		sbc r23,r19
 2867 0122 840B      		sbc r24,r20
 2868 0124 950B      		sbc r25,r21
 2869 0126 00C0      		rjmp .L168
 2870               	.L183:
 2871 0128 60E0      		ldi r22,0
 2872 012a 70E0      		ldi r23,0
 2873 012c CB01      		movw r24,r22
 2874               	.L168:
 2875 012e F401      		movw r30,r8
 2876 0130 6283      		std Z+2,r22
 2877 0132 7383      		std Z+3,r23
 2878 0134 8483      		std Z+4,r24
 2879 0136 9583      		std Z+5,r25
 2880 0138 00C0      		rjmp .L166
 2881               	.L167:
 2882 013a F2E1      		ldi r31,18
 2883 013c AF16      		cp r10,r31
 2884 013e B104      		cpc r11,__zero_reg__
 2885 0140 01F0      		breq .L184
 2886               	.L177:
 2887 0142 F4E1      		ldi r31,20
 2888 0144 AF16      		cp r10,r31
 2889 0146 B104      		cpc r11,__zero_reg__
 2890 0148 01F0      		breq .L184
 2891               	.L178:
GAS LISTING /tmp/ccIJIBIx.s 			page 52


 2892 014a B601      		movw r22,r12
 2893 014c C701      		movw r24,r14
 2894 014e 0E94 0000 		call luaK_exp2RK
 2895 0152 8C01      		movw r16,r24
 2896 0154 00C0      		rjmp .L180
 2897               	.L184:
 2898 0156 00E0      		ldi r16,0
 2899 0158 10E0      		ldi r17,0
 2900               	.L180:
 2901 015a B401      		movw r22,r8
 2902 015c C701      		movw r24,r14
 2903 015e 0E94 0000 		call luaK_exp2RK
 2904 0162 3C01      		movw r6,r24
 2905 0164 0817      		cp r16,r24
 2906 0166 1907      		cpc r17,r25
 2907 0168 04F4      		brge .L181
 2908 016a B401      		movw r22,r8
 2909 016c C701      		movw r24,r14
 2910 016e 0E94 0000 		call freeexp
 2911 0172 B601      		movw r22,r12
 2912 0174 00C0      		rjmp .L197
 2913               	.L181:
 2914 0176 B601      		movw r22,r12
 2915 0178 C701      		movw r24,r14
 2916 017a 0E94 0000 		call freeexp
 2917 017e B401      		movw r22,r8
 2918               	.L197:
 2919 0180 C701      		movw r24,r14
 2920 0182 0E94 0000 		call freeexp
 2921 0186 9301      		movw r18,r6
 2922 0188 40E0      		ldi r20,0
 2923 018a 50E0      		ldi r21,0
 2924 018c B501      		movw r22,r10
 2925 018e C701      		movw r24,r14
 2926 0190 0E94 0000 		call luaK_codeABC
 2927 0194 F401      		movw r30,r8
 2928 0196 9383      		std Z+3,r25
 2929 0198 8283      		std Z+2,r24
 2930 019a 8BE0      		ldi r24,lo8(11)
 2931 019c 90E0      		ldi r25,0
 2932 019e 9183      		std Z+1,r25
 2933 01a0 8083      		st Z,r24
 2934               	.L166:
 2935               	/* epilogue start */
 2936 01a2 0F90      		pop __tmp_reg__
 2937 01a4 0F90      		pop __tmp_reg__
 2938 01a6 0F90      		pop __tmp_reg__
 2939 01a8 0F90      		pop __tmp_reg__
 2940 01aa DF91      		pop r29
 2941 01ac CF91      		pop r28
 2942 01ae 1F91      		pop r17
 2943 01b0 0F91      		pop r16
 2944 01b2 FF90      		pop r15
 2945 01b4 EF90      		pop r14
 2946 01b6 DF90      		pop r13
 2947 01b8 CF90      		pop r12
 2948 01ba BF90      		pop r11
GAS LISTING /tmp/ccIJIBIx.s 			page 53


 2949 01bc AF90      		pop r10
 2950 01be 9F90      		pop r9
 2951 01c0 8F90      		pop r8
 2952 01c2 7F90      		pop r7
 2953 01c4 6F90      		pop r6
 2954 01c6 5F90      		pop r5
 2955 01c8 4F90      		pop r4
 2956 01ca 0895      		ret
 2957               		.size	codearith, .-codearith
 2958               		.section	.text.codecomp,"ax",@progbits
 2959               		.type	codecomp, @function
 2960               	codecomp:
 2961 0000 8F92      		push r8
 2962 0002 9F92      		push r9
 2963 0004 AF92      		push r10
 2964 0006 BF92      		push r11
 2965 0008 CF92      		push r12
 2966 000a DF92      		push r13
 2967 000c EF92      		push r14
 2968 000e FF92      		push r15
 2969 0010 0F93      		push r16
 2970 0012 1F93      		push r17
 2971 0014 CF93      		push r28
 2972 0016 DF93      		push r29
 2973 0018 00D0      		rcall .
 2974 001a 1F92      		push __zero_reg__
 2975 001c CDB7      		in r28,__SP_L__
 2976 001e DEB7      		in r29,__SP_H__
 2977               	/* prologue: function */
 2978               	/* frame size = 4 */
 2979               	/* stack size = 16 */
 2980               	.L__stack_usage = 16
 2981 0020 4C01      		movw r8,r24
 2982 0022 6B01      		movw r12,r22
 2983 0024 7901      		movw r14,r18
 2984 0026 B901      		movw r22,r18
 2985 0028 4B83      		std Y+3,r20
 2986 002a 5C83      		std Y+4,r21
 2987 002c 0E94 0000 		call luaK_exp2RK
 2988 0030 9C01      		movw r18,r24
 2989 0032 B801      		movw r22,r16
 2990 0034 C401      		movw r24,r8
 2991 0036 2983      		std Y+1,r18
 2992 0038 3A83      		std Y+2,r19
 2993 003a 0E94 0000 		call luaK_exp2RK
 2994 003e 5C01      		movw r10,r24
 2995 0040 B801      		movw r22,r16
 2996 0042 C401      		movw r24,r8
 2997 0044 0E94 0000 		call freeexp
 2998 0048 B701      		movw r22,r14
 2999 004a C401      		movw r24,r8
 3000 004c 0E94 0000 		call freeexp
 3001 0050 4B81      		ldd r20,Y+3
 3002 0052 5C81      		ldd r21,Y+4
 3003 0054 2981      		ldd r18,Y+1
 3004 0056 3A81      		ldd r19,Y+2
 3005 0058 4115      		cp r20,__zero_reg__
GAS LISTING /tmp/ccIJIBIx.s 			page 54


 3006 005a 5105      		cpc r21,__zero_reg__
 3007 005c 01F4      		brne .L199
 3008 005e 87E1      		ldi r24,23
 3009 0060 C816      		cp r12,r24
 3010 0062 D104      		cpc r13,__zero_reg__
 3011 0064 01F0      		breq .L199
 3012 0066 922F      		mov r25,r18
 3013 0068 832F      		mov r24,r19
 3014 006a 9501      		movw r18,r10
 3015 006c A92E      		mov r10,r25
 3016 006e B82E      		mov r11,r24
 3017 0070 41E0      		ldi r20,lo8(1)
 3018 0072 50E0      		ldi r21,0
 3019               	.L199:
 3020 0074 8501      		movw r16,r10
 3021 0076 B601      		movw r22,r12
 3022 0078 C401      		movw r24,r8
 3023 007a 0E94 0000 		call luaK_codeABC
 3024 007e C401      		movw r24,r8
 3025 0080 0E94 0000 		call luaK_jump
 3026 0084 F701      		movw r30,r14
 3027 0086 9383      		std Z+3,r25
 3028 0088 8283      		std Z+2,r24
 3029 008a 8AE0      		ldi r24,lo8(10)
 3030 008c 90E0      		ldi r25,0
 3031 008e 9183      		std Z+1,r25
 3032 0090 8083      		st Z,r24
 3033               	/* epilogue start */
 3034 0092 0F90      		pop __tmp_reg__
 3035 0094 0F90      		pop __tmp_reg__
 3036 0096 0F90      		pop __tmp_reg__
 3037 0098 0F90      		pop __tmp_reg__
 3038 009a DF91      		pop r29
 3039 009c CF91      		pop r28
 3040 009e 1F91      		pop r17
 3041 00a0 0F91      		pop r16
 3042 00a2 FF90      		pop r15
 3043 00a4 EF90      		pop r14
 3044 00a6 DF90      		pop r13
 3045 00a8 CF90      		pop r12
 3046 00aa BF90      		pop r11
 3047 00ac AF90      		pop r10
 3048 00ae 9F90      		pop r9
 3049 00b0 8F90      		pop r8
 3050 00b2 0895      		ret
 3051               		.size	codecomp, .-codecomp
 3052               		.section	.text.luaK_posfix,"ax",@progbits
 3053               	.global	luaK_posfix
 3054               		.hidden	luaK_posfix
 3055               		.type	luaK_posfix, @function
 3056               	luaK_posfix:
 3057 0000 CF92      		push r12
 3058 0002 DF92      		push r13
 3059 0004 EF92      		push r14
 3060 0006 FF92      		push r15
 3061 0008 0F93      		push r16
 3062 000a 1F93      		push r17
GAS LISTING /tmp/ccIJIBIx.s 			page 55


 3063 000c CF93      		push r28
 3064 000e DF93      		push r29
 3065               	/* prologue: function */
 3066               	/* frame size = 0 */
 3067               	/* stack size = 8 */
 3068               	.L__stack_usage = 8
 3069 0010 EC01      		movw r28,r24
 3070 0012 7A01      		movw r14,r20
 3071 0014 8901      		movw r16,r18
 3072 0016 6F30      		cpi r22,15
 3073 0018 7105      		cpc r23,__zero_reg__
 3074 001a 00F0      		brlo .+2
 3075 001c 00C0      		rjmp .L203
 3076 001e FB01      		movw r30,r22
 3077 0020 8827      		clr r24
 3078 0022 E050      		subi r30,pm_lo8(-(.L206))
 3079 0024 F040      		sbci r31,pm_hi8(-(.L206))
 3080 0026 8040      		sbci r24,pm_hh8(-(.L206))
 3081 0028 0C94 0000 		jmp __tablejump2__
 3082               		.section	.progmem.gcc_sw_table.luaK_posfix,"a",@progbits
 3083               		.p2align	1
 3084               	.L206:
 3085 0000 0000      		.word gs(.L205)
 3086 0002 0000      		.word gs(.L207)
 3087 0004 0000      		.word gs(.L208)
 3088 0006 0000      		.word gs(.L209)
 3089 0008 0000      		.word gs(.L210)
 3090 000a 0000      		.word gs(.L211)
 3091 000c 0000      		.word gs(.L212)
 3092 000e 0000      		.word gs(.L213)
 3093 0010 0000      		.word gs(.L214)
 3094 0012 0000      		.word gs(.L215)
 3095 0014 0000      		.word gs(.L216)
 3096 0016 0000      		.word gs(.L217)
 3097 0018 0000      		.word gs(.L218)
 3098 001a 0000      		.word gs(.L219)
 3099 001c 0000      		.word gs(.L220)
 3100               		.section	.text.luaK_posfix
 3101               	.L219:
 3102 002c B901      		movw r22,r18
 3103 002e CE01      		movw r24,r28
 3104 0030 0E94 0000 		call luaK_dischargevars
 3105 0034 D701      		movw r26,r14
 3106 0036 1896      		adiw r26,8
 3107 0038 4D91      		ld r20,X+
 3108 003a 5C91      		ld r21,X
 3109 003c 1997      		sbiw r26,8+1
 3110 003e B801      		movw r22,r16
 3111 0040 685F      		subi r22,-8
 3112 0042 7F4F      		sbci r23,-1
 3113 0044 00C0      		rjmp .L224
 3114               	.L220:
 3115 0046 B901      		movw r22,r18
 3116 0048 CE01      		movw r24,r28
 3117 004a 0E94 0000 		call luaK_dischargevars
 3118 004e F701      		movw r30,r14
 3119 0050 4681      		ldd r20,Z+6
GAS LISTING /tmp/ccIJIBIx.s 			page 56


 3120 0052 5781      		ldd r21,Z+7
 3121 0054 B801      		movw r22,r16
 3122 0056 6A5F      		subi r22,-6
 3123 0058 7F4F      		sbci r23,-1
 3124               	.L224:
 3125 005a CE01      		movw r24,r28
 3126 005c 0E94 0000 		call luaK_concat
 3127 0060 8AE0      		ldi r24,lo8(10)
 3128 0062 F801      		movw r30,r16
 3129 0064 D701      		movw r26,r14
 3130               		0:
 3131 0066 0190      		ld r0,Z+
 3132 0068 0D92      		st X+,r0
 3133 006a 8A95      		dec r24
 3134 006c 01F4      		brne 0b
 3135 006e 00C0      		rjmp .L203
 3136               	.L212:
 3137 0070 B901      		movw r22,r18
 3138 0072 CE01      		movw r24,r28
 3139 0074 0E94 0000 		call luaK_exp2val
 3140 0078 D801      		movw r26,r16
 3141 007a CD90      		ld r12,X+
 3142 007c DC90      		ld r13,X
 3143 007e BBE0      		ldi r27,11
 3144 0080 CB16      		cp r12,r27
 3145 0082 D104      		cpc r13,__zero_reg__
 3146 0084 01F0      		breq .+2
 3147 0086 00C0      		rjmp .L221
 3148 0088 A881      		ld r26,Y
 3149 008a B981      		ldd r27,Y+1
 3150 008c F801      		movw r30,r16
 3151 008e 8281      		ldd r24,Z+2
 3152 0090 9381      		ldd r25,Z+3
 3153 0092 FC01      		movw r30,r24
 3154 0094 EE0F      		lsl r30
 3155 0096 FF1F      		rol r31
 3156 0098 EE0F      		lsl r30
 3157 009a FF1F      		rol r31
 3158 009c 1696      		adiw r26,6
 3159 009e 8D91      		ld r24,X+
 3160 00a0 9C91      		ld r25,X
 3161 00a2 1797      		sbiw r26,6+1
 3162 00a4 E80F      		add r30,r24
 3163 00a6 F91F      		adc r31,r25
 3164 00a8 8081      		ld r24,Z
 3165 00aa 9181      		ldd r25,Z+1
 3166 00ac 8F73      		andi r24,63
 3167 00ae 9927      		clr r25
 3168 00b0 4597      		sbiw r24,21
 3169 00b2 01F4      		brne .L221
 3170 00b4 B701      		movw r22,r14
 3171 00b6 CE01      		movw r24,r28
 3172 00b8 0E94 0000 		call freeexp
 3173 00bc A881      		ld r26,Y
 3174 00be B981      		ldd r27,Y+1
 3175 00c0 E801      		movw r28,r16
 3176 00c2 EA81      		ldd r30,Y+2
GAS LISTING /tmp/ccIJIBIx.s 			page 57


 3177 00c4 FB81      		ldd r31,Y+3
 3178 00c6 EE0F      		lsl r30
 3179 00c8 FF1F      		rol r31
 3180 00ca EE0F      		lsl r30
 3181 00cc FF1F      		rol r31
 3182 00ce 1696      		adiw r26,6
 3183 00d0 8D91      		ld r24,X+
 3184 00d2 9C91      		ld r25,X
 3185 00d4 1797      		sbiw r26,6+1
 3186 00d6 E80F      		add r30,r24
 3187 00d8 F91F      		adc r31,r25
 3188 00da 8081      		ld r24,Z
 3189 00dc 9181      		ldd r25,Z+1
 3190 00de A281      		ldd r26,Z+2
 3191 00e0 B381      		ldd r27,Z+3
 3192 00e2 AC01      		movw r20,r24
 3193 00e4 BD01      		movw r22,r26
 3194 00e6 6F77      		andi r22,127
 3195 00e8 7727      		clr r23
 3196 00ea D701      		movw r26,r14
 3197 00ec 1296      		adiw r26,2
 3198 00ee 8D91      		ld r24,X+
 3199 00f0 9C91      		ld r25,X
 3200 00f2 1397      		sbiw r26,2+1
 3201 00f4 092E      		mov __tmp_reg__,r25
 3202 00f6 000C      		lsl r0
 3203 00f8 AA0B      		sbc r26,r26
 3204 00fa BB0B      		sbc r27,r27
 3205 00fc 27E1      		ldi r18,23
 3206               		1:
 3207 00fe 880F      		lsl r24
 3208 0100 991F      		rol r25
 3209 0102 AA1F      		rol r26
 3210 0104 BB1F      		rol r27
 3211 0106 2A95      		dec r18
 3212 0108 01F4      		brne 1b
 3213 010a 842B      		or r24,r20
 3214 010c 952B      		or r25,r21
 3215 010e A62B      		or r26,r22
 3216 0110 B72B      		or r27,r23
 3217 0112 8083      		st Z,r24
 3218 0114 9183      		std Z+1,r25
 3219 0116 A283      		std Z+2,r26
 3220 0118 B383      		std Z+3,r27
 3221 011a E701      		movw r28,r14
 3222 011c D982      		std Y+1,r13
 3223 011e C882      		st Y,r12
 3224 0120 F801      		movw r30,r16
 3225 0122 8281      		ldd r24,Z+2
 3226 0124 9381      		ldd r25,Z+3
 3227 0126 9B83      		std Y+3,r25
 3228 0128 8A83      		std Y+2,r24
 3229 012a 00C0      		rjmp .L203
 3230               	.L221:
 3231 012c B801      		movw r22,r16
 3232 012e CE01      		movw r24,r28
 3233 0130 0E94 0000 		call luaK_exp2nextreg
GAS LISTING /tmp/ccIJIBIx.s 			page 58


 3234 0134 9801      		movw r18,r16
 3235 0136 A701      		movw r20,r14
 3236 0138 65E1      		ldi r22,lo8(21)
 3237 013a 70E0      		ldi r23,0
 3238 013c 00C0      		rjmp .L225
 3239               	.L205:
 3240 013e 6CE0      		ldi r22,lo8(12)
 3241 0140 70E0      		ldi r23,0
 3242 0142 00C0      		rjmp .L225
 3243               	.L207:
 3244 0144 6DE0      		ldi r22,lo8(13)
 3245 0146 70E0      		ldi r23,0
 3246 0148 00C0      		rjmp .L225
 3247               	.L208:
 3248 014a 6EE0      		ldi r22,lo8(14)
 3249 014c 70E0      		ldi r23,0
 3250 014e 00C0      		rjmp .L225
 3251               	.L209:
 3252 0150 6FE0      		ldi r22,lo8(15)
 3253 0152 70E0      		ldi r23,0
 3254 0154 00C0      		rjmp .L225
 3255               	.L210:
 3256 0156 60E1      		ldi r22,lo8(16)
 3257 0158 70E0      		ldi r23,0
 3258 015a 00C0      		rjmp .L225
 3259               	.L211:
 3260 015c 61E1      		ldi r22,lo8(17)
 3261 015e 70E0      		ldi r23,0
 3262               	.L225:
 3263 0160 CE01      		movw r24,r28
 3264               	/* epilogue start */
 3265 0162 DF91      		pop r29
 3266 0164 CF91      		pop r28
 3267 0166 1F91      		pop r17
 3268 0168 0F91      		pop r16
 3269 016a FF90      		pop r15
 3270 016c EF90      		pop r14
 3271 016e DF90      		pop r13
 3272 0170 CF90      		pop r12
 3273 0172 0C94 0000 		jmp codearith
 3274               	.L214:
 3275 0176 9A01      		movw r18,r20
 3276 0178 41E0      		ldi r20,lo8(1)
 3277 017a 50E0      		ldi r21,0
 3278 017c 00C0      		rjmp .L227
 3279               	.L213:
 3280 017e 9A01      		movw r18,r20
 3281 0180 40E0      		ldi r20,0
 3282 0182 50E0      		ldi r21,0
 3283               	.L227:
 3284 0184 67E1      		ldi r22,lo8(23)
 3285 0186 70E0      		ldi r23,0
 3286 0188 00C0      		rjmp .L223
 3287               	.L215:
 3288 018a 9A01      		movw r18,r20
 3289 018c 41E0      		ldi r20,lo8(1)
 3290 018e 50E0      		ldi r21,0
GAS LISTING /tmp/ccIJIBIx.s 			page 59


 3291 0190 00C0      		rjmp .L226
 3292               	.L216:
 3293 0192 9A01      		movw r18,r20
 3294 0194 41E0      		ldi r20,lo8(1)
 3295 0196 50E0      		ldi r21,0
 3296 0198 00C0      		rjmp .L222
 3297               	.L217:
 3298 019a 9A01      		movw r18,r20
 3299 019c 40E0      		ldi r20,0
 3300 019e 50E0      		ldi r21,0
 3301               	.L226:
 3302 01a0 68E1      		ldi r22,lo8(24)
 3303 01a2 70E0      		ldi r23,0
 3304 01a4 00C0      		rjmp .L223
 3305               	.L218:
 3306 01a6 9A01      		movw r18,r20
 3307 01a8 40E0      		ldi r20,0
 3308 01aa 50E0      		ldi r21,0
 3309               	.L222:
 3310 01ac 69E1      		ldi r22,lo8(25)
 3311 01ae 70E0      		ldi r23,0
 3312               	.L223:
 3313 01b0 CE01      		movw r24,r28
 3314 01b2 0E94 0000 		call codecomp
 3315               	.L203:
 3316               	/* epilogue start */
 3317 01b6 DF91      		pop r29
 3318 01b8 CF91      		pop r28
 3319 01ba 1F91      		pop r17
 3320 01bc 0F91      		pop r16
 3321 01be FF90      		pop r15
 3322 01c0 EF90      		pop r14
 3323 01c2 DF90      		pop r13
 3324 01c4 CF90      		pop r12
 3325 01c6 0895      		ret
 3326               		.size	luaK_posfix, .-luaK_posfix
 3327               		.section	.text.luaK_self,"ax",@progbits
 3328               	.global	luaK_self
 3329               		.hidden	luaK_self
 3330               		.type	luaK_self, @function
 3331               	luaK_self:
 3332 0000 AF92      		push r10
 3333 0002 BF92      		push r11
 3334 0004 CF92      		push r12
 3335 0006 DF92      		push r13
 3336 0008 EF92      		push r14
 3337 000a FF92      		push r15
 3338 000c 0F93      		push r16
 3339 000e 1F93      		push r17
 3340 0010 CF93      		push r28
 3341 0012 DF93      		push r29
 3342               	/* prologue: function */
 3343               	/* frame size = 0 */
 3344               	/* stack size = 10 */
 3345               	.L__stack_usage = 10
 3346 0014 EC01      		movw r28,r24
 3347 0016 7B01      		movw r14,r22
GAS LISTING /tmp/ccIJIBIx.s 			page 60


 3348 0018 5A01      		movw r10,r20
 3349 001a 0E94 0000 		call luaK_exp2anyreg
 3350 001e B701      		movw r22,r14
 3351 0020 CE01      		movw r24,r28
 3352 0022 0E94 0000 		call freeexp
 3353 0026 CA88      		ldd r12,Y+18
 3354 0028 DB88      		ldd r13,Y+19
 3355 002a 62E0      		ldi r22,lo8(2)
 3356 002c 70E0      		ldi r23,0
 3357 002e CE01      		movw r24,r28
 3358 0030 0E94 0000 		call luaK_reserveregs
 3359 0034 B501      		movw r22,r10
 3360 0036 CE01      		movw r24,r28
 3361 0038 0E94 0000 		call luaK_exp2RK
 3362 003c F701      		movw r30,r14
 3363 003e 2281      		ldd r18,Z+2
 3364 0040 3381      		ldd r19,Z+3
 3365 0042 8C01      		movw r16,r24
 3366 0044 A601      		movw r20,r12
 3367 0046 6BE0      		ldi r22,lo8(11)
 3368 0048 70E0      		ldi r23,0
 3369 004a CE01      		movw r24,r28
 3370 004c 0E94 0000 		call luaK_codeABC
 3371 0050 B501      		movw r22,r10
 3372 0052 CE01      		movw r24,r28
 3373 0054 0E94 0000 		call freeexp
 3374 0058 F701      		movw r30,r14
 3375 005a D382      		std Z+3,r13
 3376 005c C282      		std Z+2,r12
 3377 005e 8CE0      		ldi r24,lo8(12)
 3378 0060 90E0      		ldi r25,0
 3379 0062 9183      		std Z+1,r25
 3380 0064 8083      		st Z,r24
 3381               	/* epilogue start */
 3382 0066 DF91      		pop r29
 3383 0068 CF91      		pop r28
 3384 006a 1F91      		pop r17
 3385 006c 0F91      		pop r16
 3386 006e FF90      		pop r15
 3387 0070 EF90      		pop r14
 3388 0072 DF90      		pop r13
 3389 0074 CF90      		pop r12
 3390 0076 BF90      		pop r11
 3391 0078 AF90      		pop r10
 3392 007a 0895      		ret
 3393               		.size	luaK_self, .-luaK_self
 3394               		.section	.text.jumponcond,"ax",@progbits
 3395               		.type	jumponcond, @function
 3396               	jumponcond:
 3397 0000 EF92      		push r14
 3398 0002 FF92      		push r15
 3399 0004 0F93      		push r16
 3400 0006 1F93      		push r17
 3401 0008 CF93      		push r28
 3402 000a DF93      		push r29
 3403               	/* prologue: function */
 3404               	/* frame size = 0 */
GAS LISTING /tmp/ccIJIBIx.s 			page 61


 3405               	/* stack size = 6 */
 3406               	.L__stack_usage = 6
 3407 000c EC01      		movw r28,r24
 3408 000e 7B01      		movw r14,r22
 3409 0010 8A01      		movw r16,r20
 3410 0012 FB01      		movw r30,r22
 3411 0014 8081      		ld r24,Z
 3412 0016 9181      		ldd r25,Z+1
 3413 0018 8B30      		cpi r24,11
 3414 001a 9105      		cpc r25,__zero_reg__
 3415 001c 01F4      		brne .L230
 3416 001e A881      		ld r26,Y
 3417 0020 B981      		ldd r27,Y+1
 3418 0022 8281      		ldd r24,Z+2
 3419 0024 9381      		ldd r25,Z+3
 3420 0026 FC01      		movw r30,r24
 3421 0028 EE0F      		lsl r30
 3422 002a FF1F      		rol r31
 3423 002c EE0F      		lsl r30
 3424 002e FF1F      		rol r31
 3425 0030 1696      		adiw r26,6
 3426 0032 8D91      		ld r24,X+
 3427 0034 9C91      		ld r25,X
 3428 0036 1797      		sbiw r26,6+1
 3429 0038 E80F      		add r30,r24
 3430 003a F91F      		adc r31,r25
 3431 003c 4081      		ld r20,Z
 3432 003e 5181      		ldd r21,Z+1
 3433 0040 6281      		ldd r22,Z+2
 3434 0042 7381      		ldd r23,Z+3
 3435 0044 CA01      		movw r24,r20
 3436 0046 8F73      		andi r24,63
 3437 0048 9927      		clr r25
 3438 004a 4397      		sbiw r24,19
 3439 004c 01F4      		brne .L231
 3440 004e 8C85      		ldd r24,Y+12
 3441 0050 9D85      		ldd r25,Y+13
 3442 0052 0197      		sbiw r24,1
 3443 0054 9D87      		std Y+13,r25
 3444 0056 8C87      		std Y+12,r24
 3445 0058 81E0      		ldi r24,lo8(1)
 3446 005a 90E0      		ldi r25,0
 3447 005c 012B      		or r16,r17
 3448 005e 01F0      		breq .L232
 3449 0060 80E0      		ldi r24,0
 3450 0062 90E0      		ldi r25,0
 3451               	.L232:
 3452 0064 27E1      		ldi r18,23
 3453               		1:
 3454 0066 7695      		lsr r23
 3455 0068 6795      		ror r22
 3456 006a 5795      		ror r21
 3457 006c 4795      		ror r20
 3458 006e 2A95      		dec r18
 3459 0070 01F4      		brne 1b
 3460 0072 8C01      		movw r16,r24
 3461 0074 20E0      		ldi r18,0
GAS LISTING /tmp/ccIJIBIx.s 			page 62


 3462 0076 30E0      		ldi r19,0
 3463 0078 6AE1      		ldi r22,lo8(26)
 3464 007a 70E0      		ldi r23,0
 3465 007c 00C0      		rjmp .L240
 3466               	.L230:
 3467 007e 0C97      		sbiw r24,12
 3468 0080 01F0      		breq .L233
 3469               	.L231:
 3470 0082 61E0      		ldi r22,lo8(1)
 3471 0084 70E0      		ldi r23,0
 3472 0086 CE01      		movw r24,r28
 3473 0088 0E94 0000 		call luaK_reserveregs
 3474 008c 4A89      		ldd r20,Y+18
 3475 008e 5B89      		ldd r21,Y+19
 3476 0090 4150      		subi r20,1
 3477 0092 5109      		sbc r21,__zero_reg__
 3478 0094 B701      		movw r22,r14
 3479 0096 CE01      		movw r24,r28
 3480 0098 0E94 0000 		call discharge2reg
 3481               	.L233:
 3482 009c B701      		movw r22,r14
 3483 009e CE01      		movw r24,r28
 3484 00a0 0E94 0000 		call freeexp
 3485 00a4 F701      		movw r30,r14
 3486 00a6 2281      		ldd r18,Z+2
 3487 00a8 3381      		ldd r19,Z+3
 3488 00aa 4FEF      		ldi r20,lo8(-1)
 3489 00ac 50E0      		ldi r21,0
 3490 00ae 6BE1      		ldi r22,lo8(27)
 3491 00b0 70E0      		ldi r23,0
 3492               	.L240:
 3493 00b2 CE01      		movw r24,r28
 3494 00b4 0E94 0000 		call luaK_codeABC
 3495 00b8 CE01      		movw r24,r28
 3496               	/* epilogue start */
 3497 00ba DF91      		pop r29
 3498 00bc CF91      		pop r28
 3499 00be 1F91      		pop r17
 3500 00c0 0F91      		pop r16
 3501 00c2 FF90      		pop r15
 3502 00c4 EF90      		pop r14
 3503 00c6 0C94 0000 		jmp luaK_jump
 3504               		.size	jumponcond, .-jumponcond
 3505               		.section	.text.luaK_goiftrue,"ax",@progbits
 3506               	.global	luaK_goiftrue
 3507               		.hidden	luaK_goiftrue
 3508               		.type	luaK_goiftrue, @function
 3509               	luaK_goiftrue:
 3510 0000 0F93      		push r16
 3511 0002 1F93      		push r17
 3512 0004 CF93      		push r28
 3513 0006 DF93      		push r29
 3514               	/* prologue: function */
 3515               	/* frame size = 0 */
 3516               	/* stack size = 4 */
 3517               	.L__stack_usage = 4
 3518 0008 8C01      		movw r16,r24
GAS LISTING /tmp/ccIJIBIx.s 			page 63


 3519 000a EB01      		movw r28,r22
 3520 000c 0E94 0000 		call luaK_dischargevars
 3521 0010 8881      		ld r24,Y
 3522 0012 9981      		ldd r25,Y+1
 3523 0014 8630      		cpi r24,6
 3524 0016 9105      		cpc r25,__zero_reg__
 3525 0018 00F4      		brsh .L243
 3526 001a 8430      		cpi r24,4
 3527 001c 9105      		cpc r25,__zero_reg__
 3528 001e 00F4      		brsh .L247
 3529 0020 8230      		cpi r24,2
 3530 0022 9105      		cpc r25,__zero_reg__
 3531 0024 01F0      		breq .L247
 3532 0026 0397      		sbiw r24,3
 3533 0028 01F4      		brne .L242
 3534 002a C801      		movw r24,r16
 3535 002c 0E94 0000 		call luaK_jump
 3536 0030 00C0      		rjmp .L244
 3537               	.L243:
 3538 0032 0A97      		sbiw r24,10
 3539 0034 01F4      		brne .L242
 3540 0036 6A81      		ldd r22,Y+2
 3541 0038 7B81      		ldd r23,Y+3
 3542 003a C801      		movw r24,r16
 3543 003c 0E94 0000 		call invertjump.isra.3
 3544 0040 8A81      		ldd r24,Y+2
 3545 0042 9B81      		ldd r25,Y+3
 3546 0044 00C0      		rjmp .L244
 3547               	.L242:
 3548 0046 40E0      		ldi r20,0
 3549 0048 50E0      		ldi r21,0
 3550 004a BE01      		movw r22,r28
 3551 004c C801      		movw r24,r16
 3552 004e 0E94 0000 		call jumponcond
 3553 0052 00C0      		rjmp .L244
 3554               	.L247:
 3555 0054 8FEF      		ldi r24,lo8(-1)
 3556 0056 9FEF      		ldi r25,lo8(-1)
 3557               	.L244:
 3558 0058 BE01      		movw r22,r28
 3559 005a 685F      		subi r22,-8
 3560 005c 7F4F      		sbci r23,-1
 3561 005e AC01      		movw r20,r24
 3562 0060 C801      		movw r24,r16
 3563 0062 0E94 0000 		call luaK_concat
 3564 0066 6E81      		ldd r22,Y+6
 3565 0068 7F81      		ldd r23,Y+7
 3566 006a C801      		movw r24,r16
 3567 006c 0E94 0000 		call luaK_patchtohere
 3568 0070 8FEF      		ldi r24,lo8(-1)
 3569 0072 9FEF      		ldi r25,lo8(-1)
 3570 0074 9F83      		std Y+7,r25
 3571 0076 8E83      		std Y+6,r24
 3572               	/* epilogue start */
 3573 0078 DF91      		pop r29
 3574 007a CF91      		pop r28
 3575 007c 1F91      		pop r17
GAS LISTING /tmp/ccIJIBIx.s 			page 64


 3576 007e 0F91      		pop r16
 3577 0080 0895      		ret
 3578               		.size	luaK_goiftrue, .-luaK_goiftrue
 3579               		.section	.text.luaK_infix,"ax",@progbits
 3580               	.global	luaK_infix
 3581               		.hidden	luaK_infix
 3582               		.type	luaK_infix, @function
 3583               	luaK_infix:
 3584 0000 0F93      		push r16
 3585 0002 1F93      		push r17
 3586 0004 CF93      		push r28
 3587 0006 DF93      		push r29
 3588               	/* prologue: function */
 3589               	/* frame size = 0 */
 3590               	/* stack size = 4 */
 3591               	.L__stack_usage = 4
 3592 0008 8C01      		movw r16,r24
 3593 000a EA01      		movw r28,r20
 3594 000c 6630      		cpi r22,6
 3595 000e 7105      		cpc r23,__zero_reg__
 3596 0010 01F4      		brne .+2
 3597 0012 00C0      		rjmp .L253
 3598 0014 00F4      		brsh .+2
 3599 0016 00C0      		rjmp .L254
 3600 0018 6D30      		cpi r22,13
 3601 001a 7105      		cpc r23,__zero_reg__
 3602 001c 01F0      		breq .L255
 3603 001e 6E30      		cpi r22,14
 3604 0020 7105      		cpc r23,__zero_reg__
 3605 0022 01F0      		breq .L256
 3606 0024 00C0      		rjmp .L270
 3607               	.L255:
 3608 0026 BA01      		movw r22,r20
 3609               	/* epilogue start */
 3610 0028 DF91      		pop r29
 3611 002a CF91      		pop r28
 3612 002c 1F91      		pop r17
 3613 002e 0F91      		pop r16
 3614 0030 0C94 0000 		jmp luaK_goiftrue
 3615               	.L256:
 3616 0034 BA01      		movw r22,r20
 3617 0036 0E94 0000 		call luaK_dischargevars
 3618 003a 8881      		ld r24,Y
 3619 003c 9981      		ldd r25,Y+1
 3620 003e 8230      		cpi r24,2
 3621 0040 9105      		cpc r25,__zero_reg__
 3622 0042 01F0      		breq .L258
 3623 0044 00F4      		brsh .L259
 3624 0046 0197      		sbiw r24,1
 3625 0048 01F0      		breq .L263
 3626 004a 00C0      		rjmp .L257
 3627               	.L259:
 3628 004c 8330      		cpi r24,3
 3629 004e 9105      		cpc r25,__zero_reg__
 3630 0050 01F0      		breq .L263
 3631 0052 0A97      		sbiw r24,10
 3632 0054 01F4      		brne .L257
GAS LISTING /tmp/ccIJIBIx.s 			page 65


 3633 0056 8A81      		ldd r24,Y+2
 3634 0058 9B81      		ldd r25,Y+3
 3635 005a 00C0      		rjmp .L260
 3636               	.L258:
 3637 005c C801      		movw r24,r16
 3638 005e 0E94 0000 		call luaK_jump
 3639 0062 00C0      		rjmp .L260
 3640               	.L257:
 3641 0064 41E0      		ldi r20,lo8(1)
 3642 0066 50E0      		ldi r21,0
 3643 0068 BE01      		movw r22,r28
 3644 006a C801      		movw r24,r16
 3645 006c 0E94 0000 		call jumponcond
 3646 0070 00C0      		rjmp .L260
 3647               	.L263:
 3648 0072 8FEF      		ldi r24,lo8(-1)
 3649 0074 9FEF      		ldi r25,lo8(-1)
 3650               	.L260:
 3651 0076 BE01      		movw r22,r28
 3652 0078 6A5F      		subi r22,-6
 3653 007a 7F4F      		sbci r23,-1
 3654 007c AC01      		movw r20,r24
 3655 007e C801      		movw r24,r16
 3656 0080 0E94 0000 		call luaK_concat
 3657 0084 6885      		ldd r22,Y+8
 3658 0086 7985      		ldd r23,Y+9
 3659 0088 C801      		movw r24,r16
 3660 008a 0E94 0000 		call luaK_patchtohere
 3661 008e 8FEF      		ldi r24,lo8(-1)
 3662 0090 9FEF      		ldi r25,lo8(-1)
 3663 0092 9987      		std Y+9,r25
 3664 0094 8887      		std Y+8,r24
 3665 0096 00C0      		rjmp .L251
 3666               	.L253:
 3667 0098 BA01      		movw r22,r20
 3668               	/* epilogue start */
 3669 009a DF91      		pop r29
 3670 009c CF91      		pop r28
 3671 009e 1F91      		pop r17
 3672 00a0 0F91      		pop r16
 3673 00a2 0C94 0000 		jmp luaK_exp2nextreg
 3674               	.L254:
 3675 00a6 CA01      		movw r24,r20
 3676 00a8 0E94 0000 		call isnumeral
 3677 00ac 892B      		or r24,r25
 3678 00ae 01F4      		brne .L251
 3679               	.L270:
 3680 00b0 BE01      		movw r22,r28
 3681 00b2 C801      		movw r24,r16
 3682               	/* epilogue start */
 3683 00b4 DF91      		pop r29
 3684 00b6 CF91      		pop r28
 3685 00b8 1F91      		pop r17
 3686 00ba 0F91      		pop r16
 3687 00bc 0C94 0000 		jmp luaK_exp2RK
 3688               	.L251:
 3689               	/* epilogue start */
GAS LISTING /tmp/ccIJIBIx.s 			page 66


 3690 00c0 DF91      		pop r29
 3691 00c2 CF91      		pop r28
 3692 00c4 1F91      		pop r17
 3693 00c6 0F91      		pop r16
 3694 00c8 0895      		ret
 3695               		.size	luaK_infix, .-luaK_infix
 3696               		.section	.text.luaK_prefix,"ax",@progbits
 3697               	.global	luaK_prefix
 3698               		.hidden	luaK_prefix
 3699               		.type	luaK_prefix, @function
 3700               	luaK_prefix:
 3701 0000 CF92      		push r12
 3702 0002 DF92      		push r13
 3703 0004 EF92      		push r14
 3704 0006 FF92      		push r15
 3705 0008 0F93      		push r16
 3706 000a 1F93      		push r17
 3707 000c CF93      		push r28
 3708 000e DF93      		push r29
 3709 0010 CDB7      		in r28,__SP_L__
 3710 0012 DEB7      		in r29,__SP_H__
 3711 0014 2A97      		sbiw r28,10
 3712 0016 0FB6      		in __tmp_reg__,__SREG__
 3713 0018 F894      		cli
 3714 001a DEBF      		out __SP_H__,r29
 3715 001c 0FBE      		out __SREG__,__tmp_reg__
 3716 001e CDBF      		out __SP_L__,r28
 3717               	/* prologue: function */
 3718               	/* frame size = 10 */
 3719               	/* stack size = 18 */
 3720               	.L__stack_usage = 18
 3721 0020 6C01      		movw r12,r24
 3722 0022 7A01      		movw r14,r20
 3723 0024 8FEF      		ldi r24,lo8(-1)
 3724 0026 9FEF      		ldi r25,lo8(-1)
 3725 0028 9A87      		std Y+10,r25
 3726 002a 8987      		std Y+9,r24
 3727 002c 9887      		std Y+8,r25
 3728 002e 8F83      		std Y+7,r24
 3729 0030 85E0      		ldi r24,lo8(5)
 3730 0032 90E0      		ldi r25,0
 3731 0034 9A83      		std Y+2,r25
 3732 0036 8983      		std Y+1,r24
 3733 0038 1B82      		std Y+3,__zero_reg__
 3734 003a 1C82      		std Y+4,__zero_reg__
 3735 003c 1D82      		std Y+5,__zero_reg__
 3736 003e 1E82      		std Y+6,__zero_reg__
 3737 0040 6130      		cpi r22,1
 3738 0042 7105      		cpc r23,__zero_reg__
 3739 0044 01F0      		breq .L273
 3740 0046 00F0      		brlo .L274
 3741 0048 6230      		cpi r22,2
 3742 004a 7105      		cpc r23,__zero_reg__
 3743 004c 01F0      		breq .+2
 3744 004e 00C0      		rjmp .L271
 3745 0050 BA01      		movw r22,r20
 3746 0052 C601      		movw r24,r12
GAS LISTING /tmp/ccIJIBIx.s 			page 67


 3747 0054 0E94 0000 		call luaK_exp2anyreg
 3748 0058 9E01      		movw r18,r28
 3749 005a 2F5F      		subi r18,-1
 3750 005c 3F4F      		sbci r19,-1
 3751 005e A701      		movw r20,r14
 3752 0060 64E1      		ldi r22,lo8(20)
 3753 0062 70E0      		ldi r23,0
 3754 0064 00C0      		rjmp .L288
 3755               	.L274:
 3756 0066 CA01      		movw r24,r20
 3757 0068 0E94 0000 		call isnumeral
 3758 006c 892B      		or r24,r25
 3759 006e 01F4      		brne .L276
 3760 0070 B701      		movw r22,r14
 3761 0072 C601      		movw r24,r12
 3762 0074 0E94 0000 		call luaK_exp2anyreg
 3763               	.L276:
 3764 0078 9E01      		movw r18,r28
 3765 007a 2F5F      		subi r18,-1
 3766 007c 3F4F      		sbci r19,-1
 3767 007e A701      		movw r20,r14
 3768 0080 62E1      		ldi r22,lo8(18)
 3769 0082 70E0      		ldi r23,0
 3770 0084 00C0      		rjmp .L288
 3771               	.L273:
 3772 0086 BA01      		movw r22,r20
 3773 0088 C601      		movw r24,r12
 3774 008a 0E94 0000 		call luaK_dischargevars
 3775 008e F701      		movw r30,r14
 3776 0090 2081      		ld r18,Z
 3777 0092 3181      		ldd r19,Z+1
 3778 0094 F901      		movw r30,r18
 3779 0096 3197      		sbiw r30,1
 3780 0098 EC30      		cpi r30,12
 3781 009a F105      		cpc r31,__zero_reg__
 3782 009c 00F4      		brsh .L277
 3783 009e 8827      		clr r24
 3784 00a0 E050      		subi r30,pm_lo8(-(.L279))
 3785 00a2 F040      		sbci r31,pm_hi8(-(.L279))
 3786 00a4 8040      		sbci r24,pm_hh8(-(.L279))
 3787 00a6 0C94 0000 		jmp __tablejump2__
 3788               		.section	.progmem.gcc_sw_table.luaK_prefix,"a",@progbits
 3789               		.p2align	1
 3790               	.L279:
 3791 0000 0000      		.word gs(.L278)
 3792 0002 0000      		.word gs(.L280)
 3793 0004 0000      		.word gs(.L278)
 3794 0006 0000      		.word gs(.L280)
 3795 0008 0000      		.word gs(.L280)
 3796 000a 0000      		.word gs(.L277)
 3797 000c 0000      		.word gs(.L277)
 3798 000e 0000      		.word gs(.L277)
 3799 0010 0000      		.word gs(.L277)
 3800 0012 0000      		.word gs(.L281)
 3801 0014 0000      		.word gs(.L282)
 3802 0016 0000      		.word gs(.L282)
 3803               		.section	.text.luaK_prefix
GAS LISTING /tmp/ccIJIBIx.s 			page 68


 3804               	.L278:
 3805 00aa 82E0      		ldi r24,lo8(2)
 3806 00ac 90E0      		ldi r25,0
 3807 00ae 00C0      		rjmp .L289
 3808               	.L280:
 3809 00b0 83E0      		ldi r24,lo8(3)
 3810 00b2 90E0      		ldi r25,0
 3811               	.L289:
 3812 00b4 F701      		movw r30,r14
 3813 00b6 00C0      		rjmp .L287
 3814               	.L281:
 3815 00b8 F701      		movw r30,r14
 3816 00ba 6281      		ldd r22,Z+2
 3817 00bc 7381      		ldd r23,Z+3
 3818 00be C601      		movw r24,r12
 3819 00c0 0E94 0000 		call invertjump.isra.3
 3820 00c4 00C0      		rjmp .L277
 3821               	.L282:
 3822 00c6 2C30      		cpi r18,12
 3823 00c8 3105      		cpc r19,__zero_reg__
 3824 00ca 01F0      		breq .L283
 3825 00cc 61E0      		ldi r22,lo8(1)
 3826 00ce 70E0      		ldi r23,0
 3827 00d0 C601      		movw r24,r12
 3828 00d2 0E94 0000 		call luaK_reserveregs
 3829 00d6 F601      		movw r30,r12
 3830 00d8 4289      		ldd r20,Z+18
 3831 00da 5389      		ldd r21,Z+19
 3832 00dc 4150      		subi r20,1
 3833 00de 5109      		sbc r21,__zero_reg__
 3834 00e0 B701      		movw r22,r14
 3835 00e2 C601      		movw r24,r12
 3836 00e4 0E94 0000 		call discharge2reg
 3837               	.L283:
 3838 00e8 B701      		movw r22,r14
 3839 00ea C601      		movw r24,r12
 3840 00ec 0E94 0000 		call freeexp
 3841 00f0 F701      		movw r30,r14
 3842 00f2 2281      		ldd r18,Z+2
 3843 00f4 3381      		ldd r19,Z+3
 3844 00f6 00E0      		ldi r16,0
 3845 00f8 10E0      		ldi r17,0
 3846 00fa 40E0      		ldi r20,0
 3847 00fc 50E0      		ldi r21,0
 3848 00fe 63E1      		ldi r22,lo8(19)
 3849 0100 70E0      		ldi r23,0
 3850 0102 C601      		movw r24,r12
 3851 0104 0E94 0000 		call luaK_codeABC
 3852 0108 F701      		movw r30,r14
 3853 010a 9383      		std Z+3,r25
 3854 010c 8283      		std Z+2,r24
 3855 010e 8BE0      		ldi r24,lo8(11)
 3856 0110 90E0      		ldi r25,0
 3857               	.L287:
 3858 0112 9183      		std Z+1,r25
 3859 0114 8083      		st Z,r24
 3860               	.L277:
GAS LISTING /tmp/ccIJIBIx.s 			page 69


 3861 0116 F701      		movw r30,r14
 3862 0118 8085      		ldd r24,Z+8
 3863 011a 9185      		ldd r25,Z+9
 3864 011c 6681      		ldd r22,Z+6
 3865 011e 7781      		ldd r23,Z+7
 3866 0120 7187      		std Z+9,r23
 3867 0122 6087      		std Z+8,r22
 3868 0124 9783      		std Z+7,r25
 3869 0126 8683      		std Z+6,r24
 3870 0128 C601      		movw r24,r12
 3871 012a 0E94 0000 		call removevalues
 3872 012e F701      		movw r30,r14
 3873 0130 6681      		ldd r22,Z+6
 3874 0132 7781      		ldd r23,Z+7
 3875 0134 C601      		movw r24,r12
 3876 0136 0E94 0000 		call removevalues
 3877 013a 00C0      		rjmp .L271
 3878               	.L288:
 3879 013c C601      		movw r24,r12
 3880 013e 0E94 0000 		call codearith
 3881               	.L271:
 3882               	/* epilogue start */
 3883 0142 2A96      		adiw r28,10
 3884 0144 0FB6      		in __tmp_reg__,__SREG__
 3885 0146 F894      		cli
 3886 0148 DEBF      		out __SP_H__,r29
 3887 014a 0FBE      		out __SREG__,__tmp_reg__
 3888 014c CDBF      		out __SP_L__,r28
 3889 014e DF91      		pop r29
 3890 0150 CF91      		pop r28
 3891 0152 1F91      		pop r17
 3892 0154 0F91      		pop r16
 3893 0156 FF90      		pop r15
 3894 0158 EF90      		pop r14
 3895 015a DF90      		pop r13
 3896 015c CF90      		pop r12
 3897 015e 0895      		ret
 3898               		.size	luaK_prefix, .-luaK_prefix
 3899               		.section	.text.luaK_storevar,"ax",@progbits
 3900               	.global	luaK_storevar
 3901               		.hidden	luaK_storevar
 3902               		.type	luaK_storevar, @function
 3903               	luaK_storevar:
 3904 0000 CF92      		push r12
 3905 0002 DF92      		push r13
 3906 0004 EF92      		push r14
 3907 0006 FF92      		push r15
 3908 0008 0F93      		push r16
 3909 000a 1F93      		push r17
 3910 000c CF93      		push r28
 3911 000e DF93      		push r29
 3912               	/* prologue: function */
 3913               	/* frame size = 0 */
 3914               	/* stack size = 8 */
 3915               	.L__stack_usage = 8
 3916 0010 EC01      		movw r28,r24
 3917 0012 6B01      		movw r12,r22
GAS LISTING /tmp/ccIJIBIx.s 			page 70


 3918 0014 7A01      		movw r14,r20
 3919 0016 FB01      		movw r30,r22
 3920 0018 8081      		ld r24,Z
 3921 001a 9181      		ldd r25,Z+1
 3922 001c 8730      		cpi r24,7
 3923 001e 9105      		cpc r25,__zero_reg__
 3924 0020 01F0      		breq .L292
 3925 0022 00F4      		brsh .L293
 3926 0024 0697      		sbiw r24,6
 3927 0026 01F0      		breq .+2
 3928 0028 00C0      		rjmp .L291
 3929 002a BA01      		movw r22,r20
 3930 002c CE01      		movw r24,r28
 3931 002e 0E94 0000 		call freeexp
 3932 0032 F601      		movw r30,r12
 3933 0034 4281      		ldd r20,Z+2
 3934 0036 5381      		ldd r21,Z+3
 3935 0038 B701      		movw r22,r14
 3936 003a CE01      		movw r24,r28
 3937               	/* epilogue start */
 3938 003c DF91      		pop r29
 3939 003e CF91      		pop r28
 3940 0040 1F91      		pop r17
 3941 0042 0F91      		pop r16
 3942 0044 FF90      		pop r15
 3943 0046 EF90      		pop r14
 3944 0048 DF90      		pop r13
 3945 004a CF90      		pop r12
 3946 004c 0C94 0000 		jmp exp2reg
 3947               	.L293:
 3948 0050 8830      		cpi r24,8
 3949 0052 9105      		cpc r25,__zero_reg__
 3950 0054 01F0      		breq .L295
 3951 0056 0997      		sbiw r24,9
 3952 0058 01F4      		brne .L291
 3953 005a BA01      		movw r22,r20
 3954 005c CE01      		movw r24,r28
 3955 005e 0E94 0000 		call luaK_exp2RK
 3956 0062 F601      		movw r30,r12
 3957 0064 2481      		ldd r18,Z+4
 3958 0066 3581      		ldd r19,Z+5
 3959 0068 4281      		ldd r20,Z+2
 3960 006a 5381      		ldd r21,Z+3
 3961 006c 8C01      		movw r16,r24
 3962 006e 69E0      		ldi r22,lo8(9)
 3963 0070 70E0      		ldi r23,0
 3964 0072 00C0      		rjmp .L297
 3965               	.L292:
 3966 0074 BA01      		movw r22,r20
 3967 0076 CE01      		movw r24,r28
 3968 0078 0E94 0000 		call luaK_exp2anyreg
 3969 007c F601      		movw r30,r12
 3970 007e 2281      		ldd r18,Z+2
 3971 0080 3381      		ldd r19,Z+3
 3972 0082 00E0      		ldi r16,0
 3973 0084 10E0      		ldi r17,0
 3974 0086 AC01      		movw r20,r24
GAS LISTING /tmp/ccIJIBIx.s 			page 71


 3975 0088 68E0      		ldi r22,lo8(8)
 3976 008a 70E0      		ldi r23,0
 3977 008c 00C0      		rjmp .L297
 3978               	.L295:
 3979 008e BA01      		movw r22,r20
 3980 0090 CE01      		movw r24,r28
 3981 0092 0E94 0000 		call luaK_exp2anyreg
 3982 0096 F601      		movw r30,r12
 3983 0098 2281      		ldd r18,Z+2
 3984 009a 3381      		ldd r19,Z+3
 3985 009c AC01      		movw r20,r24
 3986 009e 67E0      		ldi r22,lo8(7)
 3987 00a0 70E0      		ldi r23,0
 3988 00a2 CE01      		movw r24,r28
 3989 00a4 0E94 0000 		call luaK_codeABx
 3990 00a8 00C0      		rjmp .L291
 3991               	.L297:
 3992 00aa CE01      		movw r24,r28
 3993 00ac 0E94 0000 		call luaK_codeABC
 3994               	.L291:
 3995 00b0 B701      		movw r22,r14
 3996 00b2 CE01      		movw r24,r28
 3997               	/* epilogue start */
 3998 00b4 DF91      		pop r29
 3999 00b6 CF91      		pop r28
 4000 00b8 1F91      		pop r17
 4001 00ba 0F91      		pop r16
 4002 00bc FF90      		pop r15
 4003 00be EF90      		pop r14
 4004 00c0 DF90      		pop r13
 4005 00c2 CF90      		pop r12
 4006 00c4 0C94 0000 		jmp freeexp
 4007               		.size	luaK_storevar, .-luaK_storevar
 4008               		.section	.text.luaK_setlist,"ax",@progbits
 4009               	.global	luaK_setlist
 4010               		.hidden	luaK_setlist
 4011               		.type	luaK_setlist, @function
 4012               	luaK_setlist:
 4013 0000 CF92      		push r12
 4014 0002 DF92      		push r13
 4015 0004 EF92      		push r14
 4016 0006 FF92      		push r15
 4017 0008 0F93      		push r16
 4018 000a 1F93      		push r17
 4019 000c CF93      		push r28
 4020 000e DF93      		push r29
 4021               	/* prologue: function */
 4022               	/* frame size = 0 */
 4023               	/* stack size = 8 */
 4024               	.L__stack_usage = 8
 4025 0010 EC01      		movw r28,r24
 4026 0012 7B01      		movw r14,r22
 4027 0014 CA01      		movw r24,r20
 4028 0016 0197      		sbiw r24,1
 4029 0018 62E3      		ldi r22,lo8(50)
 4030 001a 70E0      		ldi r23,0
 4031 001c 0E94 0000 		call __divmodhi4
GAS LISTING /tmp/ccIJIBIx.s 			page 72


 4032 0020 6B01      		movw r12,r22
 4033 0022 8FEF      		ldi r24,-1
 4034 0024 C81A      		sub r12,r24
 4035 0026 D80A      		sbc r13,r24
 4036 0028 2F3F      		cpi r18,-1
 4037 002a 8FEF      		ldi r24,-1
 4038 002c 3807      		cpc r19,r24
 4039 002e 01F4      		brne .L299
 4040 0030 20E0      		ldi r18,0
 4041 0032 30E0      		ldi r19,0
 4042               	.L299:
 4043 0034 C114      		cp r12,__zero_reg__
 4044 0036 82E0      		ldi r24,2
 4045 0038 D806      		cpc r13,r24
 4046 003a 04F4      		brge .L300
 4047 003c 8601      		movw r16,r12
 4048 003e A701      		movw r20,r14
 4049 0040 62E2      		ldi r22,lo8(34)
 4050 0042 70E0      		ldi r23,0
 4051 0044 CE01      		movw r24,r28
 4052 0046 0E94 0000 		call luaK_codeABC
 4053 004a 00C0      		rjmp .L301
 4054               	.L300:
 4055 004c 00E0      		ldi r16,0
 4056 004e 10E0      		ldi r17,0
 4057 0050 A701      		movw r20,r14
 4058 0052 62E2      		ldi r22,lo8(34)
 4059 0054 70E0      		ldi r23,0
 4060 0056 CE01      		movw r24,r28
 4061 0058 0E94 0000 		call luaK_codeABC
 4062 005c EE81      		ldd r30,Y+6
 4063 005e FF81      		ldd r31,Y+7
 4064 0060 2481      		ldd r18,Z+4
 4065 0062 3581      		ldd r19,Z+5
 4066 0064 A601      		movw r20,r12
 4067 0066 DD0C      		lsl r13
 4068 0068 660B      		sbc r22,r22
 4069 006a 770B      		sbc r23,r23
 4070 006c CE01      		movw r24,r28
 4071 006e 0E94 0000 		call luaK_code
 4072               	.L301:
 4073 0072 A701      		movw r20,r14
 4074 0074 4F5F      		subi r20,-1
 4075 0076 5F4F      		sbci r21,-1
 4076 0078 5B8B      		std Y+19,r21
 4077 007a 4A8B      		std Y+18,r20
 4078               	/* epilogue start */
 4079 007c DF91      		pop r29
 4080 007e CF91      		pop r28
 4081 0080 1F91      		pop r17
 4082 0082 0F91      		pop r16
 4083 0084 FF90      		pop r15
 4084 0086 EF90      		pop r14
 4085 0088 DF90      		pop r13
 4086 008a CF90      		pop r12
 4087 008c 0895      		ret
 4088               		.size	luaK_setlist, .-luaK_setlist
GAS LISTING /tmp/ccIJIBIx.s 			page 73


 4089               		.hidden	luaP_opmodes
 4090               		.hidden	luaC_barrierf
 4091               		.hidden	luaM_growaux_
 4092               		.hidden	luaH_set
 4093               		.hidden	luaX_syntaxerror
 4094               		.ident	"GCC: (GNU) 5.3.0"
 4095               	.global __do_copy_data
GAS LISTING /tmp/ccIJIBIx.s 			page 74


DEFINED SYMBOLS
                            *ABS*:0000000000000000 lcode.c
     /tmp/ccIJIBIx.s:2      *ABS*:000000000000003e __SP_H__
     /tmp/ccIJIBIx.s:3      *ABS*:000000000000003d __SP_L__
     /tmp/ccIJIBIx.s:4      *ABS*:000000000000003f __SREG__
     /tmp/ccIJIBIx.s:5      *ABS*:000000000000003b __RAMPZ__
     /tmp/ccIJIBIx.s:6      *ABS*:0000000000000000 __tmp_reg__
     /tmp/ccIJIBIx.s:7      *ABS*:0000000000000001 __zero_reg__
     /tmp/ccIJIBIx.s:10     .text.isnumeral:0000000000000000 isnumeral
     /tmp/ccIJIBIx.s:45     .text.fixjump:0000000000000000 fixjump
     /tmp/ccIJIBIx.s:131    .text.addk:0000000000000000 addk
     /tmp/ccIJIBIx.s:334    .text.getjump.isra.0:0000000000000000 getjump.isra.0
     /tmp/ccIJIBIx.s:380    .text.getjumpcontrol.isra.1:0000000000000000 getjumpcontrol.isra.1
     /tmp/ccIJIBIx.s:418    .text.need_value:0000000000000000 need_value
     /tmp/ccIJIBIx.s:473    .text.patchtestreg:0000000000000000 patchtestreg
     /tmp/ccIJIBIx.s:597    .text.removevalues:0000000000000000 removevalues
     /tmp/ccIJIBIx.s:635    .text.patchlistaux:0000000000000000 patchlistaux
     /tmp/ccIJIBIx.s:704    .text.luaK_code:0000000000000000 luaK_code
     /tmp/ccIJIBIx.s:859    .text.freereg:0000000000000000 freereg
     /tmp/ccIJIBIx.s:882    .text.freeexp:0000000000000000 freeexp
     /tmp/ccIJIBIx.s:901    .text.invertjump.isra.3:0000000000000000 invertjump.isra.3
     /tmp/ccIJIBIx.s:960    .text.luaK_getlabel:0000000000000000 luaK_getlabel
     /tmp/ccIJIBIx.s:976    .text.luaK_concat:0000000000000000 luaK_concat
     /tmp/ccIJIBIx.s:1060   .text.luaK_patchtohere:0000000000000000 luaK_patchtohere
     /tmp/ccIJIBIx.s:1080   .text.luaK_patchlist:0000000000000000 luaK_patchlist
     /tmp/ccIJIBIx.s:1114   .text.luaK_checkstack:0000000000000000 luaK_checkstack
     /tmp/ccIJIBIx.s:1167   .text.luaK_reserveregs:0000000000000000 luaK_reserveregs
     /tmp/ccIJIBIx.s:1197   .text.luaK_stringK:0000000000000000 luaK_stringK
     /tmp/ccIJIBIx.s:1234   .text.luaK_numberK:0000000000000000 luaK_numberK
     /tmp/ccIJIBIx.s:1273   .text.luaK_setreturns:0000000000000000 luaK_setreturns
     /tmp/ccIJIBIx.s:1460   .text.luaK_setoneret:0000000000000000 luaK_setoneret
     /tmp/ccIJIBIx.s:1551   .text.luaK_fixline:0000000000000000 luaK_fixline
     /tmp/ccIJIBIx.s:1584   .text.luaK_codeABC:0000000000000000 luaK_codeABC
     /tmp/ccIJIBIx.s:1668   .text.luaK_nil:0000000000000000 luaK_nil
     /tmp/ccIJIBIx.s:1829   .text.luaK_ret:0000000000000000 luaK_ret
     /tmp/ccIJIBIx.s:1854   .text.luaK_codeABx:0000000000000000 luaK_codeABx
     /tmp/ccIJIBIx.s:1921   .text.luaK_jump:0000000000000000 luaK_jump
     /tmp/ccIJIBIx.s:1977   .text.luaK_dischargevars:0000000000000000 luaK_dischargevars
     /tmp/ccIJIBIx.s:2081   .text.discharge2reg:0000000000000000 discharge2reg
     /tmp/ccIJIBIx.s:2253   .text.exp2reg:0000000000000000 exp2reg
     /tmp/ccIJIBIx.s:2417   .text.luaK_exp2nextreg:0000000000000000 luaK_exp2nextreg
     /tmp/ccIJIBIx.s:2453   .text.luaK_exp2anyreg:0000000000000000 luaK_exp2anyreg
     /tmp/ccIJIBIx.s:2510   .text.luaK_exp2val:0000000000000000 luaK_exp2val
     /tmp/ccIJIBIx.s:2531   .text.luaK_exp2RK:0000000000000000 luaK_exp2RK
     /tmp/ccIJIBIx.s:2682   .text.luaK_indexed:0000000000000000 luaK_indexed
     /tmp/ccIJIBIx.s:2708   .text.codearith:0000000000000000 codearith
     /tmp/ccIJIBIx.s:2960   .text.codecomp:0000000000000000 codecomp
     /tmp/ccIJIBIx.s:3056   .text.luaK_posfix:0000000000000000 luaK_posfix
     /tmp/ccIJIBIx.s:3331   .text.luaK_self:0000000000000000 luaK_self
     /tmp/ccIJIBIx.s:3396   .text.jumponcond:0000000000000000 jumponcond
     /tmp/ccIJIBIx.s:3509   .text.luaK_goiftrue:0000000000000000 luaK_goiftrue
     /tmp/ccIJIBIx.s:3583   .text.luaK_infix:0000000000000000 luaK_infix
     /tmp/ccIJIBIx.s:3700   .text.luaK_prefix:0000000000000000 luaK_prefix
     /tmp/ccIJIBIx.s:3903   .text.luaK_storevar:0000000000000000 luaK_storevar
     /tmp/ccIJIBIx.s:4012   .text.luaK_setlist:0000000000000000 luaK_setlist

UNDEFINED SYMBOLS
GAS LISTING /tmp/ccIJIBIx.s 			page 75


luaX_syntaxerror
luaH_set
luaM_growaux_
luaC_barrierf
luaP_opmodes
__tablejump2__
__floatsisf
__addsf3
__fixsfsi
__mulsi3
__divmodsi4
pow
__divmodhi4
__do_copy_data
