GAS LISTING /tmp/ccwwE1g2.s 			page 1


   1               		.file	"ldblib.c"
   2               	__SP_H__ = 0x3e
   3               	__SP_L__ = 0x3d
   4               	__SREG__ = 0x3f
   5               	__RAMPZ__ = 0x3b
   6               	__tmp_reg__ = 0
   7               	__zero_reg__ = 1
   8               		.section	.text.auxupvalue,"ax",@progbits
   9               		.type	auxupvalue, @function
  10               	auxupvalue:
  11 0000 EF92      		push r14
  12 0002 FF92      		push r15
  13 0004 0F93      		push r16
  14 0006 1F93      		push r17
  15 0008 CF93      		push r28
  16 000a DF93      		push r29
  17               	/* prologue: function */
  18               	/* frame size = 0 */
  19               	/* stack size = 6 */
  20               	.L__stack_usage = 6
  21 000c EC01      		movw r28,r24
  22 000e 8B01      		movw r16,r22
  23 0010 62E0      		ldi r22,lo8(2)
  24 0012 70E0      		ldi r23,0
  25 0014 0E94 0000 		call luaL_checkinteger
  26 0018 7C01      		movw r14,r24
  27 001a 48E0      		ldi r20,lo8(8)
  28 001c 50E0      		ldi r21,0
  29 001e 61E0      		ldi r22,lo8(1)
  30 0020 70E0      		ldi r23,0
  31 0022 CE01      		movw r24,r28
  32 0024 0E94 0000 		call luaL_checktype
  33 0028 61E0      		ldi r22,lo8(1)
  34 002a 70E0      		ldi r23,0
  35 002c CE01      		movw r24,r28
  36 002e 0E94 0000 		call lua_iscfunction
  37 0032 892B      		or r24,r25
  38 0034 01F0      		breq .L2
  39               	.L6:
  40 0036 80E0      		ldi r24,0
  41 0038 90E0      		ldi r25,0
  42 003a 00C0      		rjmp .L3
  43               	.L2:
  44 003c A701      		movw r20,r14
  45 003e 61E0      		ldi r22,lo8(1)
  46 0040 70E0      		ldi r23,0
  47 0042 CE01      		movw r24,r28
  48 0044 0115      		cp r16,__zero_reg__
  49 0046 1105      		cpc r17,__zero_reg__
  50 0048 01F0      		breq .L4
  51 004a 0E94 0000 		call lua_getupvalue
  52 004e 00C0      		rjmp .L5
  53               	.L4:
  54 0050 0E94 0000 		call lua_setupvalue
  55               	.L5:
  56 0054 0097      		sbiw r24,0
  57 0056 01F0      		breq .L6
GAS LISTING /tmp/ccwwE1g2.s 			page 2


  58 0058 BC01      		movw r22,r24
  59 005a CE01      		movw r24,r28
  60 005c 0E94 0000 		call lua_pushstring
  61 0060 B801      		movw r22,r16
  62 0062 6095      		com r22
  63 0064 7095      		com r23
  64 0066 CE01      		movw r24,r28
  65 0068 0E94 0000 		call lua_insert
  66 006c C801      		movw r24,r16
  67 006e 0196      		adiw r24,1
  68               	.L3:
  69               	/* epilogue start */
  70 0070 DF91      		pop r29
  71 0072 CF91      		pop r28
  72 0074 1F91      		pop r17
  73 0076 0F91      		pop r16
  74 0078 FF90      		pop r15
  75 007a EF90      		pop r14
  76 007c 0895      		ret
  77               		.size	auxupvalue, .-auxupvalue
  78               		.section	.text.db_setupvalue,"ax",@progbits
  79               		.type	db_setupvalue, @function
  80               	db_setupvalue:
  81 0000 CF93      		push r28
  82 0002 DF93      		push r29
  83               	/* prologue: function */
  84               	/* frame size = 0 */
  85               	/* stack size = 2 */
  86               	.L__stack_usage = 2
  87 0004 EC01      		movw r28,r24
  88 0006 63E0      		ldi r22,lo8(3)
  89 0008 70E0      		ldi r23,0
  90 000a 0E94 0000 		call luaL_checkany
  91 000e 60E0      		ldi r22,0
  92 0010 70E0      		ldi r23,0
  93 0012 CE01      		movw r24,r28
  94               	/* epilogue start */
  95 0014 DF91      		pop r29
  96 0016 CF91      		pop r28
  97 0018 0C94 0000 		jmp auxupvalue
  98               		.size	db_setupvalue, .-db_setupvalue
  99               		.section	.text.db_getupvalue,"ax",@progbits
 100               		.type	db_getupvalue, @function
 101               	db_getupvalue:
 102               	/* prologue: function */
 103               	/* frame size = 0 */
 104               	/* stack size = 0 */
 105               	.L__stack_usage = 0
 106 0000 61E0      		ldi r22,lo8(1)
 107 0002 70E0      		ldi r23,0
 108 0004 0C94 0000 		jmp auxupvalue
 109               		.size	db_getupvalue, .-db_getupvalue
 110               		.section	.rodata.str1.1,"aMS",@progbits,1
 111               	.LC0:
 112 0000 6E69 6C20 		.string	"nil or table expected"
 112      6F72 2074 
 112      6162 6C65 
GAS LISTING /tmp/ccwwE1g2.s 			page 3


 112      2065 7870 
 112      6563 7465 
 113               		.section	.text.db_setmetatable,"ax",@progbits
 114               		.type	db_setmetatable, @function
 115               	db_setmetatable:
 116 0000 CF93      		push r28
 117 0002 DF93      		push r29
 118               	/* prologue: function */
 119               	/* frame size = 0 */
 120               	/* stack size = 2 */
 121               	.L__stack_usage = 2
 122 0004 EC01      		movw r28,r24
 123 0006 62E0      		ldi r22,lo8(2)
 124 0008 70E0      		ldi r23,0
 125 000a 0E94 0000 		call lua_type
 126 000e 0097      		sbiw r24,0
 127 0010 01F0      		breq .L14
 128 0012 0797      		sbiw r24,7
 129 0014 01F0      		breq .L14
 130 0016 40E0      		ldi r20,lo8(.LC0)
 131 0018 50E0      		ldi r21,hi8(.LC0)
 132 001a 62E0      		ldi r22,lo8(2)
 133 001c 70E0      		ldi r23,0
 134 001e CE01      		movw r24,r28
 135 0020 0E94 0000 		call luaL_argerror
 136               	.L14:
 137 0024 62E0      		ldi r22,lo8(2)
 138 0026 70E0      		ldi r23,0
 139 0028 CE01      		movw r24,r28
 140 002a 0E94 0000 		call lua_settop
 141 002e 61E0      		ldi r22,lo8(1)
 142 0030 70E0      		ldi r23,0
 143 0032 CE01      		movw r24,r28
 144 0034 0E94 0000 		call lua_setmetatable
 145 0038 BC01      		movw r22,r24
 146 003a CE01      		movw r24,r28
 147 003c 0E94 0000 		call lua_pushboolean
 148 0040 81E0      		ldi r24,lo8(1)
 149 0042 90E0      		ldi r25,0
 150               	/* epilogue start */
 151 0044 DF91      		pop r29
 152 0046 CF91      		pop r28
 153 0048 0895      		ret
 154               		.size	db_setmetatable, .-db_setmetatable
 155               		.section	.text.db_getregistry,"ax",@progbits
 156               		.type	db_getregistry, @function
 157               	db_getregistry:
 158               	/* prologue: function */
 159               	/* frame size = 0 */
 160               	/* stack size = 0 */
 161               	.L__stack_usage = 0
 162 0000 60EF      		ldi r22,lo8(-16)
 163 0002 78ED      		ldi r23,lo8(-40)
 164 0004 0E94 0000 		call lua_pushvalue
 165 0008 81E0      		ldi r24,lo8(1)
 166 000a 90E0      		ldi r25,0
 167 000c 0895      		ret
GAS LISTING /tmp/ccwwE1g2.s 			page 4


 168               		.size	db_getregistry, .-db_getregistry
 169               		.section	.rodata.str1.1
 170               	.LC1:
 171 0016 2773 6574 		.string	"'setfenv' cannot change environment of given object"
 171      6665 6E76 
 171      2720 6361 
 171      6E6E 6F74 
 171      2063 6861 
 172               		.section	.text.db_setfenv,"ax",@progbits
 173               		.type	db_setfenv, @function
 174               	db_setfenv:
 175 0000 CF93      		push r28
 176 0002 DF93      		push r29
 177               	/* prologue: function */
 178               	/* frame size = 0 */
 179               	/* stack size = 2 */
 180               	.L__stack_usage = 2
 181 0004 EC01      		movw r28,r24
 182 0006 47E0      		ldi r20,lo8(7)
 183 0008 50E0      		ldi r21,0
 184 000a 62E0      		ldi r22,lo8(2)
 185 000c 70E0      		ldi r23,0
 186 000e 0E94 0000 		call luaL_checktype
 187 0012 62E0      		ldi r22,lo8(2)
 188 0014 70E0      		ldi r23,0
 189 0016 CE01      		movw r24,r28
 190 0018 0E94 0000 		call lua_settop
 191 001c 61E0      		ldi r22,lo8(1)
 192 001e 70E0      		ldi r23,0
 193 0020 CE01      		movw r24,r28
 194 0022 0E94 0000 		call lua_setfenv
 195 0026 892B      		or r24,r25
 196 0028 01F4      		brne .L23
 197 002a 80E0      		ldi r24,lo8(.LC1)
 198 002c 90E0      		ldi r25,hi8(.LC1)
 199 002e 9F93      		push r25
 200 0030 8F93      		push r24
 201 0032 DF93      		push r29
 202 0034 CF93      		push r28
 203 0036 0E94 0000 		call luaL_error
 204 003a 0F90      		pop __tmp_reg__
 205 003c 0F90      		pop __tmp_reg__
 206 003e 0F90      		pop __tmp_reg__
 207 0040 0F90      		pop __tmp_reg__
 208               	.L23:
 209 0042 81E0      		ldi r24,lo8(1)
 210 0044 90E0      		ldi r25,0
 211               	/* epilogue start */
 212 0046 DF91      		pop r29
 213 0048 CF91      		pop r28
 214 004a 0895      		ret
 215               		.size	db_setfenv, .-db_setfenv
 216               		.section	.text.db_getmetatable,"ax",@progbits
 217               		.type	db_getmetatable, @function
 218               	db_getmetatable:
 219 0000 CF93      		push r28
 220 0002 DF93      		push r29
GAS LISTING /tmp/ccwwE1g2.s 			page 5


 221               	/* prologue: function */
 222               	/* frame size = 0 */
 223               	/* stack size = 2 */
 224               	.L__stack_usage = 2
 225 0004 EC01      		movw r28,r24
 226 0006 61E0      		ldi r22,lo8(1)
 227 0008 70E0      		ldi r23,0
 228 000a 0E94 0000 		call luaL_checkany
 229 000e 61E0      		ldi r22,lo8(1)
 230 0010 70E0      		ldi r23,0
 231 0012 CE01      		movw r24,r28
 232 0014 0E94 0000 		call lua_getmetatable
 233 0018 892B      		or r24,r25
 234 001a 01F4      		brne .L25
 235 001c CE01      		movw r24,r28
 236 001e 0E94 0000 		call lua_pushnil
 237               	.L25:
 238 0022 81E0      		ldi r24,lo8(1)
 239 0024 90E0      		ldi r25,0
 240               	/* epilogue start */
 241 0026 DF91      		pop r29
 242 0028 CF91      		pop r28
 243 002a 0895      		ret
 244               		.size	db_getmetatable, .-db_getmetatable
 245               		.section	.text.settabsi,"ax",@progbits
 246               		.type	settabsi, @function
 247               	settabsi:
 248 0000 0F93      		push r16
 249 0002 1F93      		push r17
 250 0004 CF93      		push r28
 251 0006 DF93      		push r29
 252               	/* prologue: function */
 253               	/* frame size = 0 */
 254               	/* stack size = 4 */
 255               	.L__stack_usage = 4
 256 0008 EC01      		movw r28,r24
 257 000a 8B01      		movw r16,r22
 258 000c BA01      		movw r22,r20
 259 000e 0E94 0000 		call lua_pushinteger
 260 0012 A801      		movw r20,r16
 261 0014 6EEF      		ldi r22,lo8(-2)
 262 0016 7FEF      		ldi r23,lo8(-1)
 263 0018 CE01      		movw r24,r28
 264               	/* epilogue start */
 265 001a DF91      		pop r29
 266 001c CF91      		pop r28
 267 001e 1F91      		pop r17
 268 0020 0F91      		pop r16
 269 0022 0C94 0000 		jmp lua_setfield
 270               		.size	settabsi, .-settabsi
 271               		.section	.text.settabss,"ax",@progbits
 272               		.type	settabss, @function
 273               	settabss:
 274 0000 0F93      		push r16
 275 0002 1F93      		push r17
 276 0004 CF93      		push r28
 277 0006 DF93      		push r29
GAS LISTING /tmp/ccwwE1g2.s 			page 6


 278               	/* prologue: function */
 279               	/* frame size = 0 */
 280               	/* stack size = 4 */
 281               	.L__stack_usage = 4
 282 0008 EC01      		movw r28,r24
 283 000a 8B01      		movw r16,r22
 284 000c BA01      		movw r22,r20
 285 000e 0E94 0000 		call lua_pushstring
 286 0012 A801      		movw r20,r16
 287 0014 6EEF      		ldi r22,lo8(-2)
 288 0016 7FEF      		ldi r23,lo8(-1)
 289 0018 CE01      		movw r24,r28
 290               	/* epilogue start */
 291 001a DF91      		pop r29
 292 001c CF91      		pop r28
 293 001e 1F91      		pop r17
 294 0020 0F91      		pop r16
 295 0022 0C94 0000 		jmp lua_setfield
 296               		.size	settabss, .-settabss
 297               		.section	.text.treatstackoption,"ax",@progbits
 298               		.type	treatstackoption, @function
 299               	treatstackoption:
 300 0000 0F93      		push r16
 301 0002 1F93      		push r17
 302 0004 CF93      		push r28
 303 0006 DF93      		push r29
 304               	/* prologue: function */
 305               	/* frame size = 0 */
 306               	/* stack size = 4 */
 307               	.L__stack_usage = 4
 308 0008 EC01      		movw r28,r24
 309 000a CB01      		movw r24,r22
 310 000c 8A01      		movw r16,r20
 311 000e C617      		cp r28,r22
 312 0010 D707      		cpc r29,r23
 313 0012 01F4      		brne .L29
 314 0014 6EEF      		ldi r22,lo8(-2)
 315 0016 7FEF      		ldi r23,lo8(-1)
 316 0018 CE01      		movw r24,r28
 317 001a 0E94 0000 		call lua_pushvalue
 318 001e 6DEF      		ldi r22,lo8(-3)
 319 0020 7FEF      		ldi r23,lo8(-1)
 320 0022 CE01      		movw r24,r28
 321 0024 0E94 0000 		call lua_remove
 322 0028 00C0      		rjmp .L30
 323               	.L29:
 324 002a 41E0      		ldi r20,lo8(1)
 325 002c 50E0      		ldi r21,0
 326 002e BE01      		movw r22,r28
 327 0030 0E94 0000 		call lua_xmove
 328               	.L30:
 329 0034 A801      		movw r20,r16
 330 0036 6EEF      		ldi r22,lo8(-2)
 331 0038 7FEF      		ldi r23,lo8(-1)
 332 003a CE01      		movw r24,r28
 333               	/* epilogue start */
 334 003c DF91      		pop r29
GAS LISTING /tmp/ccwwE1g2.s 			page 7


 335 003e CF91      		pop r28
 336 0040 1F91      		pop r17
 337 0042 0F91      		pop r16
 338 0044 0C94 0000 		jmp lua_setfield
 339               		.size	treatstackoption, .-treatstackoption
 340               		.section	.text.db_getfenv,"ax",@progbits
 341               		.type	db_getfenv, @function
 342               	db_getfenv:
 343               	/* prologue: function */
 344               	/* frame size = 0 */
 345               	/* stack size = 0 */
 346               	.L__stack_usage = 0
 347 0000 61E0      		ldi r22,lo8(1)
 348 0002 70E0      		ldi r23,0
 349 0004 0E94 0000 		call lua_getfenv
 350 0008 81E0      		ldi r24,lo8(1)
 351 000a 90E0      		ldi r25,0
 352 000c 0895      		ret
 353               		.size	db_getfenv, .-db_getfenv
 354               		.section	.rodata.str1.1
 355               	.LC2:
 356 004a 6C75 615F 		.string	"lua_debug> "
 356      6465 6275 
 356      673E 2000 
 357               	.LC3:
 358 0056 636F 6E74 		.string	"cont\n"
 358      0A00 
 359               	.LC4:
 360 005c 3D28 6465 		.string	"=(debug command)"
 360      6275 6720 
 360      636F 6D6D 
 360      616E 6429 
 360      00
 361               		.section	.text.db_debug,"ax",@progbits
 362               		.type	db_debug, @function
 363               	db_debug:
 364 0000 CF92      		push r12
 365 0002 DF92      		push r13
 366 0004 EF92      		push r14
 367 0006 FF92      		push r15
 368 0008 0F93      		push r16
 369 000a 1F93      		push r17
 370 000c CF93      		push r28
 371 000e DF93      		push r29
 372 0010 CDB7      		in r28,__SP_L__
 373 0012 DEB7      		in r29,__SP_H__
 374 0014 CA5F      		subi r28,-6
 375 0016 D109      		sbc r29,__zero_reg__
 376 0018 0FB6      		in __tmp_reg__,__SREG__
 377 001a F894      		cli
 378 001c DEBF      		out __SP_H__,r29
 379 001e 0FBE      		out __SREG__,__tmp_reg__
 380 0020 CDBF      		out __SP_L__,r28
 381               	/* prologue: function */
 382               	/* frame size = 250 */
 383               	/* stack size = 258 */
 384               	.L__stack_usage = 258
GAS LISTING /tmp/ccwwE1g2.s 			page 8


 385 0022 7C01      		movw r14,r24
 386 0024 8E01      		movw r16,r28
 387 0026 0F5F      		subi r16,-1
 388 0028 1F4F      		sbci r17,-1
 389               	.L38:
 390 002a 6091 0000 		lds r22,__iob+4
 391 002e 7091 0000 		lds r23,__iob+4+1
 392 0032 80E0      		ldi r24,lo8(.LC2)
 393 0034 90E0      		ldi r25,hi8(.LC2)
 394 0036 0E94 0000 		call fputs
 395 003a 4091 0000 		lds r20,__iob
 396 003e 5091 0000 		lds r21,__iob+1
 397 0042 6AEF      		ldi r22,lo8(-6)
 398 0044 70E0      		ldi r23,0
 399 0046 C801      		movw r24,r16
 400 0048 0E94 0000 		call fgets
 401 004c 892B      		or r24,r25
 402 004e 01F4      		brne .+2
 403 0050 00C0      		rjmp .L40
 404 0052 60E0      		ldi r22,lo8(.LC3)
 405 0054 70E0      		ldi r23,hi8(.LC3)
 406 0056 C801      		movw r24,r16
 407 0058 0E94 0000 		call strcmp
 408 005c 892B      		or r24,r25
 409 005e 01F0      		breq .L40
 410 0060 F801      		movw r30,r16
 411               		0:
 412 0062 0190      		ld __tmp_reg__,Z+
 413 0064 0020      		tst __tmp_reg__
 414 0066 01F4      		brne 0b
 415 0068 3197      		sbiw r30,1
 416 006a AF01      		movw r20,r30
 417 006c 401B      		sub r20,r16
 418 006e 510B      		sbc r21,r17
 419 0070 20E0      		ldi r18,lo8(.LC4)
 420 0072 30E0      		ldi r19,hi8(.LC4)
 421 0074 B801      		movw r22,r16
 422 0076 C701      		movw r24,r14
 423 0078 0E94 0000 		call luaL_loadbuffer
 424 007c 892B      		or r24,r25
 425 007e 01F0      		breq .L35
 426               	.L37:
 427 0080 C090 0000 		lds r12,__iob+4
 428 0084 D090 0000 		lds r13,__iob+4+1
 429 0088 40E0      		ldi r20,0
 430 008a 50E0      		ldi r21,0
 431 008c 6FEF      		ldi r22,lo8(-1)
 432 008e 7FEF      		ldi r23,lo8(-1)
 433 0090 C701      		movw r24,r14
 434 0092 0E94 0000 		call lua_tolstring
 435 0096 B601      		movw r22,r12
 436 0098 0E94 0000 		call fputs
 437 009c 6091 0000 		lds r22,__iob+4
 438 00a0 7091 0000 		lds r23,__iob+4+1
 439 00a4 8AE0      		ldi r24,lo8(10)
 440 00a6 90E0      		ldi r25,0
 441 00a8 0E94 0000 		call fputc
GAS LISTING /tmp/ccwwE1g2.s 			page 9


 442 00ac 00C0      		rjmp .L36
 443               	.L35:
 444 00ae 20E0      		ldi r18,0
 445 00b0 30E0      		ldi r19,0
 446 00b2 40E0      		ldi r20,0
 447 00b4 50E0      		ldi r21,0
 448 00b6 60E0      		ldi r22,0
 449 00b8 70E0      		ldi r23,0
 450 00ba C701      		movw r24,r14
 451 00bc 0E94 0000 		call lua_pcall
 452 00c0 892B      		or r24,r25
 453 00c2 01F4      		brne .L37
 454               	.L36:
 455 00c4 60E0      		ldi r22,0
 456 00c6 70E0      		ldi r23,0
 457 00c8 C701      		movw r24,r14
 458 00ca 0E94 0000 		call lua_settop
 459 00ce 00C0      		rjmp .L38
 460               	.L40:
 461 00d0 80E0      		ldi r24,0
 462 00d2 90E0      		ldi r25,0
 463               	/* epilogue start */
 464 00d4 C650      		subi r28,6
 465 00d6 DF4F      		sbci r29,-1
 466 00d8 0FB6      		in __tmp_reg__,__SREG__
 467 00da F894      		cli
 468 00dc DEBF      		out __SP_H__,r29
 469 00de 0FBE      		out __SREG__,__tmp_reg__
 470 00e0 CDBF      		out __SP_L__,r28
 471 00e2 DF91      		pop r29
 472 00e4 CF91      		pop r28
 473 00e6 1F91      		pop r17
 474 00e8 0F91      		pop r16
 475 00ea FF90      		pop r15
 476 00ec EF90      		pop r14
 477 00ee DF90      		pop r13
 478 00f0 CF90      		pop r12
 479 00f2 0895      		ret
 480               		.size	db_debug, .-db_debug
 481               		.section	.text.getthread,"ax",@progbits
 482               		.type	getthread, @function
 483               	getthread:
 484 0000 0F93      		push r16
 485 0002 1F93      		push r17
 486 0004 CF93      		push r28
 487 0006 DF93      		push r29
 488               	/* prologue: function */
 489               	/* frame size = 0 */
 490               	/* stack size = 4 */
 491               	.L__stack_usage = 4
 492 0008 EC01      		movw r28,r24
 493 000a 8B01      		movw r16,r22
 494 000c 61E0      		ldi r22,lo8(1)
 495 000e 70E0      		ldi r23,0
 496 0010 0E94 0000 		call lua_type
 497 0014 0A97      		sbiw r24,10
 498 0016 01F4      		brne .L44
GAS LISTING /tmp/ccwwE1g2.s 			page 10


 499 0018 81E0      		ldi r24,lo8(1)
 500 001a 90E0      		ldi r25,0
 501 001c F801      		movw r30,r16
 502 001e 9183      		std Z+1,r25
 503 0020 8083      		st Z,r24
 504 0022 61E0      		ldi r22,lo8(1)
 505 0024 70E0      		ldi r23,0
 506 0026 CE01      		movw r24,r28
 507               	/* epilogue start */
 508 0028 DF91      		pop r29
 509 002a CF91      		pop r28
 510 002c 1F91      		pop r17
 511 002e 0F91      		pop r16
 512 0030 0C94 0000 		jmp lua_tothread
 513               	.L44:
 514 0034 F801      		movw r30,r16
 515 0036 1182      		std Z+1,__zero_reg__
 516 0038 1082      		st Z,__zero_reg__
 517 003a CE01      		movw r24,r28
 518               	/* epilogue start */
 519 003c DF91      		pop r29
 520 003e CF91      		pop r28
 521 0040 1F91      		pop r17
 522 0042 0F91      		pop r16
 523 0044 0895      		ret
 524               		.size	getthread, .-getthread
 525               		.section	.rodata.str1.1
 526               	.LC5:
 527 006d 00        		.string	""
 528               	.LC6:
 529 006e 0A00      		.string	"\n"
 530               	.LC7:
 531 0070 7374 6163 		.string	"stack traceback:"
 531      6B20 7472 
 531      6163 6562 
 531      6163 6B3A 
 531      00
 532               	.LC8:
 533 0081 0A09 2E2E 		.string	"\n\t..."
 533      2E00 
 534               	.LC9:
 535 0087 0A09 00   		.string	"\n\t"
 536               	.LC10:
 537 008a 536E 6C00 		.string	"Snl"
 538               	.LC11:
 539 008e 2573 3A00 		.string	"%s:"
 540               	.LC12:
 541 0092 2564 3A00 		.string	"%d:"
 542               	.LC13:
 543 0096 2069 6E20 		.string	" in function '%s'"
 543      6675 6E63 
 543      7469 6F6E 
 543      2027 2573 
 543      2700 
 544               	.LC14:
 545 00a8 2069 6E20 		.string	" in main chunk"
 545      6D61 696E 
GAS LISTING /tmp/ccwwE1g2.s 			page 11


 545      2063 6875 
 545      6E6B 00
 546               	.LC15:
 547 00b7 203F 00   		.string	" ?"
 548               	.LC16:
 549 00ba 2069 6E20 		.string	" in function <%s:%d>"
 549      6675 6E63 
 549      7469 6F6E 
 549      203C 2573 
 549      3A25 643E 
 550               		.section	.text.db_errorfb,"ax",@progbits
 551               		.type	db_errorfb, @function
 552               	db_errorfb:
 553 0000 2F92      		push r2
 554 0002 3F92      		push r3
 555 0004 4F92      		push r4
 556 0006 5F92      		push r5
 557 0008 6F92      		push r6
 558 000a 7F92      		push r7
 559 000c 8F92      		push r8
 560 000e 9F92      		push r9
 561 0010 AF92      		push r10
 562 0012 BF92      		push r11
 563 0014 CF92      		push r12
 564 0016 DF92      		push r13
 565 0018 EF92      		push r14
 566 001a FF92      		push r15
 567 001c 0F93      		push r16
 568 001e 1F93      		push r17
 569 0020 CF93      		push r28
 570 0022 DF93      		push r29
 571 0024 CDB7      		in r28,__SP_L__
 572 0026 DEB7      		in r29,__SP_H__
 573 0028 C255      		subi r28,82
 574 002a D109      		sbc r29,__zero_reg__
 575 002c 0FB6      		in __tmp_reg__,__SREG__
 576 002e F894      		cli
 577 0030 DEBF      		out __SP_H__,r29
 578 0032 0FBE      		out __SREG__,__tmp_reg__
 579 0034 CDBF      		out __SP_L__,r28
 580               	/* prologue: function */
 581               	/* frame size = 82 */
 582               	/* stack size = 100 */
 583               	.L__stack_usage = 100
 584 0036 8C01      		movw r16,r24
 585 0038 BE01      		movw r22,r28
 586 003a 6F5A      		subi r22,-81
 587 003c 7F4F      		sbci r23,-1
 588 003e 0E94 0000 		call getthread
 589 0042 6C01      		movw r12,r24
 590 0044 6396      		adiw r28,81-62
 591 0046 6EAD      		ldd r22,Y+62
 592 0048 7FAD      		ldd r23,Y+63
 593 004a 6397      		sbiw r28,81-62
 594 004c 6E5F      		subi r22,-2
 595 004e 7F4F      		sbci r23,-1
 596 0050 C801      		movw r24,r16
GAS LISTING /tmp/ccwwE1g2.s 			page 12


 597 0052 0E94 0000 		call lua_isnumber
 598 0056 892B      		or r24,r25
 599 0058 01F0      		breq .L46
 600 005a 6396      		adiw r28,81-62
 601 005c 6EAD      		ldd r22,Y+62
 602 005e 7FAD      		ldd r23,Y+63
 603 0060 6397      		sbiw r28,81-62
 604 0062 6E5F      		subi r22,-2
 605 0064 7F4F      		sbci r23,-1
 606 0066 C801      		movw r24,r16
 607 0068 0E94 0000 		call lua_tointeger
 608 006c 7C01      		movw r14,r24
 609 006e 6EEF      		ldi r22,lo8(-2)
 610 0070 7FEF      		ldi r23,lo8(-1)
 611 0072 C801      		movw r24,r16
 612 0074 0E94 0000 		call lua_settop
 613 0078 00C0      		rjmp .L47
 614               	.L46:
 615 007a 91E0      		ldi r25,lo8(1)
 616 007c 80E0      		ldi r24,0
 617 007e 0C15      		cp r16,r12
 618 0080 1D05      		cpc r17,r13
 619 0082 01F0      		breq .L48
 620 0084 90E0      		ldi r25,0
 621               	.L48:
 622 0086 E92E      		mov r14,r25
 623 0088 F82E      		mov r15,r24
 624               	.L47:
 625 008a C801      		movw r24,r16
 626 008c 0E94 0000 		call lua_gettop
 627 0090 6396      		adiw r28,81-62
 628 0092 6EAD      		ldd r22,Y+62
 629 0094 7FAD      		ldd r23,Y+63
 630 0096 6397      		sbiw r28,81-62
 631 0098 8617      		cp r24,r22
 632 009a 9707      		cpc r25,r23
 633 009c 01F4      		brne .L49
 634 009e 40E0      		ldi r20,0
 635 00a0 50E0      		ldi r21,0
 636 00a2 60E0      		ldi r22,lo8(.LC5)
 637 00a4 70E0      		ldi r23,hi8(.LC5)
 638 00a6 00C0      		rjmp .L74
 639               	.L49:
 640 00a8 6F5F      		subi r22,-1
 641 00aa 7F4F      		sbci r23,-1
 642 00ac C801      		movw r24,r16
 643 00ae 0E94 0000 		call lua_isstring
 644 00b2 892B      		or r24,r25
 645 00b4 01F4      		brne .+2
 646 00b6 00C0      		rjmp .L51
 647 00b8 41E0      		ldi r20,lo8(1)
 648 00ba 50E0      		ldi r21,0
 649 00bc 60E0      		ldi r22,lo8(.LC6)
 650 00be 70E0      		ldi r23,hi8(.LC6)
 651               	.L74:
 652 00c0 C801      		movw r24,r16
 653 00c2 0E94 0000 		call lua_pushlstring
GAS LISTING /tmp/ccwwE1g2.s 			page 13


 654 00c6 40E1      		ldi r20,lo8(16)
 655 00c8 50E0      		ldi r21,0
 656 00ca 60E0      		ldi r22,lo8(.LC7)
 657 00cc 70E0      		ldi r23,hi8(.LC7)
 658 00ce C801      		movw r24,r16
 659 00d0 0E94 0000 		call lua_pushlstring
 660 00d4 8824      		clr r8
 661 00d6 8394      		inc r8
 662 00d8 912C      		mov r9,__zero_reg__
 663 00da 3E01      		movw r6,r28
 664 00dc 83E1      		ldi r24,19
 665 00de 680E      		add r6,r24
 666 00e0 711C      		adc r7,__zero_reg__
 667 00e2 90E0      		ldi r25,lo8(.LC13)
 668 00e4 292E      		mov r2,r25
 669 00e6 90E0      		ldi r25,hi8(.LC13)
 670 00e8 392E      		mov r3,r25
 671 00ea 20E0      		ldi r18,lo8(.LC12)
 672 00ec 422E      		mov r4,r18
 673 00ee 20E0      		ldi r18,hi8(.LC12)
 674 00f0 522E      		mov r5,r18
 675               	.L52:
 676 00f2 5701      		movw r10,r14
 677 00f4 BFEF      		ldi r27,-1
 678 00f6 AB1A      		sub r10,r27
 679 00f8 BB0A      		sbc r11,r27
 680 00fa AE01      		movw r20,r28
 681 00fc 4F5F      		subi r20,-1
 682 00fe 5F4F      		sbci r21,-1
 683 0100 B701      		movw r22,r14
 684 0102 C601      		movw r24,r12
 685 0104 0E94 0000 		call lua_getstack
 686 0108 892B      		or r24,r25
 687 010a 01F4      		brne .+2
 688 010c 00C0      		rjmp .L75
 689 010e 9DE0      		ldi r25,13
 690 0110 A916      		cp r10,r25
 691 0112 B104      		cpc r11,__zero_reg__
 692 0114 04F0      		brlt .L53
 693 0116 8114      		cp r8,__zero_reg__
 694 0118 9104      		cpc r9,__zero_reg__
 695 011a 01F0      		breq .L53
 696 011c AE01      		movw r20,r28
 697 011e 4F5F      		subi r20,-1
 698 0120 5F4F      		sbci r21,-1
 699 0122 B701      		movw r22,r14
 700 0124 655F      		subi r22,-11
 701 0126 7F4F      		sbci r23,-1
 702 0128 C601      		movw r24,r12
 703 012a 0E94 0000 		call lua_getstack
 704 012e 892B      		or r24,r25
 705 0130 01F4      		brne .+2
 706 0132 00C0      		rjmp .L64
 707 0134 45E0      		ldi r20,lo8(5)
 708 0136 50E0      		ldi r21,0
 709 0138 60E0      		ldi r22,lo8(.LC8)
 710 013a 70E0      		ldi r23,hi8(.LC8)
GAS LISTING /tmp/ccwwE1g2.s 			page 14


 711 013c C801      		movw r24,r16
 712 013e 0E94 0000 		call lua_pushlstring
 713 0142 7501      		movw r14,r10
 714               	.L55:
 715 0144 AE01      		movw r20,r28
 716 0146 4F5F      		subi r20,-1
 717 0148 5F4F      		sbci r21,-1
 718 014a B701      		movw r22,r14
 719 014c 665F      		subi r22,-10
 720 014e 7F4F      		sbci r23,-1
 721 0150 C601      		movw r24,r12
 722 0152 0E94 0000 		call lua_getstack
 723 0156 892B      		or r24,r25
 724 0158 01F4      		brne .+2
 725 015a 00C0      		rjmp .L64
 726 015c AFEF      		ldi r26,-1
 727 015e EA1A      		sub r14,r26
 728 0160 FA0A      		sbc r15,r26
 729 0162 00C0      		rjmp .L55
 730               	.L53:
 731 0164 42E0      		ldi r20,lo8(2)
 732 0166 50E0      		ldi r21,0
 733 0168 60E0      		ldi r22,lo8(.LC9)
 734 016a 70E0      		ldi r23,hi8(.LC9)
 735 016c C801      		movw r24,r16
 736 016e 0E94 0000 		call lua_pushlstring
 737 0172 AE01      		movw r20,r28
 738 0174 4F5F      		subi r20,-1
 739 0176 5F4F      		sbci r21,-1
 740 0178 60E0      		ldi r22,lo8(.LC10)
 741 017a 70E0      		ldi r23,hi8(.LC10)
 742 017c C601      		movw r24,r12
 743 017e 0E94 0000 		call lua_getinfo
 744 0182 7F92      		push r7
 745 0184 6F92      		push r6
 746 0186 A0E0      		ldi r26,lo8(.LC11)
 747 0188 B0E0      		ldi r27,hi8(.LC11)
 748 018a BF93      		push r27
 749 018c AF93      		push r26
 750 018e 1F93      		push r17
 751 0190 0F93      		push r16
 752 0192 0E94 0000 		call lua_pushfstring
 753 0196 8B85      		ldd r24,Y+11
 754 0198 9C85      		ldd r25,Y+12
 755 019a 0F90      		pop __tmp_reg__
 756 019c 0F90      		pop __tmp_reg__
 757 019e 0F90      		pop __tmp_reg__
 758 01a0 0F90      		pop __tmp_reg__
 759 01a2 0F90      		pop __tmp_reg__
 760 01a4 0F90      		pop __tmp_reg__
 761 01a6 1816      		cp __zero_reg__,r24
 762 01a8 1906      		cpc __zero_reg__,r25
 763 01aa 04F4      		brge .L57
 764 01ac 9F93      		push r25
 765 01ae 8F93      		push r24
 766 01b0 5F92      		push r5
 767 01b2 4F92      		push r4
GAS LISTING /tmp/ccwwE1g2.s 			page 15


 768 01b4 1F93      		push r17
 769 01b6 0F93      		push r16
 770 01b8 0E94 0000 		call lua_pushfstring
 771 01bc 0F90      		pop __tmp_reg__
 772 01be 0F90      		pop __tmp_reg__
 773 01c0 0F90      		pop __tmp_reg__
 774 01c2 0F90      		pop __tmp_reg__
 775 01c4 0F90      		pop __tmp_reg__
 776 01c6 0F90      		pop __tmp_reg__
 777               	.L57:
 778 01c8 ED81      		ldd r30,Y+5
 779 01ca FE81      		ldd r31,Y+6
 780 01cc 8081      		ld r24,Z
 781 01ce 8823      		tst r24
 782 01d0 01F0      		breq .L58
 783 01d2 8C81      		ldd r24,Y+4
 784 01d4 8F93      		push r24
 785 01d6 8B81      		ldd r24,Y+3
 786 01d8 8F93      		push r24
 787 01da 3F92      		push r3
 788 01dc 2F92      		push r2
 789 01de 1F93      		push r17
 790 01e0 0F93      		push r16
 791 01e2 0E94 0000 		call lua_pushfstring
 792 01e6 0F90      		pop __tmp_reg__
 793 01e8 0F90      		pop __tmp_reg__
 794 01ea 0F90      		pop __tmp_reg__
 795 01ec 0F90      		pop __tmp_reg__
 796 01ee 0F90      		pop __tmp_reg__
 797 01f0 0F90      		pop __tmp_reg__
 798 01f2 00C0      		rjmp .L59
 799               	.L58:
 800 01f4 EF81      		ldd r30,Y+7
 801 01f6 F885      		ldd r31,Y+8
 802 01f8 8081      		ld r24,Z
 803 01fa 8D36      		cpi r24,lo8(109)
 804 01fc 01F4      		brne .L60
 805 01fe A0E0      		ldi r26,lo8(.LC14)
 806 0200 B0E0      		ldi r27,hi8(.LC14)
 807 0202 BF93      		push r27
 808 0204 AF93      		push r26
 809 0206 1F93      		push r17
 810 0208 0F93      		push r16
 811 020a 0E94 0000 		call lua_pushfstring
 812 020e 0F90      		pop __tmp_reg__
 813 0210 0F90      		pop __tmp_reg__
 814 0212 0F90      		pop __tmp_reg__
 815 0214 0F90      		pop __tmp_reg__
 816 0216 00C0      		rjmp .L59
 817               	.L60:
 818 0218 8334      		cpi r24,lo8(67)
 819 021a 01F0      		breq .L61
 820 021c 8437      		cpi r24,lo8(116)
 821 021e 01F4      		brne .L62
 822               	.L61:
 823 0220 42E0      		ldi r20,lo8(2)
 824 0222 50E0      		ldi r21,0
GAS LISTING /tmp/ccwwE1g2.s 			page 16


 825 0224 60E0      		ldi r22,lo8(.LC15)
 826 0226 70E0      		ldi r23,hi8(.LC15)
 827 0228 C801      		movw r24,r16
 828 022a 0E94 0000 		call lua_pushlstring
 829 022e 00C0      		rjmp .L59
 830               	.L62:
 831 0230 8889      		ldd r24,Y+16
 832 0232 8F93      		push r24
 833 0234 8F85      		ldd r24,Y+15
 834 0236 8F93      		push r24
 835 0238 7F92      		push r7
 836 023a 6F92      		push r6
 837 023c A0E0      		ldi r26,lo8(.LC16)
 838 023e B0E0      		ldi r27,hi8(.LC16)
 839 0240 BF93      		push r27
 840 0242 AF93      		push r26
 841 0244 1F93      		push r17
 842 0246 0F93      		push r16
 843 0248 0E94 0000 		call lua_pushfstring
 844 024c 0FB6      		in __tmp_reg__,__SREG__
 845 024e F894      		cli
 846 0250 DEBF      		out __SP_H__,r29
 847 0252 0FBE      		out __SREG__,__tmp_reg__
 848 0254 CDBF      		out __SP_L__,r28
 849               	.L59:
 850 0256 C801      		movw r24,r16
 851 0258 0E94 0000 		call lua_gettop
 852 025c 6396      		adiw r28,81-62
 853 025e 2EAD      		ldd r18,Y+62
 854 0260 3FAD      		ldd r19,Y+63
 855 0262 6397      		sbiw r28,81-62
 856 0264 BC01      		movw r22,r24
 857 0266 621B      		sub r22,r18
 858 0268 730B      		sbc r23,r19
 859 026a C801      		movw r24,r16
 860 026c 0E94 0000 		call lua_concat
 861 0270 7501      		movw r14,r10
 862 0272 00C0      		rjmp .L52
 863               	.L64:
 864 0274 812C      		mov r8,__zero_reg__
 865 0276 912C      		mov r9,__zero_reg__
 866 0278 00C0      		rjmp .L52
 867               	.L75:
 868 027a C801      		movw r24,r16
 869 027c 0E94 0000 		call lua_gettop
 870 0280 6396      		adiw r28,81-62
 871 0282 2EAD      		ldd r18,Y+62
 872 0284 3FAD      		ldd r19,Y+63
 873 0286 6397      		sbiw r28,81-62
 874 0288 BC01      		movw r22,r24
 875 028a 621B      		sub r22,r18
 876 028c 730B      		sbc r23,r19
 877 028e C801      		movw r24,r16
 878 0290 0E94 0000 		call lua_concat
 879               	.L51:
 880 0294 81E0      		ldi r24,lo8(1)
 881 0296 90E0      		ldi r25,0
GAS LISTING /tmp/ccwwE1g2.s 			page 17


 882               	/* epilogue start */
 883 0298 CE5A      		subi r28,-82
 884 029a DF4F      		sbci r29,-1
 885 029c 0FB6      		in __tmp_reg__,__SREG__
 886 029e F894      		cli
 887 02a0 DEBF      		out __SP_H__,r29
 888 02a2 0FBE      		out __SREG__,__tmp_reg__
 889 02a4 CDBF      		out __SP_L__,r28
 890 02a6 DF91      		pop r29
 891 02a8 CF91      		pop r28
 892 02aa 1F91      		pop r17
 893 02ac 0F91      		pop r16
 894 02ae FF90      		pop r15
 895 02b0 EF90      		pop r14
 896 02b2 DF90      		pop r13
 897 02b4 CF90      		pop r12
 898 02b6 BF90      		pop r11
 899 02b8 AF90      		pop r10
 900 02ba 9F90      		pop r9
 901 02bc 8F90      		pop r8
 902 02be 7F90      		pop r7
 903 02c0 6F90      		pop r6
 904 02c2 5F90      		pop r5
 905 02c4 4F90      		pop r4
 906 02c6 3F90      		pop r3
 907 02c8 2F90      		pop r2
 908 02ca 0895      		ret
 909               		.size	db_errorfb, .-db_errorfb
 910               		.section	.rodata.str1.1
 911               	.LC17:
 912 00cf 6C65 7665 		.string	"level out of range"
 912      6C20 6F75 
 912      7420 6F66 
 912      2072 616E 
 912      6765 00
 913               		.section	.text.db_setlocal,"ax",@progbits
 914               		.type	db_setlocal, @function
 915               	db_setlocal:
 916 0000 EF92      		push r14
 917 0002 FF92      		push r15
 918 0004 0F93      		push r16
 919 0006 1F93      		push r17
 920 0008 CF93      		push r28
 921 000a DF93      		push r29
 922 000c CDB7      		in r28,__SP_L__
 923 000e DEB7      		in r29,__SP_H__
 924 0010 C255      		subi r28,82
 925 0012 D109      		sbc r29,__zero_reg__
 926 0014 0FB6      		in __tmp_reg__,__SREG__
 927 0016 F894      		cli
 928 0018 DEBF      		out __SP_H__,r29
 929 001a 0FBE      		out __SREG__,__tmp_reg__
 930 001c CDBF      		out __SP_L__,r28
 931               	/* prologue: function */
 932               	/* frame size = 82 */
 933               	/* stack size = 88 */
 934               	.L__stack_usage = 88
GAS LISTING /tmp/ccwwE1g2.s 			page 18


 935 001e 8C01      		movw r16,r24
 936 0020 BE01      		movw r22,r28
 937 0022 6F5A      		subi r22,-81
 938 0024 7F4F      		sbci r23,-1
 939 0026 0E94 0000 		call getthread
 940 002a 7C01      		movw r14,r24
 941 002c 6396      		adiw r28,81-62
 942 002e 6EAD      		ldd r22,Y+62
 943 0030 7FAD      		ldd r23,Y+63
 944 0032 6397      		sbiw r28,81-62
 945 0034 6F5F      		subi r22,-1
 946 0036 7F4F      		sbci r23,-1
 947 0038 C801      		movw r24,r16
 948 003a 0E94 0000 		call luaL_checkinteger
 949 003e AE01      		movw r20,r28
 950 0040 4F5F      		subi r20,-1
 951 0042 5F4F      		sbci r21,-1
 952 0044 BC01      		movw r22,r24
 953 0046 C701      		movw r24,r14
 954 0048 0E94 0000 		call lua_getstack
 955 004c 6396      		adiw r28,81-62
 956 004e 6EAD      		ldd r22,Y+62
 957 0050 7FAD      		ldd r23,Y+63
 958 0052 6397      		sbiw r28,81-62
 959 0054 892B      		or r24,r25
 960 0056 01F4      		brne .L77
 961 0058 6F5F      		subi r22,-1
 962 005a 7F4F      		sbci r23,-1
 963 005c 40E0      		ldi r20,lo8(.LC17)
 964 005e 50E0      		ldi r21,hi8(.LC17)
 965 0060 C801      		movw r24,r16
 966 0062 0E94 0000 		call luaL_argerror
 967 0066 00C0      		rjmp .L78
 968               	.L77:
 969 0068 6D5F      		subi r22,-3
 970 006a 7F4F      		sbci r23,-1
 971 006c C801      		movw r24,r16
 972 006e 0E94 0000 		call luaL_checkany
 973 0072 6396      		adiw r28,81-62
 974 0074 6EAD      		ldd r22,Y+62
 975 0076 7FAD      		ldd r23,Y+63
 976 0078 6397      		sbiw r28,81-62
 977 007a 6D5F      		subi r22,-3
 978 007c 7F4F      		sbci r23,-1
 979 007e C801      		movw r24,r16
 980 0080 0E94 0000 		call lua_settop
 981 0084 41E0      		ldi r20,lo8(1)
 982 0086 50E0      		ldi r21,0
 983 0088 B701      		movw r22,r14
 984 008a C801      		movw r24,r16
 985 008c 0E94 0000 		call lua_xmove
 986 0090 6396      		adiw r28,81-62
 987 0092 6EAD      		ldd r22,Y+62
 988 0094 7FAD      		ldd r23,Y+63
 989 0096 6397      		sbiw r28,81-62
 990 0098 6E5F      		subi r22,-2
 991 009a 7F4F      		sbci r23,-1
GAS LISTING /tmp/ccwwE1g2.s 			page 19


 992 009c C801      		movw r24,r16
 993 009e 0E94 0000 		call luaL_checkinteger
 994 00a2 AC01      		movw r20,r24
 995 00a4 BE01      		movw r22,r28
 996 00a6 6F5F      		subi r22,-1
 997 00a8 7F4F      		sbci r23,-1
 998 00aa C701      		movw r24,r14
 999 00ac 0E94 0000 		call lua_setlocal
 1000 00b0 BC01      		movw r22,r24
 1001 00b2 C801      		movw r24,r16
 1002 00b4 0E94 0000 		call lua_pushstring
 1003 00b8 81E0      		ldi r24,lo8(1)
 1004 00ba 90E0      		ldi r25,0
 1005               	.L78:
 1006               	/* epilogue start */
 1007 00bc CE5A      		subi r28,-82
 1008 00be DF4F      		sbci r29,-1
 1009 00c0 0FB6      		in __tmp_reg__,__SREG__
 1010 00c2 F894      		cli
 1011 00c4 DEBF      		out __SP_H__,r29
 1012 00c6 0FBE      		out __SREG__,__tmp_reg__
 1013 00c8 CDBF      		out __SP_L__,r28
 1014 00ca DF91      		pop r29
 1015 00cc CF91      		pop r28
 1016 00ce 1F91      		pop r17
 1017 00d0 0F91      		pop r16
 1018 00d2 FF90      		pop r15
 1019 00d4 EF90      		pop r14
 1020 00d6 0895      		ret
 1021               		.size	db_setlocal, .-db_setlocal
 1022               		.section	.text.db_getlocal,"ax",@progbits
 1023               		.type	db_getlocal, @function
 1024               	db_getlocal:
 1025 0000 CF92      		push r12
 1026 0002 DF92      		push r13
 1027 0004 EF92      		push r14
 1028 0006 FF92      		push r15
 1029 0008 0F93      		push r16
 1030 000a 1F93      		push r17
 1031 000c CF93      		push r28
 1032 000e DF93      		push r29
 1033 0010 CDB7      		in r28,__SP_L__
 1034 0012 DEB7      		in r29,__SP_H__
 1035 0014 C255      		subi r28,82
 1036 0016 D109      		sbc r29,__zero_reg__
 1037 0018 0FB6      		in __tmp_reg__,__SREG__
 1038 001a F894      		cli
 1039 001c DEBF      		out __SP_H__,r29
 1040 001e 0FBE      		out __SREG__,__tmp_reg__
 1041 0020 CDBF      		out __SP_L__,r28
 1042               	/* prologue: function */
 1043               	/* frame size = 82 */
 1044               	/* stack size = 90 */
 1045               	.L__stack_usage = 90
 1046 0022 8C01      		movw r16,r24
 1047 0024 BE01      		movw r22,r28
 1048 0026 6F5A      		subi r22,-81
GAS LISTING /tmp/ccwwE1g2.s 			page 20


 1049 0028 7F4F      		sbci r23,-1
 1050 002a 0E94 0000 		call getthread
 1051 002e 7C01      		movw r14,r24
 1052 0030 6396      		adiw r28,81-62
 1053 0032 6EAD      		ldd r22,Y+62
 1054 0034 7FAD      		ldd r23,Y+63
 1055 0036 6397      		sbiw r28,81-62
 1056 0038 6F5F      		subi r22,-1
 1057 003a 7F4F      		sbci r23,-1
 1058 003c C801      		movw r24,r16
 1059 003e 0E94 0000 		call luaL_checkinteger
 1060 0042 AE01      		movw r20,r28
 1061 0044 4F5F      		subi r20,-1
 1062 0046 5F4F      		sbci r21,-1
 1063 0048 BC01      		movw r22,r24
 1064 004a C701      		movw r24,r14
 1065 004c 0E94 0000 		call lua_getstack
 1066 0050 6396      		adiw r28,81-62
 1067 0052 6EAD      		ldd r22,Y+62
 1068 0054 7FAD      		ldd r23,Y+63
 1069 0056 6397      		sbiw r28,81-62
 1070 0058 892B      		or r24,r25
 1071 005a 01F4      		brne .L80
 1072 005c 6F5F      		subi r22,-1
 1073 005e 7F4F      		sbci r23,-1
 1074 0060 40E0      		ldi r20,lo8(.LC17)
 1075 0062 50E0      		ldi r21,hi8(.LC17)
 1076 0064 C801      		movw r24,r16
 1077 0066 0E94 0000 		call luaL_argerror
 1078 006a 00C0      		rjmp .L81
 1079               	.L80:
 1080 006c 6E5F      		subi r22,-2
 1081 006e 7F4F      		sbci r23,-1
 1082 0070 C801      		movw r24,r16
 1083 0072 0E94 0000 		call luaL_checkinteger
 1084 0076 AC01      		movw r20,r24
 1085 0078 BE01      		movw r22,r28
 1086 007a 6F5F      		subi r22,-1
 1087 007c 7F4F      		sbci r23,-1
 1088 007e C701      		movw r24,r14
 1089 0080 0E94 0000 		call lua_getlocal
 1090 0084 6C01      		movw r12,r24
 1091 0086 892B      		or r24,r25
 1092 0088 01F0      		breq .L82
 1093 008a 41E0      		ldi r20,lo8(1)
 1094 008c 50E0      		ldi r21,0
 1095 008e B801      		movw r22,r16
 1096 0090 C701      		movw r24,r14
 1097 0092 0E94 0000 		call lua_xmove
 1098 0096 B601      		movw r22,r12
 1099 0098 C801      		movw r24,r16
 1100 009a 0E94 0000 		call lua_pushstring
 1101 009e 6EEF      		ldi r22,lo8(-2)
 1102 00a0 7FEF      		ldi r23,lo8(-1)
 1103 00a2 C801      		movw r24,r16
 1104 00a4 0E94 0000 		call lua_pushvalue
 1105 00a8 82E0      		ldi r24,lo8(2)
GAS LISTING /tmp/ccwwE1g2.s 			page 21


 1106 00aa 90E0      		ldi r25,0
 1107 00ac 00C0      		rjmp .L81
 1108               	.L82:
 1109 00ae C801      		movw r24,r16
 1110 00b0 0E94 0000 		call lua_pushnil
 1111 00b4 81E0      		ldi r24,lo8(1)
 1112 00b6 90E0      		ldi r25,0
 1113               	.L81:
 1114               	/* epilogue start */
 1115 00b8 CE5A      		subi r28,-82
 1116 00ba DF4F      		sbci r29,-1
 1117 00bc 0FB6      		in __tmp_reg__,__SREG__
 1118 00be F894      		cli
 1119 00c0 DEBF      		out __SP_H__,r29
 1120 00c2 0FBE      		out __SREG__,__tmp_reg__
 1121 00c4 CDBF      		out __SP_L__,r28
 1122 00c6 DF91      		pop r29
 1123 00c8 CF91      		pop r28
 1124 00ca 1F91      		pop r17
 1125 00cc 0F91      		pop r16
 1126 00ce FF90      		pop r15
 1127 00d0 EF90      		pop r14
 1128 00d2 DF90      		pop r13
 1129 00d4 CF90      		pop r12
 1130 00d6 0895      		ret
 1131               		.size	db_getlocal, .-db_getlocal
 1132               		.section	.rodata.str1.1
 1133               	.LC18:
 1134 00e2 666C 6E53 		.string	"flnSu"
 1134      7500 
 1135               	.LC19:
 1136 00e8 3E25 7300 		.string	">%s"
 1137               	.LC20:
 1138 00ec 6675 6E63 		.string	"function or level expected"
 1138      7469 6F6E 
 1138      206F 7220 
 1138      6C65 7665 
 1138      6C20 6578 
 1139               	.LC21:
 1140 0107 696E 7661 		.string	"invalid option"
 1140      6C69 6420 
 1140      6F70 7469 
 1140      6F6E 00
 1141               	.LC22:
 1142 0116 736F 7572 		.string	"source"
 1142      6365 00
 1143               	.LC23:
 1144 011d 7368 6F72 		.string	"short_src"
 1144      745F 7372 
 1144      6300 
 1145               	.LC24:
 1146 0127 6C69 6E65 		.string	"linedefined"
 1146      6465 6669 
 1146      6E65 6400 
 1147               	.LC25:
 1148 0133 6C61 7374 		.string	"lastlinedefined"
 1148      6C69 6E65 
GAS LISTING /tmp/ccwwE1g2.s 			page 22


 1148      6465 6669 
 1148      6E65 6400 
 1149               	.LC26:
 1150 0143 7768 6174 		.string	"what"
 1150      00
 1151               	.LC27:
 1152 0148 6375 7272 		.string	"currentline"
 1152      656E 746C 
 1152      696E 6500 
 1153               	.LC28:
 1154 0154 6E75 7073 		.string	"nups"
 1154      00
 1155               	.LC29:
 1156 0159 6E61 6D65 		.string	"name"
 1156      00
 1157               	.LC30:
 1158 015e 6E61 6D65 		.string	"namewhat"
 1158      7768 6174 
 1158      00
 1159               	.LC31:
 1160 0167 6163 7469 		.string	"activelines"
 1160      7665 6C69 
 1160      6E65 7300 
 1161               	.LC32:
 1162 0173 6675 6E63 		.string	"func"
 1162      00
 1163               		.section	.text.db_getinfo,"ax",@progbits
 1164               		.type	db_getinfo, @function
 1165               	db_getinfo:
 1166 0000 CF92      		push r12
 1167 0002 DF92      		push r13
 1168 0004 EF92      		push r14
 1169 0006 FF92      		push r15
 1170 0008 0F93      		push r16
 1171 000a 1F93      		push r17
 1172 000c CF93      		push r28
 1173 000e DF93      		push r29
 1174 0010 CDB7      		in r28,__SP_L__
 1175 0012 DEB7      		in r29,__SP_H__
 1176 0014 C255      		subi r28,82
 1177 0016 D109      		sbc r29,__zero_reg__
 1178 0018 0FB6      		in __tmp_reg__,__SREG__
 1179 001a F894      		cli
 1180 001c DEBF      		out __SP_H__,r29
 1181 001e 0FBE      		out __SREG__,__tmp_reg__
 1182 0020 CDBF      		out __SP_L__,r28
 1183               	/* prologue: function */
 1184               	/* frame size = 82 */
 1185               	/* stack size = 90 */
 1186               	.L__stack_usage = 90
 1187 0022 8C01      		movw r16,r24
 1188 0024 BE01      		movw r22,r28
 1189 0026 6F5A      		subi r22,-81
 1190 0028 7F4F      		sbci r23,-1
 1191 002a 0E94 0000 		call getthread
 1192 002e 6C01      		movw r12,r24
 1193 0030 6396      		adiw r28,81-62
GAS LISTING /tmp/ccwwE1g2.s 			page 23


 1194 0032 6EAD      		ldd r22,Y+62
 1195 0034 7FAD      		ldd r23,Y+63
 1196 0036 6397      		sbiw r28,81-62
 1197 0038 6E5F      		subi r22,-2
 1198 003a 7F4F      		sbci r23,-1
 1199 003c 20E0      		ldi r18,0
 1200 003e 30E0      		ldi r19,0
 1201 0040 40E0      		ldi r20,lo8(.LC18)
 1202 0042 50E0      		ldi r21,hi8(.LC18)
 1203 0044 C801      		movw r24,r16
 1204 0046 0E94 0000 		call luaL_optlstring
 1205 004a 7C01      		movw r14,r24
 1206 004c 6396      		adiw r28,81-62
 1207 004e 6EAD      		ldd r22,Y+62
 1208 0050 7FAD      		ldd r23,Y+63
 1209 0052 6397      		sbiw r28,81-62
 1210 0054 6F5F      		subi r22,-1
 1211 0056 7F4F      		sbci r23,-1
 1212 0058 C801      		movw r24,r16
 1213 005a 0E94 0000 		call lua_isnumber
 1214 005e 6396      		adiw r28,81-62
 1215 0060 6EAD      		ldd r22,Y+62
 1216 0062 7FAD      		ldd r23,Y+63
 1217 0064 6397      		sbiw r28,81-62
 1218 0066 6F5F      		subi r22,-1
 1219 0068 7F4F      		sbci r23,-1
 1220 006a 892B      		or r24,r25
 1221 006c 01F0      		breq .L84
 1222 006e C801      		movw r24,r16
 1223 0070 0E94 0000 		call lua_tointeger
 1224 0074 AE01      		movw r20,r28
 1225 0076 4F5F      		subi r20,-1
 1226 0078 5F4F      		sbci r21,-1
 1227 007a BC01      		movw r22,r24
 1228 007c C601      		movw r24,r12
 1229 007e 0E94 0000 		call lua_getstack
 1230 0082 892B      		or r24,r25
 1231 0084 01F0      		breq .+2
 1232 0086 00C0      		rjmp .L85
 1233 0088 C801      		movw r24,r16
 1234 008a 0E94 0000 		call lua_pushnil
 1235 008e 00C0      		rjmp .L95
 1236               	.L84:
 1237 0090 C801      		movw r24,r16
 1238 0092 0E94 0000 		call lua_type
 1239 0096 0897      		sbiw r24,8
 1240 0098 01F4      		brne .L87
 1241               	.L88:
 1242 009a FF92      		push r15
 1243 009c EF92      		push r14
 1244 009e 80E0      		ldi r24,lo8(.LC19)
 1245 00a0 90E0      		ldi r25,hi8(.LC19)
 1246 00a2 9F93      		push r25
 1247 00a4 8F93      		push r24
 1248 00a6 1F93      		push r17
 1249 00a8 0F93      		push r16
 1250 00aa 0E94 0000 		call lua_pushfstring
GAS LISTING /tmp/ccwwE1g2.s 			page 24


 1251 00ae 40E0      		ldi r20,0
 1252 00b0 50E0      		ldi r21,0
 1253 00b2 6FEF      		ldi r22,lo8(-1)
 1254 00b4 7FEF      		ldi r23,lo8(-1)
 1255 00b6 C801      		movw r24,r16
 1256 00b8 0E94 0000 		call lua_tolstring
 1257 00bc 7C01      		movw r14,r24
 1258 00be 6396      		adiw r28,81-62
 1259 00c0 6EAD      		ldd r22,Y+62
 1260 00c2 7FAD      		ldd r23,Y+63
 1261 00c4 6397      		sbiw r28,81-62
 1262 00c6 6F5F      		subi r22,-1
 1263 00c8 7F4F      		sbci r23,-1
 1264 00ca C801      		movw r24,r16
 1265 00cc 0E94 0000 		call lua_pushvalue
 1266 00d0 41E0      		ldi r20,lo8(1)
 1267 00d2 50E0      		ldi r21,0
 1268 00d4 B601      		movw r22,r12
 1269 00d6 C801      		movw r24,r16
 1270 00d8 0E94 0000 		call lua_xmove
 1271 00dc 0F90      		pop __tmp_reg__
 1272 00de 0F90      		pop __tmp_reg__
 1273 00e0 0F90      		pop __tmp_reg__
 1274 00e2 0F90      		pop __tmp_reg__
 1275 00e4 0F90      		pop __tmp_reg__
 1276 00e6 0F90      		pop __tmp_reg__
 1277 00e8 00C0      		rjmp .L85
 1278               	.L87:
 1279 00ea 6396      		adiw r28,81-62
 1280 00ec 6EAD      		ldd r22,Y+62
 1281 00ee 7FAD      		ldd r23,Y+63
 1282 00f0 6397      		sbiw r28,81-62
 1283 00f2 6F5F      		subi r22,-1
 1284 00f4 7F4F      		sbci r23,-1
 1285 00f6 C801      		movw r24,r16
 1286 00f8 0E94 0000 		call lua_type
 1287 00fc 0397      		sbiw r24,3
 1288 00fe 01F0      		breq .L88
 1289 0100 6396      		adiw r28,81-62
 1290 0102 6EAD      		ldd r22,Y+62
 1291 0104 7FAD      		ldd r23,Y+63
 1292 0106 6397      		sbiw r28,81-62
 1293 0108 6F5F      		subi r22,-1
 1294 010a 7F4F      		sbci r23,-1
 1295 010c 40E0      		ldi r20,lo8(.LC20)
 1296 010e 50E0      		ldi r21,hi8(.LC20)
 1297 0110 00C0      		rjmp .L114
 1298               	.L85:
 1299 0112 AE01      		movw r20,r28
 1300 0114 4F5F      		subi r20,-1
 1301 0116 5F4F      		sbci r21,-1
 1302 0118 B701      		movw r22,r14
 1303 011a C601      		movw r24,r12
 1304 011c 0E94 0000 		call lua_getinfo
 1305 0120 892B      		or r24,r25
 1306 0122 01F4      		brne .L89
 1307 0124 6396      		adiw r28,81-62
GAS LISTING /tmp/ccwwE1g2.s 			page 25


 1308 0126 6EAD      		ldd r22,Y+62
 1309 0128 7FAD      		ldd r23,Y+63
 1310 012a 6397      		sbiw r28,81-62
 1311 012c 6E5F      		subi r22,-2
 1312 012e 7F4F      		sbci r23,-1
 1313 0130 40E0      		ldi r20,lo8(.LC21)
 1314 0132 50E0      		ldi r21,hi8(.LC21)
 1315               	.L114:
 1316 0134 C801      		movw r24,r16
 1317 0136 0E94 0000 		call luaL_argerror
 1318 013a 00C0      		rjmp .L86
 1319               	.L89:
 1320 013c 42E0      		ldi r20,lo8(2)
 1321 013e 50E0      		ldi r21,0
 1322 0140 60E0      		ldi r22,0
 1323 0142 70E0      		ldi r23,0
 1324 0144 C801      		movw r24,r16
 1325 0146 0E94 0000 		call lua_createtable
 1326 014a 63E5      		ldi r22,lo8(83)
 1327 014c 70E0      		ldi r23,0
 1328 014e C701      		movw r24,r14
 1329 0150 0E94 0000 		call strchr
 1330 0154 892B      		or r24,r25
 1331 0156 01F0      		breq .L90
 1332 0158 4985      		ldd r20,Y+9
 1333 015a 5A85      		ldd r21,Y+10
 1334 015c 60E0      		ldi r22,lo8(.LC22)
 1335 015e 70E0      		ldi r23,hi8(.LC22)
 1336 0160 C801      		movw r24,r16
 1337 0162 0E94 0000 		call settabss
 1338 0166 AE01      		movw r20,r28
 1339 0168 4D5E      		subi r20,-19
 1340 016a 5F4F      		sbci r21,-1
 1341 016c 60E0      		ldi r22,lo8(.LC23)
 1342 016e 70E0      		ldi r23,hi8(.LC23)
 1343 0170 C801      		movw r24,r16
 1344 0172 0E94 0000 		call settabss
 1345 0176 4F85      		ldd r20,Y+15
 1346 0178 5889      		ldd r21,Y+16
 1347 017a 60E0      		ldi r22,lo8(.LC24)
 1348 017c 70E0      		ldi r23,hi8(.LC24)
 1349 017e C801      		movw r24,r16
 1350 0180 0E94 0000 		call settabsi
 1351 0184 4989      		ldd r20,Y+17
 1352 0186 5A89      		ldd r21,Y+18
 1353 0188 60E0      		ldi r22,lo8(.LC25)
 1354 018a 70E0      		ldi r23,hi8(.LC25)
 1355 018c C801      		movw r24,r16
 1356 018e 0E94 0000 		call settabsi
 1357 0192 4F81      		ldd r20,Y+7
 1358 0194 5885      		ldd r21,Y+8
 1359 0196 60E0      		ldi r22,lo8(.LC26)
 1360 0198 70E0      		ldi r23,hi8(.LC26)
 1361 019a C801      		movw r24,r16
 1362 019c 0E94 0000 		call settabss
 1363               	.L90:
 1364 01a0 6CE6      		ldi r22,lo8(108)
GAS LISTING /tmp/ccwwE1g2.s 			page 26


 1365 01a2 70E0      		ldi r23,0
 1366 01a4 C701      		movw r24,r14
 1367 01a6 0E94 0000 		call strchr
 1368 01aa 892B      		or r24,r25
 1369 01ac 01F0      		breq .L91
 1370 01ae 4B85      		ldd r20,Y+11
 1371 01b0 5C85      		ldd r21,Y+12
 1372 01b2 60E0      		ldi r22,lo8(.LC27)
 1373 01b4 70E0      		ldi r23,hi8(.LC27)
 1374 01b6 C801      		movw r24,r16
 1375 01b8 0E94 0000 		call settabsi
 1376               	.L91:
 1377 01bc 65E7      		ldi r22,lo8(117)
 1378 01be 70E0      		ldi r23,0
 1379 01c0 C701      		movw r24,r14
 1380 01c2 0E94 0000 		call strchr
 1381 01c6 892B      		or r24,r25
 1382 01c8 01F0      		breq .L92
 1383 01ca 4D85      		ldd r20,Y+13
 1384 01cc 5E85      		ldd r21,Y+14
 1385 01ce 60E0      		ldi r22,lo8(.LC28)
 1386 01d0 70E0      		ldi r23,hi8(.LC28)
 1387 01d2 C801      		movw r24,r16
 1388 01d4 0E94 0000 		call settabsi
 1389               	.L92:
 1390 01d8 6EE6      		ldi r22,lo8(110)
 1391 01da 70E0      		ldi r23,0
 1392 01dc C701      		movw r24,r14
 1393 01de 0E94 0000 		call strchr
 1394 01e2 892B      		or r24,r25
 1395 01e4 01F0      		breq .L93
 1396 01e6 4B81      		ldd r20,Y+3
 1397 01e8 5C81      		ldd r21,Y+4
 1398 01ea 60E0      		ldi r22,lo8(.LC29)
 1399 01ec 70E0      		ldi r23,hi8(.LC29)
 1400 01ee C801      		movw r24,r16
 1401 01f0 0E94 0000 		call settabss
 1402 01f4 4D81      		ldd r20,Y+5
 1403 01f6 5E81      		ldd r21,Y+6
 1404 01f8 60E0      		ldi r22,lo8(.LC30)
 1405 01fa 70E0      		ldi r23,hi8(.LC30)
 1406 01fc C801      		movw r24,r16
 1407 01fe 0E94 0000 		call settabss
 1408               	.L93:
 1409 0202 6CE4      		ldi r22,lo8(76)
 1410 0204 70E0      		ldi r23,0
 1411 0206 C701      		movw r24,r14
 1412 0208 0E94 0000 		call strchr
 1413 020c 892B      		or r24,r25
 1414 020e 01F0      		breq .L94
 1415 0210 40E0      		ldi r20,lo8(.LC31)
 1416 0212 50E0      		ldi r21,hi8(.LC31)
 1417 0214 B601      		movw r22,r12
 1418 0216 C801      		movw r24,r16
 1419 0218 0E94 0000 		call treatstackoption
 1420               	.L94:
 1421 021c 66E6      		ldi r22,lo8(102)
GAS LISTING /tmp/ccwwE1g2.s 			page 27


 1422 021e 70E0      		ldi r23,0
 1423 0220 C701      		movw r24,r14
 1424 0222 0E94 0000 		call strchr
 1425 0226 892B      		or r24,r25
 1426 0228 01F0      		breq .L95
 1427 022a 40E0      		ldi r20,lo8(.LC32)
 1428 022c 50E0      		ldi r21,hi8(.LC32)
 1429 022e B601      		movw r22,r12
 1430 0230 C801      		movw r24,r16
 1431 0232 0E94 0000 		call treatstackoption
 1432               	.L95:
 1433 0236 81E0      		ldi r24,lo8(1)
 1434 0238 90E0      		ldi r25,0
 1435               	.L86:
 1436               	/* epilogue start */
 1437 023a CE5A      		subi r28,-82
 1438 023c DF4F      		sbci r29,-1
 1439 023e 0FB6      		in __tmp_reg__,__SREG__
 1440 0240 F894      		cli
 1441 0242 DEBF      		out __SP_H__,r29
 1442 0244 0FBE      		out __SREG__,__tmp_reg__
 1443 0246 CDBF      		out __SP_L__,r28
 1444 0248 DF91      		pop r29
 1445 024a CF91      		pop r28
 1446 024c 1F91      		pop r17
 1447 024e 0F91      		pop r16
 1448 0250 FF90      		pop r15
 1449 0252 EF90      		pop r14
 1450 0254 DF90      		pop r13
 1451 0256 CF90      		pop r12
 1452 0258 0895      		ret
 1453               		.size	db_getinfo, .-db_getinfo
 1454               		.section	.text.hookf,"ax",@progbits
 1455               		.type	hookf, @function
 1456               	hookf:
 1457 0000 0F93      		push r16
 1458 0002 1F93      		push r17
 1459 0004 CF93      		push r28
 1460 0006 DF93      		push r29
 1461               	/* prologue: function */
 1462               	/* frame size = 0 */
 1463               	/* stack size = 4 */
 1464               	.L__stack_usage = 4
 1465 0008 EC01      		movw r28,r24
 1466 000a 8B01      		movw r16,r22
 1467 000c 60E0      		ldi r22,lo8(KEY_HOOK)
 1468 000e 70E0      		ldi r23,hi8(KEY_HOOK)
 1469 0010 0E94 0000 		call lua_pushlightuserdata
 1470 0014 60EF      		ldi r22,lo8(-16)
 1471 0016 78ED      		ldi r23,lo8(-40)
 1472 0018 CE01      		movw r24,r28
 1473 001a 0E94 0000 		call lua_rawget
 1474 001e BE01      		movw r22,r28
 1475 0020 CE01      		movw r24,r28
 1476 0022 0E94 0000 		call lua_pushlightuserdata
 1477 0026 6EEF      		ldi r22,lo8(-2)
 1478 0028 7FEF      		ldi r23,lo8(-1)
GAS LISTING /tmp/ccwwE1g2.s 			page 28


 1479 002a CE01      		movw r24,r28
 1480 002c 0E94 0000 		call lua_rawget
 1481 0030 6FEF      		ldi r22,lo8(-1)
 1482 0032 7FEF      		ldi r23,lo8(-1)
 1483 0034 CE01      		movw r24,r28
 1484 0036 0E94 0000 		call lua_type
 1485 003a 0897      		sbiw r24,8
 1486 003c 01F4      		brne .L115
 1487 003e D801      		movw r26,r16
 1488 0040 ED91      		ld r30,X+
 1489 0042 FC91      		ld r31,X
 1490 0044 EE0F      		lsl r30
 1491 0046 FF1F      		rol r31
 1492 0048 E050      		subi r30,lo8(-(hooknames.2927))
 1493 004a F040      		sbci r31,hi8(-(hooknames.2927))
 1494 004c 6081      		ld r22,Z
 1495 004e 7181      		ldd r23,Z+1
 1496 0050 CE01      		movw r24,r28
 1497 0052 0E94 0000 		call lua_pushstring
 1498 0056 F801      		movw r30,r16
 1499 0058 6285      		ldd r22,Z+10
 1500 005a 7385      		ldd r23,Z+11
 1501 005c CE01      		movw r24,r28
 1502 005e 77FD      		sbrc r23,7
 1503 0060 00C0      		rjmp .L117
 1504 0062 0E94 0000 		call lua_pushinteger
 1505 0066 00C0      		rjmp .L118
 1506               	.L117:
 1507 0068 0E94 0000 		call lua_pushnil
 1508               	.L118:
 1509 006c 40E0      		ldi r20,0
 1510 006e 50E0      		ldi r21,0
 1511 0070 62E0      		ldi r22,lo8(2)
 1512 0072 70E0      		ldi r23,0
 1513 0074 CE01      		movw r24,r28
 1514               	/* epilogue start */
 1515 0076 DF91      		pop r29
 1516 0078 CF91      		pop r28
 1517 007a 1F91      		pop r17
 1518 007c 0F91      		pop r16
 1519 007e 0C94 0000 		jmp lua_call
 1520               	.L115:
 1521               	/* epilogue start */
 1522 0082 DF91      		pop r29
 1523 0084 CF91      		pop r28
 1524 0086 1F91      		pop r17
 1525 0088 0F91      		pop r16
 1526 008a 0895      		ret
 1527               		.size	hookf, .-hookf
 1528               		.section	.text.gethooktable,"ax",@progbits
 1529               		.type	gethooktable, @function
 1530               	gethooktable:
 1531 0000 CF93      		push r28
 1532 0002 DF93      		push r29
 1533               	/* prologue: function */
 1534               	/* frame size = 0 */
 1535               	/* stack size = 2 */
GAS LISTING /tmp/ccwwE1g2.s 			page 29


 1536               	.L__stack_usage = 2
 1537 0004 EC01      		movw r28,r24
 1538 0006 60E0      		ldi r22,lo8(KEY_HOOK)
 1539 0008 70E0      		ldi r23,hi8(KEY_HOOK)
 1540 000a 0E94 0000 		call lua_pushlightuserdata
 1541 000e 60EF      		ldi r22,lo8(-16)
 1542 0010 78ED      		ldi r23,lo8(-40)
 1543 0012 CE01      		movw r24,r28
 1544 0014 0E94 0000 		call lua_rawget
 1545 0018 6FEF      		ldi r22,lo8(-1)
 1546 001a 7FEF      		ldi r23,lo8(-1)
 1547 001c CE01      		movw r24,r28
 1548 001e 0E94 0000 		call lua_type
 1549 0022 0797      		sbiw r24,7
 1550 0024 01F0      		breq .L119
 1551 0026 6EEF      		ldi r22,lo8(-2)
 1552 0028 7FEF      		ldi r23,lo8(-1)
 1553 002a CE01      		movw r24,r28
 1554 002c 0E94 0000 		call lua_settop
 1555 0030 41E0      		ldi r20,lo8(1)
 1556 0032 50E0      		ldi r21,0
 1557 0034 60E0      		ldi r22,0
 1558 0036 70E0      		ldi r23,0
 1559 0038 CE01      		movw r24,r28
 1560 003a 0E94 0000 		call lua_createtable
 1561 003e 60E0      		ldi r22,lo8(KEY_HOOK)
 1562 0040 70E0      		ldi r23,hi8(KEY_HOOK)
 1563 0042 CE01      		movw r24,r28
 1564 0044 0E94 0000 		call lua_pushlightuserdata
 1565 0048 6EEF      		ldi r22,lo8(-2)
 1566 004a 7FEF      		ldi r23,lo8(-1)
 1567 004c CE01      		movw r24,r28
 1568 004e 0E94 0000 		call lua_pushvalue
 1569 0052 60EF      		ldi r22,lo8(-16)
 1570 0054 78ED      		ldi r23,lo8(-40)
 1571 0056 CE01      		movw r24,r28
 1572               	/* epilogue start */
 1573 0058 DF91      		pop r29
 1574 005a CF91      		pop r28
 1575 005c 0C94 0000 		jmp lua_rawset
 1576               	.L119:
 1577               	/* epilogue start */
 1578 0060 DF91      		pop r29
 1579 0062 CF91      		pop r28
 1580 0064 0895      		ret
 1581               		.size	gethooktable, .-gethooktable
 1582               		.section	.text.db_sethook,"ax",@progbits
 1583               		.type	db_sethook, @function
 1584               	db_sethook:
 1585 0000 8F92      		push r8
 1586 0002 9F92      		push r9
 1587 0004 AF92      		push r10
 1588 0006 BF92      		push r11
 1589 0008 CF92      		push r12
 1590 000a DF92      		push r13
 1591 000c EF92      		push r14
 1592 000e FF92      		push r15
GAS LISTING /tmp/ccwwE1g2.s 			page 30


 1593 0010 0F93      		push r16
 1594 0012 1F93      		push r17
 1595 0014 CF93      		push r28
 1596 0016 DF93      		push r29
 1597 0018 1F92      		push __zero_reg__
 1598 001a 1F92      		push __zero_reg__
 1599 001c CDB7      		in r28,__SP_L__
 1600 001e DEB7      		in r29,__SP_H__
 1601               	/* prologue: function */
 1602               	/* frame size = 2 */
 1603               	/* stack size = 14 */
 1604               	.L__stack_usage = 14
 1605 0020 8C01      		movw r16,r24
 1606 0022 BE01      		movw r22,r28
 1607 0024 6F5F      		subi r22,-1
 1608 0026 7F4F      		sbci r23,-1
 1609 0028 0E94 0000 		call getthread
 1610 002c 6C01      		movw r12,r24
 1611 002e 6981      		ldd r22,Y+1
 1612 0030 7A81      		ldd r23,Y+2
 1613 0032 6F5F      		subi r22,-1
 1614 0034 7F4F      		sbci r23,-1
 1615 0036 C801      		movw r24,r16
 1616 0038 0E94 0000 		call lua_type
 1617 003c 6981      		ldd r22,Y+1
 1618 003e 7A81      		ldd r23,Y+2
 1619 0040 1816      		cp __zero_reg__,r24
 1620 0042 1906      		cpc __zero_reg__,r25
 1621 0044 04F0      		brlt .L122
 1622 0046 6F5F      		subi r22,-1
 1623 0048 7F4F      		sbci r23,-1
 1624 004a C801      		movw r24,r16
 1625 004c 0E94 0000 		call lua_settop
 1626 0050 A12C      		mov r10,__zero_reg__
 1627 0052 B12C      		mov r11,__zero_reg__
 1628 0054 812C      		mov r8,__zero_reg__
 1629 0056 912C      		mov r9,__zero_reg__
 1630 0058 E12C      		mov r14,__zero_reg__
 1631 005a F12C      		mov r15,__zero_reg__
 1632 005c 00C0      		rjmp .L123
 1633               	.L122:
 1634 005e 6E5F      		subi r22,-2
 1635 0060 7F4F      		sbci r23,-1
 1636 0062 40E0      		ldi r20,0
 1637 0064 50E0      		ldi r21,0
 1638 0066 C801      		movw r24,r16
 1639 0068 0E94 0000 		call luaL_checklstring
 1640 006c 5C01      		movw r10,r24
 1641 006e 6981      		ldd r22,Y+1
 1642 0070 7A81      		ldd r23,Y+2
 1643 0072 6F5F      		subi r22,-1
 1644 0074 7F4F      		sbci r23,-1
 1645 0076 C801      		movw r24,r16
 1646 0078 0E94 0000 		call luaL_checkanyfunction
 1647 007c 6981      		ldd r22,Y+1
 1648 007e 7A81      		ldd r23,Y+2
 1649 0080 6D5F      		subi r22,-3
GAS LISTING /tmp/ccwwE1g2.s 			page 31


 1650 0082 7F4F      		sbci r23,-1
 1651 0084 40E0      		ldi r20,0
 1652 0086 50E0      		ldi r21,0
 1653 0088 C801      		movw r24,r16
 1654 008a 0E94 0000 		call luaL_optinteger
 1655 008e 4C01      		movw r8,r24
 1656 0090 63E6      		ldi r22,lo8(99)
 1657 0092 70E0      		ldi r23,0
 1658 0094 C501      		movw r24,r10
 1659 0096 0E94 0000 		call strchr
 1660 009a 31E0      		ldi r19,lo8(1)
 1661 009c 20E0      		ldi r18,0
 1662 009e 892B      		or r24,r25
 1663 00a0 01F4      		brne .L124
 1664 00a2 30E0      		ldi r19,0
 1665               	.L124:
 1666 00a4 E32E      		mov r14,r19
 1667 00a6 F22E      		mov r15,r18
 1668 00a8 62E7      		ldi r22,lo8(114)
 1669 00aa 70E0      		ldi r23,0
 1670 00ac C501      		movw r24,r10
 1671 00ae 0E94 0000 		call strchr
 1672 00b2 892B      		or r24,r25
 1673 00b4 01F0      		breq .L125
 1674 00b6 6894      		set
 1675 00b8 E1F8      		bld r14,1
 1676               	.L125:
 1677 00ba 6CE6      		ldi r22,lo8(108)
 1678 00bc 70E0      		ldi r23,0
 1679 00be C501      		movw r24,r10
 1680 00c0 0E94 0000 		call strchr
 1681 00c4 892B      		or r24,r25
 1682 00c6 01F0      		breq .L126
 1683 00c8 6894      		set
 1684 00ca E2F8      		bld r14,2
 1685               	.L126:
 1686 00cc 1814      		cp __zero_reg__,r8
 1687 00ce 1904      		cpc __zero_reg__,r9
 1688 00d0 04F4      		brge .L127
 1689 00d2 6894      		set
 1690 00d4 E3F8      		bld r14,3
 1691               	.L127:
 1692 00d6 80E0      		ldi r24,lo8(gs(hookf))
 1693 00d8 A82E      		mov r10,r24
 1694 00da 80E0      		ldi r24,hi8(gs(hookf))
 1695 00dc B82E      		mov r11,r24
 1696               	.L123:
 1697 00de C801      		movw r24,r16
 1698 00e0 0E94 0000 		call gethooktable
 1699 00e4 B601      		movw r22,r12
 1700 00e6 C801      		movw r24,r16
 1701 00e8 0E94 0000 		call lua_pushlightuserdata
 1702 00ec 6981      		ldd r22,Y+1
 1703 00ee 7A81      		ldd r23,Y+2
 1704 00f0 6F5F      		subi r22,-1
 1705 00f2 7F4F      		sbci r23,-1
 1706 00f4 C801      		movw r24,r16
GAS LISTING /tmp/ccwwE1g2.s 			page 32


 1707 00f6 0E94 0000 		call lua_pushvalue
 1708 00fa 6DEF      		ldi r22,lo8(-3)
 1709 00fc 7FEF      		ldi r23,lo8(-1)
 1710 00fe C801      		movw r24,r16
 1711 0100 0E94 0000 		call lua_rawset
 1712 0104 6EEF      		ldi r22,lo8(-2)
 1713 0106 7FEF      		ldi r23,lo8(-1)
 1714 0108 C801      		movw r24,r16
 1715 010a 0E94 0000 		call lua_settop
 1716 010e 9401      		movw r18,r8
 1717 0110 A701      		movw r20,r14
 1718 0112 B501      		movw r22,r10
 1719 0114 C601      		movw r24,r12
 1720 0116 0E94 0000 		call lua_sethook
 1721 011a 80E0      		ldi r24,0
 1722 011c 90E0      		ldi r25,0
 1723               	/* epilogue start */
 1724 011e 0F90      		pop __tmp_reg__
 1725 0120 0F90      		pop __tmp_reg__
 1726 0122 DF91      		pop r29
 1727 0124 CF91      		pop r28
 1728 0126 1F91      		pop r17
 1729 0128 0F91      		pop r16
 1730 012a FF90      		pop r15
 1731 012c EF90      		pop r14
 1732 012e DF90      		pop r13
 1733 0130 CF90      		pop r12
 1734 0132 BF90      		pop r11
 1735 0134 AF90      		pop r10
 1736 0136 9F90      		pop r9
 1737 0138 8F90      		pop r8
 1738 013a 0895      		ret
 1739               		.size	db_sethook, .-db_sethook
 1740               		.section	.rodata.str1.1
 1741               	.LC33:
 1742 0178 6578 7465 		.string	"external hook"
 1742      726E 616C 
 1742      2068 6F6F 
 1742      6B00 
 1743               		.section	.text.db_gethook,"ax",@progbits
 1744               		.type	db_gethook, @function
 1745               	db_gethook:
 1746 0000 DF92      		push r13
 1747 0002 EF92      		push r14
 1748 0004 FF92      		push r15
 1749 0006 0F93      		push r16
 1750 0008 1F93      		push r17
 1751 000a CF93      		push r28
 1752 000c DF93      		push r29
 1753 000e CDB7      		in r28,__SP_L__
 1754 0010 DEB7      		in r29,__SP_H__
 1755 0012 2797      		sbiw r28,7
 1756 0014 0FB6      		in __tmp_reg__,__SREG__
 1757 0016 F894      		cli
 1758 0018 DEBF      		out __SP_H__,r29
 1759 001a 0FBE      		out __SREG__,__tmp_reg__
 1760 001c CDBF      		out __SP_L__,r28
GAS LISTING /tmp/ccwwE1g2.s 			page 33


 1761               	/* prologue: function */
 1762               	/* frame size = 7 */
 1763               	/* stack size = 14 */
 1764               	.L__stack_usage = 14
 1765 001e 8C01      		movw r16,r24
 1766 0020 BE01      		movw r22,r28
 1767 0022 6A5F      		subi r22,-6
 1768 0024 7F4F      		sbci r23,-1
 1769 0026 0E94 0000 		call getthread
 1770 002a 7C01      		movw r14,r24
 1771 002c 0E94 0000 		call lua_gethookmask
 1772 0030 D82E      		mov r13,r24
 1773 0032 C701      		movw r24,r14
 1774 0034 0E94 0000 		call lua_gethook
 1775 0038 0097      		sbiw r24,0
 1776 003a 01F0      		breq .L135
 1777 003c 8050      		subi r24,lo8(gs(hookf))
 1778 003e 9040      		sbci r25,hi8(gs(hookf))
 1779 0040 01F0      		breq .L135
 1780 0042 4DE0      		ldi r20,lo8(13)
 1781 0044 50E0      		ldi r21,0
 1782 0046 60E0      		ldi r22,lo8(.LC33)
 1783 0048 70E0      		ldi r23,hi8(.LC33)
 1784 004a C801      		movw r24,r16
 1785 004c 0E94 0000 		call lua_pushlstring
 1786 0050 00C0      		rjmp .L136
 1787               	.L135:
 1788 0052 C801      		movw r24,r16
 1789 0054 0E94 0000 		call gethooktable
 1790 0058 B701      		movw r22,r14
 1791 005a C801      		movw r24,r16
 1792 005c 0E94 0000 		call lua_pushlightuserdata
 1793 0060 6EEF      		ldi r22,lo8(-2)
 1794 0062 7FEF      		ldi r23,lo8(-1)
 1795 0064 C801      		movw r24,r16
 1796 0066 0E94 0000 		call lua_rawget
 1797 006a 6EEF      		ldi r22,lo8(-2)
 1798 006c 7FEF      		ldi r23,lo8(-1)
 1799 006e C801      		movw r24,r16
 1800 0070 0E94 0000 		call lua_remove
 1801               	.L136:
 1802 0074 D0FE      		sbrs r13,0
 1803 0076 00C0      		rjmp .L140
 1804 0078 83E6      		ldi r24,lo8(99)
 1805 007a 8983      		std Y+1,r24
 1806 007c 81E0      		ldi r24,lo8(1)
 1807 007e 90E0      		ldi r25,0
 1808 0080 00C0      		rjmp .L137
 1809               	.L140:
 1810 0082 80E0      		ldi r24,0
 1811 0084 90E0      		ldi r25,0
 1812               	.L137:
 1813 0086 D1FE      		sbrs r13,1
 1814 0088 00C0      		rjmp .L138
 1815 008a E1E0      		ldi r30,lo8(1)
 1816 008c F0E0      		ldi r31,0
 1817 008e EC0F      		add r30,r28
GAS LISTING /tmp/ccwwE1g2.s 			page 34


 1818 0090 FD1F      		adc r31,r29
 1819 0092 E80F      		add r30,r24
 1820 0094 F91F      		adc r31,r25
 1821 0096 22E7      		ldi r18,lo8(114)
 1822 0098 2083      		st Z,r18
 1823 009a 0196      		adiw r24,1
 1824               	.L138:
 1825 009c D2FE      		sbrs r13,2
 1826 009e 00C0      		rjmp .L139
 1827 00a0 E1E0      		ldi r30,lo8(1)
 1828 00a2 F0E0      		ldi r31,0
 1829 00a4 EC0F      		add r30,r28
 1830 00a6 FD1F      		adc r31,r29
 1831 00a8 E80F      		add r30,r24
 1832 00aa F91F      		adc r31,r25
 1833 00ac 2CE6      		ldi r18,lo8(108)
 1834 00ae 2083      		st Z,r18
 1835 00b0 0196      		adiw r24,1
 1836               	.L139:
 1837 00b2 E1E0      		ldi r30,lo8(1)
 1838 00b4 F0E0      		ldi r31,0
 1839 00b6 EC0F      		add r30,r28
 1840 00b8 FD1F      		adc r31,r29
 1841 00ba E80F      		add r30,r24
 1842 00bc F91F      		adc r31,r25
 1843 00be 1082      		st Z,__zero_reg__
 1844 00c0 BE01      		movw r22,r28
 1845 00c2 6F5F      		subi r22,-1
 1846 00c4 7F4F      		sbci r23,-1
 1847 00c6 C801      		movw r24,r16
 1848 00c8 0E94 0000 		call lua_pushstring
 1849 00cc C701      		movw r24,r14
 1850 00ce 0E94 0000 		call lua_gethookcount
 1851 00d2 BC01      		movw r22,r24
 1852 00d4 C801      		movw r24,r16
 1853 00d6 0E94 0000 		call lua_pushinteger
 1854 00da 83E0      		ldi r24,lo8(3)
 1855 00dc 90E0      		ldi r25,0
 1856               	/* epilogue start */
 1857 00de 2796      		adiw r28,7
 1858 00e0 0FB6      		in __tmp_reg__,__SREG__
 1859 00e2 F894      		cli
 1860 00e4 DEBF      		out __SP_H__,r29
 1861 00e6 0FBE      		out __SREG__,__tmp_reg__
 1862 00e8 CDBF      		out __SP_L__,r28
 1863 00ea DF91      		pop r29
 1864 00ec CF91      		pop r28
 1865 00ee 1F91      		pop r17
 1866 00f0 0F91      		pop r16
 1867 00f2 FF90      		pop r15
 1868 00f4 EF90      		pop r14
 1869 00f6 DF90      		pop r13
 1870 00f8 0895      		ret
 1871               		.size	db_gethook, .-db_gethook
 1872               		.section	.rodata.str1.1
 1873               	.LC34:
 1874 0186 6465 6275 		.string	"debug"
GAS LISTING /tmp/ccwwE1g2.s 			page 35


 1874      6700 
 1875               		.section	.text.luaopen_debug,"ax",@progbits
 1876               	.global	luaopen_debug
 1877               		.type	luaopen_debug, @function
 1878               	luaopen_debug:
 1879               	/* prologue: function */
 1880               	/* frame size = 0 */
 1881               	/* stack size = 0 */
 1882               	.L__stack_usage = 0
 1883 0000 40E0      		ldi r20,lo8(dblib)
 1884 0002 50E0      		ldi r21,hi8(dblib)
 1885 0004 60E0      		ldi r22,lo8(.LC34)
 1886 0006 70E0      		ldi r23,hi8(.LC34)
 1887 0008 0E94 0000 		call luaL_register
 1888 000c 81E0      		ldi r24,lo8(1)
 1889 000e 90E0      		ldi r25,0
 1890 0010 0895      		ret
 1891               		.size	luaopen_debug, .-luaopen_debug
 1892               		.section	.rodata.str1.1
 1893               	.LC35:
 1894 018c 6361 6C6C 		.string	"call"
 1894      00
 1895               	.LC36:
 1896 0191 7265 7475 		.string	"return"
 1896      726E 00
 1897               	.LC37:
 1898 0198 6C69 6E65 		.string	"line"
 1898      00
 1899               	.LC38:
 1900 019d 636F 756E 		.string	"count"
 1900      7400 
 1901               	.LC39:
 1902 01a3 7461 696C 		.string	"tail return"
 1902      2072 6574 
 1902      7572 6E00 
 1903               		.section	.rodata
 1904               		.type	hooknames.2927, @object
 1905               		.size	hooknames.2927, 10
 1906               	hooknames.2927:
 1907 0000 0000      		.word	.LC35
 1908 0002 0000      		.word	.LC36
 1909 0004 0000      		.word	.LC37
 1910 0006 0000      		.word	.LC38
 1911 0008 0000      		.word	.LC39
 1912               	.global	dblib
 1913               		.section	.rodata.str1.1
 1914               	.LC40:
 1915 01af 6765 7466 		.string	"getfenv"
 1915      656E 7600 
 1916               	.LC41:
 1917 01b7 6765 7468 		.string	"gethook"
 1917      6F6F 6B00 
 1918               	.LC42:
 1919 01bf 6765 7469 		.string	"getinfo"
 1919      6E66 6F00 
 1920               	.LC43:
 1921 01c7 6765 746C 		.string	"getlocal"
GAS LISTING /tmp/ccwwE1g2.s 			page 36


 1921      6F63 616C 
 1921      00
 1922               	.LC44:
 1923 01d0 6765 7472 		.string	"getregistry"
 1923      6567 6973 
 1923      7472 7900 
 1924               	.LC45:
 1925 01dc 6765 746D 		.string	"getmetatable"
 1925      6574 6174 
 1925      6162 6C65 
 1925      00
 1926               	.LC46:
 1927 01e9 6765 7475 		.string	"getupvalue"
 1927      7076 616C 
 1927      7565 00
 1928               	.LC47:
 1929 01f4 7365 7466 		.string	"setfenv"
 1929      656E 7600 
 1930               	.LC48:
 1931 01fc 7365 7468 		.string	"sethook"
 1931      6F6F 6B00 
 1932               	.LC49:
 1933 0204 7365 746C 		.string	"setlocal"
 1933      6F63 616C 
 1933      00
 1934               	.LC50:
 1935 020d 7365 746D 		.string	"setmetatable"
 1935      6574 6174 
 1935      6162 6C65 
 1935      00
 1936               	.LC51:
 1937 021a 7365 7475 		.string	"setupvalue"
 1937      7076 616C 
 1937      7565 00
 1938               	.LC52:
 1939 0225 7472 6163 		.string	"traceback"
 1939      6562 6163 
 1939      6B00 
 1940               		.section	.rodata
 1941               		.type	dblib, @object
 1942               		.size	dblib, 60
 1943               	dblib:
 1944 000a 0000      		.word	.LC34
 1945 000c 0000      		.word	gs(db_debug)
 1946 000e 0000      		.word	.LC40
 1947 0010 0000      		.word	gs(db_getfenv)
 1948 0012 0000      		.word	.LC41
 1949 0014 0000      		.word	gs(db_gethook)
 1950 0016 0000      		.word	.LC42
 1951 0018 0000      		.word	gs(db_getinfo)
 1952 001a 0000      		.word	.LC43
 1953 001c 0000      		.word	gs(db_getlocal)
 1954 001e 0000      		.word	.LC44
 1955 0020 0000      		.word	gs(db_getregistry)
 1956 0022 0000      		.word	.LC45
 1957 0024 0000      		.word	gs(db_getmetatable)
 1958 0026 0000      		.word	.LC46
GAS LISTING /tmp/ccwwE1g2.s 			page 37


 1959 0028 0000      		.word	gs(db_getupvalue)
 1960 002a 0000      		.word	.LC47
 1961 002c 0000      		.word	gs(db_setfenv)
 1962 002e 0000      		.word	.LC48
 1963 0030 0000      		.word	gs(db_sethook)
 1964 0032 0000      		.word	.LC49
 1965 0034 0000      		.word	gs(db_setlocal)
 1966 0036 0000      		.word	.LC50
 1967 0038 0000      		.word	gs(db_setmetatable)
 1968 003a 0000      		.word	.LC51
 1969 003c 0000      		.word	gs(db_setupvalue)
 1970 003e 0000      		.word	.LC52
 1971 0040 0000      		.word	gs(db_errorfb)
 1972 0042 0000      		.word	0
 1973 0044 0000      		.word	0
 1974               		.type	KEY_HOOK, @object
 1975               		.size	KEY_HOOK, 1
 1976               	KEY_HOOK:
 1977 0046 68        		.byte	104
 1978               		.ident	"GCC: (GNU) 5.3.0"
 1979               	.global __do_copy_data
GAS LISTING /tmp/ccwwE1g2.s 			page 38


DEFINED SYMBOLS
                            *ABS*:0000000000000000 ldblib.c
     /tmp/ccwwE1g2.s:2      *ABS*:000000000000003e __SP_H__
     /tmp/ccwwE1g2.s:3      *ABS*:000000000000003d __SP_L__
     /tmp/ccwwE1g2.s:4      *ABS*:000000000000003f __SREG__
     /tmp/ccwwE1g2.s:5      *ABS*:000000000000003b __RAMPZ__
     /tmp/ccwwE1g2.s:6      *ABS*:0000000000000000 __tmp_reg__
     /tmp/ccwwE1g2.s:7      *ABS*:0000000000000001 __zero_reg__
     /tmp/ccwwE1g2.s:10     .text.auxupvalue:0000000000000000 auxupvalue
     /tmp/ccwwE1g2.s:80     .text.db_setupvalue:0000000000000000 db_setupvalue
     /tmp/ccwwE1g2.s:101    .text.db_getupvalue:0000000000000000 db_getupvalue
     /tmp/ccwwE1g2.s:115    .text.db_setmetatable:0000000000000000 db_setmetatable
     /tmp/ccwwE1g2.s:157    .text.db_getregistry:0000000000000000 db_getregistry
     /tmp/ccwwE1g2.s:174    .text.db_setfenv:0000000000000000 db_setfenv
     /tmp/ccwwE1g2.s:218    .text.db_getmetatable:0000000000000000 db_getmetatable
     /tmp/ccwwE1g2.s:247    .text.settabsi:0000000000000000 settabsi
     /tmp/ccwwE1g2.s:273    .text.settabss:0000000000000000 settabss
     /tmp/ccwwE1g2.s:299    .text.treatstackoption:0000000000000000 treatstackoption
     /tmp/ccwwE1g2.s:342    .text.db_getfenv:0000000000000000 db_getfenv
     /tmp/ccwwE1g2.s:363    .text.db_debug:0000000000000000 db_debug
     /tmp/ccwwE1g2.s:483    .text.getthread:0000000000000000 getthread
     /tmp/ccwwE1g2.s:552    .text.db_errorfb:0000000000000000 db_errorfb
     /tmp/ccwwE1g2.s:915    .text.db_setlocal:0000000000000000 db_setlocal
     /tmp/ccwwE1g2.s:1024   .text.db_getlocal:0000000000000000 db_getlocal
     /tmp/ccwwE1g2.s:1165   .text.db_getinfo:0000000000000000 db_getinfo
     /tmp/ccwwE1g2.s:1456   .text.hookf:0000000000000000 hookf
     /tmp/ccwwE1g2.s:1976   .rodata:0000000000000046 KEY_HOOK
     /tmp/ccwwE1g2.s:1906   .rodata:0000000000000000 hooknames.2927
     /tmp/ccwwE1g2.s:1530   .text.gethooktable:0000000000000000 gethooktable
     /tmp/ccwwE1g2.s:1584   .text.db_sethook:0000000000000000 db_sethook
     /tmp/ccwwE1g2.s:1745   .text.db_gethook:0000000000000000 db_gethook
     /tmp/ccwwE1g2.s:1878   .text.luaopen_debug:0000000000000000 luaopen_debug
     /tmp/ccwwE1g2.s:1943   .rodata:000000000000000a dblib

UNDEFINED SYMBOLS
luaL_checkinteger
luaL_checktype
lua_iscfunction
lua_getupvalue
lua_setupvalue
lua_pushstring
lua_insert
luaL_checkany
lua_type
luaL_argerror
lua_settop
lua_setmetatable
lua_pushboolean
lua_pushvalue
lua_setfenv
luaL_error
lua_getmetatable
lua_pushnil
lua_pushinteger
lua_setfield
lua_remove
lua_xmove
GAS LISTING /tmp/ccwwE1g2.s 			page 39


lua_getfenv
__iob
fputs
fgets
strcmp
luaL_loadbuffer
lua_tolstring
fputc
lua_pcall
lua_tothread
lua_isnumber
lua_tointeger
lua_gettop
lua_isstring
lua_pushlstring
lua_getstack
lua_getinfo
lua_pushfstring
lua_concat
lua_setlocal
lua_getlocal
luaL_optlstring
lua_createtable
strchr
lua_pushlightuserdata
lua_rawget
lua_call
lua_rawset
luaL_checklstring
luaL_checkanyfunction
luaL_optinteger
lua_sethook
lua_gethookmask
lua_gethook
lua_gethookcount
luaL_register
__do_copy_data
