GAS LISTING /tmp/ccsHyliE.s 			page 1


   1               		.file	"ldebug.c"
   2               	__SP_H__ = 0x3e
   3               	__SP_L__ = 0x3d
   4               	__SREG__ = 0x3f
   5               	__RAMPZ__ = 0x3b
   6               	__tmp_reg__ = 0
   7               	__zero_reg__ = 1
   8               		.section	.text.currentpc,"ax",@progbits
   9               		.type	currentpc, @function
  10               	currentpc:
  11 0000 CF93      		push r28
  12 0002 DF93      		push r29
  13               	/* prologue: function */
  14               	/* frame size = 0 */
  15               	/* stack size = 2 */
  16               	.L__stack_usage = 2
  17 0004 FB01      		movw r30,r22
  18 0006 A281      		ldd r26,Z+2
  19 0008 B381      		ldd r27,Z+3
  20 000a 1496      		adiw r26,4
  21 000c 2D91      		ld r18,X+
  22 000e 3C91      		ld r19,X
  23 0010 1597      		sbiw r26,4+1
  24 0012 2830      		cpi r18,8
  25 0014 3105      		cpc r19,__zero_reg__
  26 0016 01F4      		brne .L5
  27 0018 0D90      		ld __tmp_reg__,X+
  28 001a BC91      		ld r27,X
  29 001c A02D      		mov r26,__tmp_reg__
  30 001e 1496      		adiw r26,4
  31 0020 2C91      		ld r18,X
  32 0022 1497      		sbiw r26,4
  33 0024 2111      		cpse r18,__zero_reg__
  34 0026 00C0      		rjmp .L5
  35 0028 EC01      		movw r28,r24
  36 002a 2B85      		ldd r18,Y+11
  37 002c 3C85      		ldd r19,Y+12
  38 002e 6217      		cp r22,r18
  39 0030 7307      		cpc r23,r19
  40 0032 01F4      		brne .L3
  41 0034 8D85      		ldd r24,Y+13
  42 0036 9E85      		ldd r25,Y+14
  43 0038 9783      		std Z+7,r25
  44 003a 8683      		std Z+6,r24
  45               	.L3:
  46 003c 1A96      		adiw r26,10
  47 003e 0D90      		ld __tmp_reg__,X+
  48 0040 BC91      		ld r27,X
  49 0042 A02D      		mov r26,__tmp_reg__
  50 0044 8681      		ldd r24,Z+6
  51 0046 9781      		ldd r25,Z+7
  52 0048 1696      		adiw r26,6
  53 004a 2D91      		ld r18,X+
  54 004c 3C91      		ld r19,X
  55 004e 1797      		sbiw r26,6+1
  56 0050 821B      		sub r24,r18
  57 0052 930B      		sbc r25,r19
GAS LISTING /tmp/ccsHyliE.s 			page 2


  58 0054 9595      		asr r25
  59 0056 8795      		ror r24
  60 0058 9595      		asr r25
  61 005a 8795      		ror r24
  62 005c 0197      		sbiw r24,1
  63 005e 00C0      		rjmp .L2
  64               	.L5:
  65 0060 8FEF      		ldi r24,lo8(-1)
  66 0062 9FEF      		ldi r25,lo8(-1)
  67               	.L2:
  68               	/* epilogue start */
  69 0064 DF91      		pop r29
  70 0066 CF91      		pop r28
  71 0068 0895      		ret
  72               		.size	currentpc, .-currentpc
  73               		.section	.text.currentline,"ax",@progbits
  74               		.type	currentline, @function
  75               	currentline:
  76 0000 CF93      		push r28
  77 0002 DF93      		push r29
  78               	/* prologue: function */
  79               	/* frame size = 0 */
  80               	/* stack size = 2 */
  81               	.L__stack_usage = 2
  82 0004 EB01      		movw r28,r22
  83 0006 0E94 0000 		call currentpc
  84 000a 97FD      		sbrc r25,7
  85 000c 00C0      		rjmp .L11
  86 000e EA81      		ldd r30,Y+2
  87 0010 FB81      		ldd r31,Y+3
  88 0012 2481      		ldd r18,Z+4
  89 0014 3581      		ldd r19,Z+5
  90 0016 2830      		cpi r18,8
  91 0018 3105      		cpc r19,__zero_reg__
  92 001a 01F4      		brne .L12
  93 001c A081      		ld r26,Z
  94 001e B181      		ldd r27,Z+1
  95 0020 00C0      		rjmp .L9
  96               	.L12:
  97 0022 A0E0      		ldi r26,0
  98 0024 B0E0      		ldi r27,0
  99               	.L9:
 100 0026 1A96      		adiw r26,10
 101 0028 0D90      		ld __tmp_reg__,X+
 102 002a BC91      		ld r27,X
 103 002c A02D      		mov r26,__tmp_reg__
 104 002e 1A96      		adiw r26,10
 105 0030 4D91      		ld r20,X+
 106 0032 5C91      		ld r21,X
 107 0034 1B97      		sbiw r26,10+1
 108 0036 452B      		or r20,r21
 109 0038 01F0      		breq .L13
 110 003a 2830      		cpi r18,8
 111 003c 3105      		cpc r19,__zero_reg__
 112 003e 01F4      		brne .L14
 113 0040 0190      		ld __tmp_reg__,Z+
 114 0042 F081      		ld r31,Z
GAS LISTING /tmp/ccsHyliE.s 			page 3


 115 0044 E02D      		mov r30,__tmp_reg__
 116 0046 00C0      		rjmp .L10
 117               	.L14:
 118 0048 E0E0      		ldi r30,0
 119 004a F0E0      		ldi r31,0
 120               	.L10:
 121 004c 0284      		ldd __tmp_reg__,Z+10
 122 004e F385      		ldd r31,Z+11
 123 0050 E02D      		mov r30,__tmp_reg__
 124 0052 880F      		lsl r24
 125 0054 991F      		rol r25
 126 0056 0284      		ldd __tmp_reg__,Z+10
 127 0058 F385      		ldd r31,Z+11
 128 005a E02D      		mov r30,__tmp_reg__
 129 005c E80F      		add r30,r24
 130 005e F91F      		adc r31,r25
 131 0060 8081      		ld r24,Z
 132 0062 9181      		ldd r25,Z+1
 133 0064 00C0      		rjmp .L8
 134               	.L11:
 135 0066 8FEF      		ldi r24,lo8(-1)
 136 0068 9FEF      		ldi r25,lo8(-1)
 137 006a 00C0      		rjmp .L8
 138               	.L13:
 139 006c 80E0      		ldi r24,0
 140 006e 90E0      		ldi r25,0
 141               	.L8:
 142               	/* epilogue start */
 143 0070 DF91      		pop r29
 144 0072 CF91      		pop r28
 145 0074 0895      		ret
 146               		.size	currentline, .-currentline
 147               		.section	.text.checkArgMode,"ax",@progbits
 148               		.type	checkArgMode, @function
 149               	checkArgMode:
 150               	/* prologue: function */
 151               	/* frame size = 0 */
 152               	/* stack size = 0 */
 153               	.L__stack_usage = 0
 154 0000 FC01      		movw r30,r24
 155 0002 4230      		cpi r20,2
 156 0004 5105      		cpc r21,__zero_reg__
 157 0006 01F0      		breq .L17
 158 0008 4330      		cpi r20,3
 159 000a 5105      		cpc r21,__zero_reg__
 160 000c 01F0      		breq .L18
 161 000e 452B      		or r20,r21
 162 0010 01F4      		brne .L30
 163 0012 31E0      		ldi r19,lo8(1)
 164 0014 20E0      		ldi r18,0
 165 0016 672B      		or r22,r23
 166 0018 01F0      		breq .L21
 167 001a 00C0      		rjmp .L33
 168               	.L17:
 169 001c 87A1      		ldd r24,Z+39
 170 001e 90E0      		ldi r25,0
 171 0020 31E0      		ldi r19,lo8(1)
GAS LISTING /tmp/ccsHyliE.s 			page 4


 172 0022 20E0      		ldi r18,0
 173 0024 6817      		cp r22,r24
 174 0026 7907      		cpc r23,r25
 175 0028 04F0      		brlt .L21
 176               	.L33:
 177 002a 30E0      		ldi r19,0
 178               	.L21:
 179 002c 832F      		mov r24,r19
 180 002e 922F      		mov r25,r18
 181 0030 0895      		ret
 182               	.L18:
 183 0032 70FF      		sbrs r23,0
 184 0034 00C0      		rjmp .L22
 185 0036 7E7F      		andi r23,254
 186 0038 91E0      		ldi r25,lo8(1)
 187 003a 2489      		ldd r18,Z+20
 188 003c 3589      		ldd r19,Z+21
 189 003e 00C0      		rjmp .L32
 190               	.L22:
 191 0040 27A1      		ldd r18,Z+39
 192 0042 30E0      		ldi r19,0
 193 0044 91E0      		ldi r25,lo8(1)
 194               	.L32:
 195 0046 6217      		cp r22,r18
 196 0048 7307      		cpc r23,r19
 197 004a 04F4      		brge .L24
 198 004c 90E0      		ldi r25,0
 199               	.L24:
 200 004e 81E0      		ldi r24,lo8(1)
 201 0050 8927      		eor r24,r25
 202 0052 90E0      		ldi r25,0
 203 0054 0895      		ret
 204               	.L30:
 205 0056 81E0      		ldi r24,lo8(1)
 206 0058 90E0      		ldi r25,0
 207 005a 0895      		ret
 208               		.size	checkArgMode, .-checkArgMode
 209               		.section	.text.getluaproto.isra.0,"ax",@progbits
 210               		.type	getluaproto.isra.0, @function
 211               	getluaproto.isra.0:
 212               	/* prologue: function */
 213               	/* frame size = 0 */
 214               	/* stack size = 0 */
 215               	.L__stack_usage = 0
 216 0000 DC01      		movw r26,r24
 217 0002 1496      		adiw r26,4
 218 0004 2D91      		ld r18,X+
 219 0006 3C91      		ld r19,X
 220 0008 1597      		sbiw r26,4+1
 221 000a 2830      		cpi r18,8
 222 000c 3105      		cpc r19,__zero_reg__
 223 000e 01F4      		brne .L37
 224 0010 ED91      		ld r30,X+
 225 0012 FC91      		ld r31,X
 226 0014 8481      		ldd r24,Z+4
 227 0016 8111      		cpse r24,__zero_reg__
 228 0018 00C0      		rjmp .L37
GAS LISTING /tmp/ccsHyliE.s 			page 5


 229 001a 8285      		ldd r24,Z+10
 230 001c 9385      		ldd r25,Z+11
 231 001e 0895      		ret
 232               	.L37:
 233 0020 80E0      		ldi r24,0
 234 0022 90E0      		ldi r25,0
 235 0024 0895      		ret
 236               		.size	getluaproto.isra.0, .-getluaproto.isra.0
 237               		.section	.rodata.str1.1,"aMS",@progbits,1
 238               	.LC0:
 239 0000 282A 7465 		.string	"(*temporary)"
 239      6D70 6F72 
 239      6172 7929 
 239      00
 240               		.section	.text.findlocal,"ax",@progbits
 241               		.type	findlocal, @function
 242               	findlocal:
 243 0000 CF92      		push r12
 244 0002 DF92      		push r13
 245 0004 EF92      		push r14
 246 0006 FF92      		push r15
 247 0008 0F93      		push r16
 248 000a 1F93      		push r17
 249 000c CF93      		push r28
 250 000e DF93      		push r29
 251               	/* prologue: function */
 252               	/* frame size = 0 */
 253               	/* stack size = 8 */
 254               	.L__stack_usage = 8
 255 0010 7C01      		movw r14,r24
 256 0012 EB01      		movw r28,r22
 257 0014 8A01      		movw r16,r20
 258 0016 8A81      		ldd r24,Y+2
 259 0018 9B81      		ldd r25,Y+3
 260 001a 0E94 0000 		call getluaproto.isra.0
 261 001e 6C01      		movw r12,r24
 262 0020 892B      		or r24,r25
 263 0022 01F4      		brne .L39
 264               	.L43:
 265 0024 F701      		movw r30,r14
 266 0026 8385      		ldd r24,Z+11
 267 0028 9485      		ldd r25,Z+12
 268 002a C817      		cp r28,r24
 269 002c D907      		cpc r29,r25
 270 002e 01F4      		brne .L48
 271 0030 F701      		movw r30,r14
 272 0032 8581      		ldd r24,Z+5
 273 0034 9681      		ldd r25,Z+6
 274 0036 00C0      		rjmp .L44
 275               	.L39:
 276 0038 BE01      		movw r22,r28
 277 003a C701      		movw r24,r14
 278 003c 0E94 0000 		call currentpc
 279 0040 AC01      		movw r20,r24
 280 0042 B801      		movw r22,r16
 281 0044 C601      		movw r24,r12
 282 0046 0E94 0000 		call luaF_getlocalname
GAS LISTING /tmp/ccsHyliE.s 			page 6


 283 004a 0097      		sbiw r24,0
 284 004c 01F4      		brne .L42
 285 004e 00C0      		rjmp .L43
 286               	.L48:
 287 0050 8E85      		ldd r24,Y+14
 288 0052 9F85      		ldd r25,Y+15
 289               	.L44:
 290 0054 2881      		ld r18,Y
 291 0056 3981      		ldd r19,Y+1
 292 0058 821B      		sub r24,r18
 293 005a 930B      		sbc r25,r19
 294 005c 9595      		asr r25
 295 005e 8795      		ror r24
 296 0060 4BEA      		ldi r20,lo8(-85)
 297 0062 5AEA      		ldi r21,lo8(-86)
 298 0064 849F      		mul r24,r20
 299 0066 9001      		movw r18,r0
 300 0068 859F      		mul r24,r21
 301 006a 300D      		add r19,r0
 302 006c 949F      		mul r25,r20
 303 006e 300D      		add r19,r0
 304 0070 1124      		clr r1
 305 0072 2017      		cp r18,r16
 306 0074 3107      		cpc r19,r17
 307 0076 04F0      		brlt .L47
 308 0078 1016      		cp __zero_reg__,r16
 309 007a 1106      		cpc __zero_reg__,r17
 310 007c 04F4      		brge .L47
 311 007e 80E0      		ldi r24,lo8(.LC0)
 312 0080 90E0      		ldi r25,hi8(.LC0)
 313 0082 00C0      		rjmp .L42
 314               	.L47:
 315 0084 80E0      		ldi r24,0
 316 0086 90E0      		ldi r25,0
 317               	.L42:
 318               	/* epilogue start */
 319 0088 DF91      		pop r29
 320 008a CF91      		pop r28
 321 008c 1F91      		pop r17
 322 008e 0F91      		pop r16
 323 0090 FF90      		pop r15
 324 0092 EF90      		pop r14
 325 0094 DF90      		pop r13
 326 0096 CF90      		pop r12
 327 0098 0895      		ret
 328               		.size	findlocal, .-findlocal
 329               		.section	.text.lua_sethook,"ax",@progbits
 330               	.global	lua_sethook
 331               		.type	lua_sethook, @function
 332               	lua_sethook:
 333               	/* prologue: function */
 334               	/* frame size = 0 */
 335               	/* stack size = 0 */
 336               	.L__stack_usage = 0
 337 0000 FC01      		movw r30,r24
 338 0002 6115      		cp r22,__zero_reg__
 339 0004 7105      		cpc r23,__zero_reg__
GAS LISTING /tmp/ccsHyliE.s 			page 7


 340 0006 01F0      		breq .L51
 341 0008 4115      		cp r20,__zero_reg__
 342 000a 5105      		cpc r21,__zero_reg__
 343 000c 01F4      		brne .L50
 344 000e 60E0      		ldi r22,0
 345 0010 70E0      		ldi r23,0
 346 0012 00C0      		rjmp .L50
 347               	.L51:
 348 0014 40E0      		ldi r20,0
 349 0016 50E0      		ldi r21,0
 350               	.L50:
 351 0018 76A3      		std Z+38,r23
 352 001a 65A3      		std Z+37,r22
 353 001c 32A3      		std Z+34,r19
 354 001e 21A3      		std Z+33,r18
 355 0020 34A3      		std Z+36,r19
 356 0022 23A3      		std Z+35,r18
 357 0024 478F      		std Z+31,r20
 358 0026 81E0      		ldi r24,lo8(1)
 359 0028 90E0      		ldi r25,0
 360 002a 0895      		ret
 361               		.size	lua_sethook, .-lua_sethook
 362               		.section	.text.lua_gethook,"ax",@progbits
 363               	.global	lua_gethook
 364               		.type	lua_gethook, @function
 365               	lua_gethook:
 366               	/* prologue: function */
 367               	/* frame size = 0 */
 368               	/* stack size = 0 */
 369               	.L__stack_usage = 0
 370 0000 FC01      		movw r30,r24
 371 0002 85A1      		ldd r24,Z+37
 372 0004 96A1      		ldd r25,Z+38
 373 0006 0895      		ret
 374               		.size	lua_gethook, .-lua_gethook
 375               		.section	.text.lua_gethookmask,"ax",@progbits
 376               	.global	lua_gethookmask
 377               		.type	lua_gethookmask, @function
 378               	lua_gethookmask:
 379               	/* prologue: function */
 380               	/* frame size = 0 */
 381               	/* stack size = 0 */
 382               	.L__stack_usage = 0
 383 0000 FC01      		movw r30,r24
 384 0002 878D      		ldd r24,Z+31
 385 0004 90E0      		ldi r25,0
 386 0006 0895      		ret
 387               		.size	lua_gethookmask, .-lua_gethookmask
 388               		.section	.text.lua_gethookcount,"ax",@progbits
 389               	.global	lua_gethookcount
 390               		.type	lua_gethookcount, @function
 391               	lua_gethookcount:
 392               	/* prologue: function */
 393               	/* frame size = 0 */
 394               	/* stack size = 0 */
 395               	.L__stack_usage = 0
 396 0000 FC01      		movw r30,r24
GAS LISTING /tmp/ccsHyliE.s 			page 8


 397 0002 81A1      		ldd r24,Z+33
 398 0004 92A1      		ldd r25,Z+34
 399 0006 0895      		ret
 400               		.size	lua_gethookcount, .-lua_gethookcount
 401               		.section	.text.lua_getstack,"ax",@progbits
 402               	.global	lua_getstack
 403               		.type	lua_getstack, @function
 404               	lua_getstack:
 405 0000 CF93      		push r28
 406 0002 DF93      		push r29
 407               	/* prologue: function */
 408               	/* frame size = 0 */
 409               	/* stack size = 2 */
 410               	.L__stack_usage = 2
 411 0004 EC01      		movw r28,r24
 412 0006 EB85      		ldd r30,Y+11
 413 0008 FC85      		ldd r31,Y+12
 414 000a 3A96      		adiw r30,10
 415               	.L56:
 416 000c 9F01      		movw r18,r30
 417 000e 2A50      		subi r18,10
 418 0010 3109      		sbc r19,__zero_reg__
 419 0012 1616      		cp __zero_reg__,r22
 420 0014 1706      		cpc __zero_reg__,r23
 421 0016 04F4      		brge .L59
 422 0018 8D89      		ldd r24,Y+21
 423 001a 9E89      		ldd r25,Y+22
 424 001c 8217      		cp r24,r18
 425 001e 9307      		cpc r25,r19
 426 0020 00F4      		brsh .L64
 427 0022 6150      		subi r22,1
 428 0024 7109      		sbc r23,__zero_reg__
 429 0026 DF01      		movw r26,r30
 430 0028 1897      		sbiw r26,8
 431 002a 0D90      		ld __tmp_reg__,X+
 432 002c BC91      		ld r27,X
 433 002e A02D      		mov r26,__tmp_reg__
 434 0030 1496      		adiw r26,4
 435 0032 2D91      		ld r18,X+
 436 0034 3C91      		ld r19,X
 437 0036 1597      		sbiw r26,4+1
 438 0038 2330      		cpi r18,3
 439 003a 3105      		cpc r19,__zero_reg__
 440 003c 01F0      		breq .L57
 441 003e 2830      		cpi r18,8
 442 0040 3105      		cpc r19,__zero_reg__
 443 0042 01F4      		brne .L63
 444 0044 0D90      		ld __tmp_reg__,X+
 445 0046 BC91      		ld r27,X
 446 0048 A02D      		mov r26,__tmp_reg__
 447 004a 00C0      		rjmp .L58
 448               	.L63:
 449 004c A0E0      		ldi r26,0
 450 004e B0E0      		ldi r27,0
 451               	.L58:
 452 0050 1496      		adiw r26,4
 453 0052 8C91      		ld r24,X
GAS LISTING /tmp/ccsHyliE.s 			page 9


 454 0054 8111      		cpse r24,__zero_reg__
 455 0056 00C0      		rjmp .L57
 456 0058 8081      		ld r24,Z
 457 005a 9181      		ldd r25,Z+1
 458 005c 681B      		sub r22,r24
 459 005e 790B      		sbc r23,r25
 460               	.L57:
 461 0060 3C97      		sbiw r30,12
 462 0062 00C0      		rjmp .L56
 463               	.L59:
 464 0064 672B      		or r22,r23
 465 0066 01F4      		brne .L62
 466 0068 8D89      		ldd r24,Y+21
 467 006a 9E89      		ldd r25,Y+22
 468 006c 8217      		cp r24,r18
 469 006e 9307      		cpc r25,r19
 470 0070 00F4      		brsh .L64
 471 0072 FA01      		movw r30,r20
 472 0074 E25B      		subi r30,-78
 473 0076 FF4F      		sbci r31,-1
 474 0078 281B      		sub r18,r24
 475 007a 390B      		sbc r19,r25
 476 007c 3595      		asr r19
 477 007e 2795      		ror r18
 478 0080 3595      		asr r19
 479 0082 2795      		ror r18
 480 0084 6BEA      		ldi r22,lo8(-85)
 481 0086 7AEA      		ldi r23,lo8(-86)
 482 0088 269F      		mul r18,r22
 483 008a C001      		movw r24,r0
 484 008c 279F      		mul r18,r23
 485 008e 900D      		add r25,r0
 486 0090 369F      		mul r19,r22
 487 0092 900D      		add r25,r0
 488 0094 1124      		clr r1
 489 0096 9183      		std Z+1,r25
 490 0098 8083      		st Z,r24
 491 009a 00C0      		rjmp .L69
 492               	.L64:
 493 009c 80E0      		ldi r24,0
 494 009e 90E0      		ldi r25,0
 495 00a0 00C0      		rjmp .L68
 496               	.L62:
 497 00a2 FA01      		movw r30,r20
 498 00a4 E25B      		subi r30,-78
 499 00a6 FF4F      		sbci r31,-1
 500 00a8 1182      		std Z+1,__zero_reg__
 501 00aa 1082      		st Z,__zero_reg__
 502               	.L69:
 503 00ac 81E0      		ldi r24,lo8(1)
 504 00ae 90E0      		ldi r25,0
 505               	.L68:
 506               	/* epilogue start */
 507 00b0 DF91      		pop r29
 508 00b2 CF91      		pop r28
 509 00b4 0895      		ret
 510               		.size	lua_getstack, .-lua_getstack
GAS LISTING /tmp/ccsHyliE.s 			page 10


 511               		.section	.text.lua_getlocal,"ax",@progbits
 512               	.global	lua_getlocal
 513               		.type	lua_getlocal, @function
 514               	lua_getlocal:
 515 0000 CF92      		push r12
 516 0002 DF92      		push r13
 517 0004 EF92      		push r14
 518 0006 FF92      		push r15
 519 0008 0F93      		push r16
 520 000a 1F93      		push r17
 521 000c CF93      		push r28
 522 000e DF93      		push r29
 523               	/* prologue: function */
 524               	/* frame size = 0 */
 525               	/* stack size = 8 */
 526               	.L__stack_usage = 8
 527 0010 8C01      		movw r16,r24
 528 0012 7A01      		movw r14,r20
 529 0014 FB01      		movw r30,r22
 530 0016 E25B      		subi r30,-78
 531 0018 FF4F      		sbci r31,-1
 532 001a 2081      		ld r18,Z
 533 001c 3181      		ldd r19,Z+1
 534 001e 4CE0      		ldi r20,lo8(12)
 535 0020 429F      		mul r20,r18
 536 0022 C001      		movw r24,r0
 537 0024 439F      		mul r20,r19
 538 0026 900D      		add r25,r0
 539 0028 1124      		clr __zero_reg__
 540 002a F801      		movw r30,r16
 541 002c C589      		ldd r28,Z+21
 542 002e D689      		ldd r29,Z+22
 543 0030 C80F      		add r28,r24
 544 0032 D91F      		adc r29,r25
 545 0034 A701      		movw r20,r14
 546 0036 BE01      		movw r22,r28
 547 0038 C801      		movw r24,r16
 548 003a 0E94 0000 		call findlocal
 549 003e 6C01      		movw r12,r24
 550 0040 892B      		or r24,r25
 551 0042 01F0      		breq .L71
 552 0044 86E0      		ldi r24,lo8(6)
 553 0046 8E9D      		mul r24,r14
 554 0048 B001      		movw r22,r0
 555 004a 8F9D      		mul r24,r15
 556 004c 700D      		add r23,r0
 557 004e 1124      		clr __zero_reg__
 558 0050 6650      		subi r22,6
 559 0052 7109      		sbc r23,__zero_reg__
 560 0054 8881      		ld r24,Y
 561 0056 9981      		ldd r25,Y+1
 562 0058 680F      		add r22,r24
 563 005a 791F      		adc r23,r25
 564 005c C801      		movw r24,r16
 565 005e 0E94 0000 		call luaA_pushobject
 566               	.L71:
 567 0062 C601      		movw r24,r12
GAS LISTING /tmp/ccsHyliE.s 			page 11


 568               	/* epilogue start */
 569 0064 DF91      		pop r29
 570 0066 CF91      		pop r28
 571 0068 1F91      		pop r17
 572 006a 0F91      		pop r16
 573 006c FF90      		pop r15
 574 006e EF90      		pop r14
 575 0070 DF90      		pop r13
 576 0072 CF90      		pop r12
 577 0074 0895      		ret
 578               		.size	lua_getlocal, .-lua_getlocal
 579               		.section	.text.lua_setlocal,"ax",@progbits
 580               	.global	lua_setlocal
 581               		.type	lua_setlocal, @function
 582               	lua_setlocal:
 583 0000 EF92      		push r14
 584 0002 FF92      		push r15
 585 0004 0F93      		push r16
 586 0006 1F93      		push r17
 587 0008 CF93      		push r28
 588 000a DF93      		push r29
 589               	/* prologue: function */
 590               	/* frame size = 0 */
 591               	/* stack size = 6 */
 592               	.L__stack_usage = 6
 593 000c EC01      		movw r28,r24
 594 000e 7A01      		movw r14,r20
 595 0010 FB01      		movw r30,r22
 596 0012 E25B      		subi r30,-78
 597 0014 FF4F      		sbci r31,-1
 598 0016 2081      		ld r18,Z
 599 0018 3181      		ldd r19,Z+1
 600 001a 4CE0      		ldi r20,lo8(12)
 601 001c 429F      		mul r20,r18
 602 001e C001      		movw r24,r0
 603 0020 439F      		mul r20,r19
 604 0022 900D      		add r25,r0
 605 0024 1124      		clr __zero_reg__
 606 0026 0D89      		ldd r16,Y+21
 607 0028 1E89      		ldd r17,Y+22
 608 002a 080F      		add r16,r24
 609 002c 191F      		adc r17,r25
 610 002e A701      		movw r20,r14
 611 0030 B801      		movw r22,r16
 612 0032 CE01      		movw r24,r28
 613 0034 0E94 0000 		call findlocal
 614 0038 2D81      		ldd r18,Y+5
 615 003a 3E81      		ldd r19,Y+6
 616 003c 0097      		sbiw r24,0
 617 003e 01F0      		breq .L76
 618 0040 46E0      		ldi r20,lo8(6)
 619 0042 4E9D      		mul r20,r14
 620 0044 F001      		movw r30,r0
 621 0046 4F9D      		mul r20,r15
 622 0048 F00D      		add r31,r0
 623 004a 1124      		clr __zero_reg__
 624 004c 3697      		sbiw r30,6
GAS LISTING /tmp/ccsHyliE.s 			page 12


 625 004e D801      		movw r26,r16
 626 0050 4D91      		ld r20,X+
 627 0052 5C91      		ld r21,X
 628 0054 E40F      		add r30,r20
 629 0056 F51F      		adc r31,r21
 630 0058 D901      		movw r26,r18
 631 005a 1697      		sbiw r26,6
 632 005c 4D91      		ld r20,X+
 633 005e 5D91      		ld r21,X+
 634 0060 6D91      		ld r22,X+
 635 0062 7C91      		ld r23,X
 636 0064 1397      		sbiw r26,3
 637 0066 4083      		st Z,r20
 638 0068 5183      		std Z+1,r21
 639 006a 6283      		std Z+2,r22
 640 006c 7383      		std Z+3,r23
 641 006e 1496      		adiw r26,4
 642 0070 4D91      		ld r20,X+
 643 0072 5C91      		ld r21,X
 644 0074 1597      		sbiw r26,4+1
 645 0076 5583      		std Z+5,r21
 646 0078 4483      		std Z+4,r20
 647               	.L76:
 648 007a 2650      		subi r18,6
 649 007c 3109      		sbc r19,__zero_reg__
 650 007e 3E83      		std Y+6,r19
 651 0080 2D83      		std Y+5,r18
 652               	/* epilogue start */
 653 0082 DF91      		pop r29
 654 0084 CF91      		pop r28
 655 0086 1F91      		pop r17
 656 0088 0F91      		pop r16
 657 008a FF90      		pop r15
 658 008c EF90      		pop r14
 659 008e 0895      		ret
 660               		.size	lua_setlocal, .-lua_setlocal
 661               		.section	.text.luaG_checkopenop,"ax",@progbits
 662               	.global	luaG_checkopenop
 663               		.hidden	luaG_checkopenop
 664               		.type	luaG_checkopenop, @function
 665               	luaG_checkopenop:
 666               	/* prologue: function */
 667               	/* frame size = 0 */
 668               	/* stack size = 0 */
 669               	.L__stack_usage = 0
 670 0000 9B01      		movw r18,r22
 671 0002 2F73      		andi r18,63
 672 0004 3327      		clr r19
 673 0006 2C31      		cpi r18,28
 674 0008 3105      		cpc r19,__zero_reg__
 675 000a 00F0      		brlo .L84
 676 000c 2F31      		cpi r18,31
 677 000e 3105      		cpc r19,__zero_reg__
 678 0010 00F0      		brlo .L82
 679 0012 2232      		cpi r18,34
 680 0014 3105      		cpc r19,__zero_reg__
 681 0016 01F4      		brne .L84
GAS LISTING /tmp/ccsHyliE.s 			page 13


 682               	.L82:
 683 0018 AB01      		movw r20,r22
 684 001a BC01      		movw r22,r24
 685 001c 87E1      		ldi r24,23
 686               		1:
 687 001e 7695      		lsr r23
 688 0020 6795      		ror r22
 689 0022 5795      		ror r21
 690 0024 4795      		ror r20
 691 0026 8A95      		dec r24
 692 0028 01F4      		brne 1b
 693 002a 81E0      		ldi r24,lo8(1)
 694 002c 90E0      		ldi r25,0
 695 002e 452B      		or r20,r21
 696 0030 01F0      		breq .L81
 697 0032 80E0      		ldi r24,0
 698 0034 0895      		ret
 699               	.L84:
 700 0036 80E0      		ldi r24,0
 701 0038 90E0      		ldi r25,0
 702               	.L81:
 703 003a 0895      		ret
 704               		.size	luaG_checkopenop, .-luaG_checkopenop
 705               		.section	.text.symbexec,"ax",@progbits
 706               		.type	symbexec, @function
 707               	symbexec:
 708 0000 2F92      		push r2
 709 0002 3F92      		push r3
 710 0004 4F92      		push r4
 711 0006 5F92      		push r5
 712 0008 6F92      		push r6
 713 000a 7F92      		push r7
 714 000c 8F92      		push r8
 715 000e 9F92      		push r9
 716 0010 AF92      		push r10
 717 0012 BF92      		push r11
 718 0014 CF92      		push r12
 719 0016 DF92      		push r13
 720 0018 EF92      		push r14
 721 001a FF92      		push r15
 722 001c 0F93      		push r16
 723 001e 1F93      		push r17
 724 0020 CF93      		push r28
 725 0022 DF93      		push r29
 726 0024 CDB7      		in r28,__SP_L__
 727 0026 DEB7      		in r29,__SP_H__
 728 0028 6197      		sbiw r28,17
 729 002a 0FB6      		in __tmp_reg__,__SREG__
 730 002c F894      		cli
 731 002e DEBF      		out __SP_H__,r29
 732 0030 0FBE      		out __SREG__,__tmp_reg__
 733 0032 CDBF      		out __SP_L__,r28
 734               	/* prologue: function */
 735               	/* frame size = 17 */
 736               	/* stack size = 35 */
 737               	.L__stack_usage = 35
 738 0034 5C01      		movw r10,r24
GAS LISTING /tmp/ccsHyliE.s 			page 14


 739 0036 7D87      		std Y+13,r23
 740 0038 6C87      		std Y+12,r22
 741 003a 2A01      		movw r4,r20
 742 003c DC01      		movw r26,r24
 743 003e 9796      		adiw r26,39
 744 0040 2C91      		ld r18,X
 745 0042 9797      		sbiw r26,39
 746 0044 2B3F      		cpi r18,lo8(-5)
 747 0046 00F0      		brlo .+2
 748 0048 00C0      		rjmp .L167
 749 004a 9696      		adiw r26,38
 750 004c 8C91      		ld r24,X
 751 004e 9697      		sbiw r26,38
 752 0050 982F      		mov r25,r24
 753 0052 9170      		andi r25,lo8(1)
 754 0054 822E      		mov r8,r18
 755 0056 912C      		mov r9,__zero_reg__
 756 0058 9596      		adiw r26,37
 757 005a 4C91      		ld r20,X
 758 005c 292F      		mov r18,r25
 759 005e 30E0      		ldi r19,0
 760 0060 240F      		add r18,r20
 761 0062 311D      		adc r19,__zero_reg__
 762 0064 8216      		cp r8,r18
 763 0066 9306      		cpc r9,r19
 764 0068 04F4      		brge .+2
 765 006a 00C0      		rjmp .L167
 766 006c 282F      		mov r18,r24
 767 006e 2470      		andi r18,lo8(4)
 768 0070 2E87      		std Y+14,r18
 769 0072 82FF      		sbrs r24,2
 770 0074 00C0      		rjmp .L90
 771 0076 9923      		tst r25
 772 0078 01F4      		brne .+2
 773 007a 00C0      		rjmp .L167
 774               	.L90:
 775 007c D501      		movw r26,r10
 776 007e 9496      		adiw r26,36
 777 0080 9C91      		ld r25,X
 778 0082 9497      		sbiw r26,36
 779 0084 292F      		mov r18,r25
 780 0086 30E0      		ldi r19,0
 781 0088 3B87      		std Y+11,r19
 782 008a 2A87      		std Y+10,r18
 783 008c 5296      		adiw r26,18
 784 008e 2D91      		ld r18,X+
 785 0090 3C91      		ld r19,X
 786 0092 5397      		sbiw r26,18+1
 787 0094 4A85      		ldd r20,Y+10
 788 0096 5B85      		ldd r21,Y+11
 789 0098 4217      		cp r20,r18
 790 009a 5307      		cpc r21,r19
 791 009c 04F4      		brge .+2
 792 009e 00C0      		rjmp .L167
 793 00a0 5696      		adiw r26,22
 794 00a2 6D90      		ld r6,X+
 795 00a4 7C90      		ld r7,X
GAS LISTING /tmp/ccsHyliE.s 			page 15


 796 00a6 5797      		sbiw r26,22+1
 797 00a8 5896      		adiw r26,24
 798 00aa 2D91      		ld r18,X+
 799 00ac 3C91      		ld r19,X
 800 00ae 5997      		sbiw r26,24+1
 801 00b0 6216      		cp r6,r18
 802 00b2 7306      		cpc r7,r19
 803 00b4 01F0      		breq .L91
 804 00b6 232B      		or r18,r19
 805 00b8 01F0      		breq .+2
 806 00ba 00C0      		rjmp .L167
 807               	.L91:
 808 00bc 1614      		cp __zero_reg__,r6
 809 00be 1704      		cpc __zero_reg__,r7
 810 00c0 04F0      		brlt .+2
 811 00c2 00C0      		rjmp .L167
 812 00c4 D501      		movw r26,r10
 813 00c6 1696      		adiw r26,6
 814 00c8 2D90      		ld r2,X+
 815 00ca 3C90      		ld r3,X
 816 00cc 1797      		sbiw r26,6+1
 817 00ce F301      		movw r30,r6
 818 00d0 E150      		subi r30,1
 819 00d2 F04C      		sbci r31,-64
 820 00d4 EE0F      		lsl r30
 821 00d6 FF1F      		rol r31
 822 00d8 EE0F      		lsl r30
 823 00da FF1F      		rol r31
 824 00dc E20D      		add r30,r2
 825 00de F31D      		adc r31,r3
 826 00e0 2081      		ld r18,Z
 827 00e2 3181      		ldd r19,Z+1
 828 00e4 2F73      		andi r18,63
 829 00e6 3327      		clr r19
 830 00e8 2E31      		cpi r18,30
 831 00ea 3105      		cpc r19,__zero_reg__
 832 00ec 01F0      		breq .+2
 833 00ee 00C0      		rjmp .L167
 834 00f0 9301      		movw r18,r6
 835 00f2 2150      		subi r18,1
 836 00f4 3109      		sbc r19,__zero_reg__
 837 00f6 3987      		std Y+9,r19
 838 00f8 2887      		std Y+8,r18
 839 00fa 3B83      		std Y+3,r19
 840 00fc 2A83      		std Y+2,r18
 841 00fe C12C      		mov r12,__zero_reg__
 842 0100 D12C      		mov r13,__zero_reg__
 843 0102 8270      		andi r24,lo8(2)
 844 0104 8F87      		std Y+15,r24
 845               	.L92:
 846 0106 2C85      		ldd r18,Y+12
 847 0108 3D85      		ldd r19,Y+13
 848 010a C216      		cp r12,r18
 849 010c D306      		cpc r13,r19
 850 010e 04F0      		brlt .+2
 851 0110 00C0      		rjmp .L190
 852 0112 9601      		movw r18,r12
GAS LISTING /tmp/ccsHyliE.s 			page 16


 853 0114 220F      		lsl r18
 854 0116 331F      		rol r19
 855 0118 220F      		lsl r18
 856 011a 331F      		rol r19
 857 011c 3D83      		std Y+5,r19
 858 011e 2C83      		std Y+4,r18
 859 0120 F901      		movw r30,r18
 860 0122 E20D      		add r30,r2
 861 0124 F31D      		adc r31,r3
 862 0126 0081      		ld r16,Z
 863 0128 1181      		ldd r17,Z+1
 864 012a 2281      		ldd r18,Z+2
 865 012c 3381      		ldd r19,Z+3
 866 012e A801      		movw r20,r16
 867 0130 4F73      		andi r20,63
 868 0132 5527      		clr r21
 869 0134 5F83      		std Y+7,r21
 870 0136 4E83      		std Y+6,r20
 871 0138 D901      		movw r26,r18
 872 013a C801      		movw r24,r16
 873 013c 66E0      		ldi r22,6
 874               		1:
 875 013e B695      		lsr r27
 876 0140 A795      		ror r26
 877 0142 9795      		ror r25
 878 0144 8795      		ror r24
 879 0146 6A95      		dec r22
 880 0148 01F4      		brne 1b
 881 014a 7C01      		movw r14,r24
 882 014c FF24      		clr r15
 883 014e 4632      		cpi r20,38
 884 0150 5105      		cpc r21,__zero_reg__
 885 0152 00F0      		brlo .+2
 886 0154 00C0      		rjmp .L167
 887 0156 E814      		cp r14,r8
 888 0158 F904      		cpc r15,r9
 889 015a 04F0      		brlt .+2
 890 015c 00C0      		rjmp .L167
 891 015e FA01      		movw r30,r20
 892 0160 E050      		subi r30,lo8(-(luaP_opmodes))
 893 0162 F040      		sbci r31,hi8(-(luaP_opmodes))
 894 0164 5081      		ld r21,Z
 895 0166 5983      		std Y+1,r21
 896 0168 852F      		mov r24,r21
 897 016a 8370      		andi r24,lo8(3)
 898 016c 8130      		cpi r24,lo8(1)
 899 016e 01F0      		breq .L94
 900 0170 00F0      		brlo .L95
 901 0172 8230      		cpi r24,lo8(2)
 902 0174 01F4      		brne .+2
 903 0176 00C0      		rjmp .L96
 904 0178 00C0      		rjmp .L191
 905               	.L95:
 906 017a C901      		movw r24,r18
 907 017c B801      		movw r22,r16
 908 017e A7E1      		ldi r26,23
 909               		1:
GAS LISTING /tmp/ccsHyliE.s 			page 17


 910 0180 9695      		lsr r25
 911 0182 8795      		ror r24
 912 0184 7795      		ror r23
 913 0186 6795      		ror r22
 914 0188 AA95      		dec r26
 915 018a 01F4      		brne 1b
 916 018c 798B      		std Y+17,r23
 917 018e 688B      		std Y+16,r22
 918 0190 BEE0      		ldi r27,14
 919               		1:
 920 0192 3695      		lsr r19
 921 0194 2795      		ror r18
 922 0196 1795      		ror r17
 923 0198 0795      		ror r16
 924 019a BA95      		dec r27
 925 019c 01F4      		brne 1b
 926 019e 1170      		andi r17,1
 927 01a0 4981      		ldd r20,Y+1
 928 01a2 4295      		swap r20
 929 01a4 4370      		andi r20,lo8(3)
 930 01a6 50E0      		ldi r21,0
 931 01a8 C501      		movw r24,r10
 932 01aa 0E94 0000 		call checkArgMode
 933 01ae 892B      		or r24,r25
 934 01b0 01F4      		brne .+2
 935 01b2 00C0      		rjmp .L167
 936 01b4 4981      		ldd r20,Y+1
 937 01b6 4695      		lsr r20
 938 01b8 4695      		lsr r20
 939 01ba 4370      		andi r20,lo8(3)
 940 01bc 50E0      		ldi r21,0
 941 01be B801      		movw r22,r16
 942 01c0 C501      		movw r24,r10
 943 01c2 0E94 0000 		call checkArgMode
 944 01c6 892B      		or r24,r25
 945 01c8 01F0      		breq .+2
 946 01ca 00C0      		rjmp .L93
 947 01cc 00C0      		rjmp .L167
 948               	.L94:
 949 01ce FEE0      		ldi r31,14
 950               		1:
 951 01d0 3695      		lsr r19
 952 01d2 2795      		ror r18
 953 01d4 1795      		ror r17
 954 01d6 0795      		ror r16
 955 01d8 FA95      		dec r31
 956 01da 01F4      		brne 1b
 957 01dc 198B      		std Y+17,r17
 958 01de 088B      		std Y+16,r16
 959 01e0 8981      		ldd r24,Y+1
 960 01e2 8295      		swap r24
 961 01e4 8370      		andi r24,lo8(3)
 962 01e6 8330      		cpi r24,lo8(3)
 963 01e8 01F0      		breq .+2
 964 01ea 00C0      		rjmp .L142
 965 01ec D501      		movw r26,r10
 966 01ee 5496      		adiw r26,20
GAS LISTING /tmp/ccsHyliE.s 			page 18


 967 01f0 8D91      		ld r24,X+
 968 01f2 9C91      		ld r25,X
 969 01f4 5597      		sbiw r26,20+1
 970 01f6 0817      		cp r16,r24
 971 01f8 1907      		cpc r17,r25
 972 01fa 04F4      		brge .+2
 973 01fc 00C0      		rjmp .L142
 974 01fe 00C0      		rjmp .L167
 975               	.L96:
 976 0200 EEE0      		ldi r30,14
 977               		1:
 978 0202 3695      		lsr r19
 979 0204 2795      		ror r18
 980 0206 1795      		ror r17
 981 0208 0795      		ror r16
 982 020a EA95      		dec r30
 983 020c 01F4      		brne 1b
 984 020e A801      		movw r20,r16
 985 0210 4D5F      		subi r20,-3
 986 0212 5F47      		sbci r21,127
 987 0214 598B      		std Y+17,r21
 988 0216 488B      		std Y+16,r20
 989 0218 8981      		ldd r24,Y+1
 990 021a 8295      		swap r24
 991 021c 8370      		andi r24,lo8(3)
 992 021e 8230      		cpi r24,lo8(2)
 993 0220 01F4      		brne .L142
 994 0222 C601      		movw r24,r12
 995 0224 0196      		adiw r24,1
 996 0226 840F      		add r24,r20
 997 0228 951F      		adc r25,r21
 998 022a 97FD      		sbrc r25,7
 999 022c 00C0      		rjmp .L167
 1000 022e 8615      		cp r24,r6
 1001 0230 9705      		cpc r25,r7
 1002 0232 04F0      		brlt .+2
 1003 0234 00C0      		rjmp .L167
 1004 0236 0097      		sbiw r24,0
 1005 0238 01F0      		breq .L142
 1006 023a FC01      		movw r30,r24
 1007 023c EE0F      		lsl r30
 1008 023e FF1F      		rol r31
 1009 0240 EE0F      		lsl r30
 1010 0242 FF1F      		rol r31
 1011 0244 E20D      		add r30,r2
 1012 0246 F31D      		adc r31,r3
 1013 0248 40E0      		ldi r20,0
 1014 024a 50E0      		ldi r21,0
 1015               	.L98:
 1016 024c 3291      		ld r19,-Z
 1017 024e 2291      		ld r18,-Z
 1018 0250 1291      		ld r17,-Z
 1019 0252 0291      		ld r16,-Z
 1020 0254 B801      		movw r22,r16
 1021 0256 6F73      		andi r22,63
 1022 0258 7727      		clr r23
 1023 025a 6232      		cpi r22,34
GAS LISTING /tmp/ccsHyliE.s 			page 19


 1024 025c 7105      		cpc r23,__zero_reg__
 1025 025e 01F4      		brne .L97
 1026 0260 6EE0      		ldi r22,14
 1027               		1:
 1028 0262 3695      		lsr r19
 1029 0264 2795      		ror r18
 1030 0266 1795      		ror r17
 1031 0268 0795      		ror r16
 1032 026a 6A95      		dec r22
 1033 026c 01F4      		brne 1b
 1034 026e 9801      		movw r18,r16
 1035 0270 3170      		andi r19,1
 1036 0272 232B      		or r18,r19
 1037 0274 01F4      		brne .L97
 1038 0276 4F5F      		subi r20,-1
 1039 0278 5F4F      		sbci r21,-1
 1040 027a 4817      		cp r20,r24
 1041 027c 5907      		cpc r21,r25
 1042 027e 04F0      		brlt .L98
 1043               	.L97:
 1044 0280 40FF      		sbrs r20,0
 1045 0282 00C0      		rjmp .L142
 1046 0284 00C0      		rjmp .L167
 1047               	.L191:
 1048 0286 00E0      		ldi r16,0
 1049 0288 10E0      		ldi r17,0
 1050 028a 198A      		std Y+17,__zero_reg__
 1051 028c 188A      		std Y+16,__zero_reg__
 1052 028e 00C0      		rjmp .L93
 1053               	.L142:
 1054 0290 00E0      		ldi r16,0
 1055 0292 10E0      		ldi r17,0
 1056               	.L93:
 1057 0294 2981      		ldd r18,Y+1
 1058 0296 26FF      		sbrs r18,6
 1059 0298 00C0      		rjmp .L99
 1060 029a E414      		cp r14,r4
 1061 029c F504      		cpc r15,r5
 1062 029e 01F4      		brne .L99
 1063 02a0 DB82      		std Y+3,r13
 1064 02a2 CA82      		std Y+2,r12
 1065               	.L99:
 1066 02a4 3981      		ldd r19,Y+1
 1067 02a6 37FF      		sbrs r19,7
 1068 02a8 00C0      		rjmp .L100
 1069 02aa C601      		movw r24,r12
 1070 02ac 0296      		adiw r24,2
 1071 02ae 8615      		cp r24,r6
 1072 02b0 9705      		cpc r25,r7
 1073 02b2 04F0      		brlt .+2
 1074 02b4 00C0      		rjmp .L167
 1075 02b6 EC81      		ldd r30,Y+4
 1076 02b8 FD81      		ldd r31,Y+5
 1077 02ba E20D      		add r30,r2
 1078 02bc F31D      		adc r31,r3
 1079 02be 8481      		ldd r24,Z+4
 1080 02c0 9581      		ldd r25,Z+5
GAS LISTING /tmp/ccsHyliE.s 			page 20


 1081 02c2 8F73      		andi r24,63
 1082 02c4 9927      		clr r25
 1083 02c6 4697      		sbiw r24,22
 1084 02c8 01F0      		breq .+2
 1085 02ca 00C0      		rjmp .L167
 1086               	.L100:
 1087 02cc EE81      		ldd r30,Y+6
 1088 02ce FF81      		ldd r31,Y+7
 1089 02d0 3297      		sbiw r30,2
 1090 02d2 E432      		cpi r30,36
 1091 02d4 F105      		cpc r31,__zero_reg__
 1092 02d6 00F0      		brlo .+2
 1093 02d8 00C0      		rjmp .L101
 1094 02da 8827      		clr r24
 1095 02dc E050      		subi r30,pm_lo8(-(.L103))
 1096 02de F040      		sbci r31,pm_hi8(-(.L103))
 1097 02e0 8040      		sbci r24,pm_hh8(-(.L103))
 1098 02e2 0C94 0000 		jmp __tablejump2__
 1099               		.section	.progmem.gcc_sw_table.symbexec,"a",@progbits
 1100               		.p2align	1
 1101               	.L103:
 1102 0000 0000      		.word gs(.L102)
 1103 0002 0000      		.word gs(.L104)
 1104 0004 0000      		.word gs(.L105)
 1105 0006 0000      		.word gs(.L106)
 1106 0008 0000      		.word gs(.L101)
 1107 000a 0000      		.word gs(.L106)
 1108 000c 0000      		.word gs(.L105)
 1109 000e 0000      		.word gs(.L101)
 1110 0010 0000      		.word gs(.L101)
 1111 0012 0000      		.word gs(.L107)
 1112 0014 0000      		.word gs(.L101)
 1113 0016 0000      		.word gs(.L101)
 1114 0018 0000      		.word gs(.L101)
 1115 001a 0000      		.word gs(.L101)
 1116 001c 0000      		.word gs(.L101)
 1117 001e 0000      		.word gs(.L101)
 1118 0020 0000      		.word gs(.L101)
 1119 0022 0000      		.word gs(.L101)
 1120 0024 0000      		.word gs(.L101)
 1121 0026 0000      		.word gs(.L108)
 1122 0028 0000      		.word gs(.L109)
 1123 002a 0000      		.word gs(.L101)
 1124 002c 0000      		.word gs(.L101)
 1125 002e 0000      		.word gs(.L101)
 1126 0030 0000      		.word gs(.L101)
 1127 0032 0000      		.word gs(.L101)
 1128 0034 0000      		.word gs(.L110)
 1129 0036 0000      		.word gs(.L110)
 1130 0038 0000      		.word gs(.L111)
 1131 003a 0000      		.word gs(.L112)
 1132 003c 0000      		.word gs(.L112)
 1133 003e 0000      		.word gs(.L113)
 1134 0040 0000      		.word gs(.L114)
 1135 0042 0000      		.word gs(.L101)
 1136 0044 0000      		.word gs(.L115)
 1137 0046 0000      		.word gs(.L116)
GAS LISTING /tmp/ccsHyliE.s 			page 21


 1138               		.section	.text.symbexec
 1139               	.L102:
 1140 02e6 0130      		cpi r16,1
 1141 02e8 1105      		cpc r17,__zero_reg__
 1142 02ea 01F0      		breq .+2
 1143 02ec 00C0      		rjmp .L101
 1144 02ee C601      		movw r24,r12
 1145 02f0 0296      		adiw r24,2
 1146 02f2 8615      		cp r24,r6
 1147 02f4 9705      		cpc r25,r7
 1148 02f6 04F0      		brlt .+2
 1149 02f8 00C0      		rjmp .L167
 1150 02fa EC81      		ldd r30,Y+4
 1151 02fc FD81      		ldd r31,Y+5
 1152 02fe E20D      		add r30,r2
 1153 0300 F31D      		adc r31,r3
 1154 0302 8481      		ldd r24,Z+4
 1155 0304 9581      		ldd r25,Z+5
 1156 0306 A681      		ldd r26,Z+6
 1157 0308 B781      		ldd r27,Z+7
 1158 030a 9C01      		movw r18,r24
 1159 030c 2F73      		andi r18,63
 1160 030e 3327      		clr r19
 1161 0310 2232      		cpi r18,34
 1162 0312 3105      		cpc r19,__zero_reg__
 1163 0314 01F0      		breq .+2
 1164 0316 00C0      		rjmp .L101
 1165 0318 5EE0      		ldi r21,14
 1166               		1:
 1167 031a B695      		lsr r27
 1168 031c A795      		ror r26
 1169 031e 9795      		ror r25
 1170 0320 8795      		ror r24
 1171 0322 5A95      		dec r21
 1172 0324 01F4      		brne 1b
 1173 0326 9170      		andi r25,1
 1174 0328 892B      		or r24,r25
 1175 032a 01F0      		breq .+2
 1176 032c 00C0      		rjmp .L101
 1177 032e 00C0      		rjmp .L167
 1178               	.L104:
 1179 0330 4E14      		cp r4,r14
 1180 0332 5F04      		cpc r5,r15
 1181 0334 04F4      		brge .+2
 1182 0336 00C0      		rjmp .L101
 1183 0338 2889      		ldd r18,Y+16
 1184 033a 3989      		ldd r19,Y+17
 1185 033c 2415      		cp r18,r4
 1186 033e 3505      		cpc r19,r5
 1187 0340 04F4      		brge .+2
 1188 0342 00C0      		rjmp .L101
 1189 0344 00C0      		rjmp .L189
 1190               	.L105:
 1191 0346 2889      		ldd r18,Y+16
 1192 0348 3989      		ldd r19,Y+17
 1193 034a 4A85      		ldd r20,Y+10
 1194 034c 5B85      		ldd r21,Y+11
GAS LISTING /tmp/ccsHyliE.s 			page 22


 1195 034e 2417      		cp r18,r20
 1196 0350 3507      		cpc r19,r21
 1197 0352 04F4      		brge .+2
 1198 0354 00C0      		rjmp .L101
 1199 0356 00C0      		rjmp .L167
 1200               	.L106:
 1201 0358 46E0      		ldi r20,lo8(6)
 1202 035a 2889      		ldd r18,Y+16
 1203 035c 3989      		ldd r19,Y+17
 1204 035e 429F      		mul r20,r18
 1205 0360 C001      		movw r24,r0
 1206 0362 439F      		mul r20,r19
 1207 0364 900D      		add r25,r0
 1208 0366 1124      		clr __zero_reg__
 1209 0368 D501      		movw r26,r10
 1210 036a 1496      		adiw r26,4
 1211 036c 2D91      		ld r18,X+
 1212 036e 3C91      		ld r19,X
 1213 0370 1597      		sbiw r26,4+1
 1214 0372 F901      		movw r30,r18
 1215 0374 E80F      		add r30,r24
 1216 0376 F91F      		adc r31,r25
 1217 0378 8481      		ldd r24,Z+4
 1218 037a 9581      		ldd r25,Z+5
 1219 037c 0697      		sbiw r24,6
 1220 037e 01F4      		brne .+2
 1221 0380 00C0      		rjmp .L101
 1222 0382 00C0      		rjmp .L167
 1223               	.L107:
 1224 0384 BFEF      		ldi r27,-1
 1225 0386 EB1A      		sub r14,r27
 1226 0388 FB0A      		sbc r15,r27
 1227 038a E814      		cp r14,r8
 1228 038c F904      		cpc r15,r9
 1229 038e 04F0      		brlt .+2
 1230 0390 00C0      		rjmp .L167
 1231 0392 4E14      		cp r4,r14
 1232 0394 5F04      		cpc r5,r15
 1233 0396 01F0      		breq .+2
 1234 0398 00C0      		rjmp .L101
 1235 039a 00C0      		rjmp .L189
 1236               	.L108:
 1237 039c 2889      		ldd r18,Y+16
 1238 039e 3989      		ldd r19,Y+17
 1239 03a0 2017      		cp r18,r16
 1240 03a2 3107      		cpc r19,r17
 1241 03a4 04F4      		brge .+2
 1242 03a6 00C0      		rjmp .L101
 1243 03a8 00C0      		rjmp .L167
 1244               	.L113:
 1245 03aa 0115      		cp r16,__zero_reg__
 1246 03ac 1105      		cpc r17,__zero_reg__
 1247 03ae 01F4      		brne .+2
 1248 03b0 00C0      		rjmp .L167
 1249 03b2 C701      		movw r24,r14
 1250 03b4 0296      		adiw r24,2
 1251 03b6 080F      		add r16,r24
GAS LISTING /tmp/ccsHyliE.s 			page 23


 1252 03b8 191F      		adc r17,r25
 1253 03ba 0815      		cp r16,r8
 1254 03bc 1905      		cpc r17,r9
 1255 03be 04F0      		brlt .+2
 1256 03c0 00C0      		rjmp .L167
 1257 03c2 3FEF      		ldi r19,-1
 1258 03c4 E31A      		sub r14,r19
 1259 03c6 F30A      		sbc r15,r19
 1260 03c8 E414      		cp r14,r4
 1261 03ca F504      		cpc r15,r5
 1262 03cc 04F0      		brlt .+2
 1263 03ce 00C0      		rjmp .L101
 1264 03d0 00C0      		rjmp .L189
 1265               	.L112:
 1266 03d2 43E0      		ldi r20,3
 1267 03d4 E40E      		add r14,r20
 1268 03d6 F11C      		adc r15,__zero_reg__
 1269 03d8 E814      		cp r14,r8
 1270 03da F904      		cpc r15,r9
 1271 03dc 04F0      		brlt .+2
 1272 03de 00C0      		rjmp .L167
 1273               	.L109:
 1274 03e0 5FEF      		ldi r21,-1
 1275 03e2 4516      		cp r4,r21
 1276 03e4 5104      		cpc r5,__zero_reg__
 1277 03e6 01F4      		brne .+2
 1278 03e8 00C0      		rjmp .L101
 1279 03ea C601      		movw r24,r12
 1280 03ec 0196      		adiw r24,1
 1281 03ee 2889      		ldd r18,Y+16
 1282 03f0 3989      		ldd r19,Y+17
 1283 03f2 820F      		add r24,r18
 1284 03f4 931F      		adc r25,r19
 1285 03f6 C816      		cp r12,r24
 1286 03f8 D906      		cpc r13,r25
 1287 03fa 04F0      		brlt .+2
 1288 03fc 00C0      		rjmp .L101
 1289 03fe 2C85      		ldd r18,Y+12
 1290 0400 3D85      		ldd r19,Y+13
 1291 0402 2817      		cp r18,r24
 1292 0404 3907      		cpc r19,r25
 1293 0406 04F4      		brge .+2
 1294 0408 00C0      		rjmp .L101
 1295 040a 2889      		ldd r18,Y+16
 1296 040c 3989      		ldd r19,Y+17
 1297 040e C20E      		add r12,r18
 1298 0410 D31E      		adc r13,r19
 1299 0412 00C0      		rjmp .L101
 1300               	.L110:
 1301 0414 2889      		ldd r18,Y+16
 1302 0416 3989      		ldd r19,Y+17
 1303 0418 2115      		cp r18,__zero_reg__
 1304 041a 3105      		cpc r19,__zero_reg__
 1305 041c 01F0      		breq .L117
 1306 041e C901      		movw r24,r18
 1307 0420 8E0D      		add r24,r14
 1308 0422 9F1D      		adc r25,r15
GAS LISTING /tmp/ccsHyliE.s 			page 24


 1309 0424 8816      		cp r8,r24
 1310 0426 9906      		cpc r9,r25
 1311 0428 04F4      		brge .+2
 1312 042a 00C0      		rjmp .L167
 1313               	.L117:
 1314 042c 0150      		subi r16,1
 1315 042e 1109      		sbc r17,__zero_reg__
 1316 0430 00F4      		brcc .L118
 1317 0432 EC81      		ldd r30,Y+4
 1318 0434 FD81      		ldd r31,Y+5
 1319 0436 E20D      		add r30,r2
 1320 0438 F31D      		adc r31,r3
 1321 043a 6481      		ldd r22,Z+4
 1322 043c 7581      		ldd r23,Z+5
 1323 043e 8681      		ldd r24,Z+6
 1324 0440 9781      		ldd r25,Z+7
 1325 0442 0E94 0000 		call luaG_checkopenop
 1326 0446 892B      		or r24,r25
 1327 0448 01F4      		brne .L119
 1328 044a 00C0      		rjmp .L167
 1329               	.L118:
 1330 044c 0115      		cp r16,__zero_reg__
 1331 044e 1105      		cpc r17,__zero_reg__
 1332 0450 01F0      		breq .L119
 1333 0452 0E0D      		add r16,r14
 1334 0454 1F1D      		adc r17,r15
 1335 0456 8016      		cp r8,r16
 1336 0458 9106      		cpc r9,r17
 1337 045a 04F4      		brge .+2
 1338 045c 00C0      		rjmp .L167
 1339               	.L119:
 1340 045e 4E14      		cp r4,r14
 1341 0460 5F04      		cpc r5,r15
 1342 0462 04F4      		brge .+2
 1343 0464 00C0      		rjmp .L101
 1344               	.L189:
 1345 0466 DB82      		std Y+3,r13
 1346 0468 CA82      		std Y+2,r12
 1347 046a 00C0      		rjmp .L101
 1348               	.L111:
 1349 046c 8889      		ldd r24,Y+16
 1350 046e 9989      		ldd r25,Y+17
 1351 0470 0197      		sbiw r24,1
 1352 0472 1816      		cp __zero_reg__,r24
 1353 0474 1906      		cpc __zero_reg__,r25
 1354 0476 04F0      		brlt .+2
 1355 0478 00C0      		rjmp .L101
 1356 047a 8E0D      		add r24,r14
 1357 047c 9F1D      		adc r25,r15
 1358 047e 8816      		cp r8,r24
 1359 0480 9906      		cpc r9,r25
 1360 0482 04F0      		brlt .+2
 1361 0484 00C0      		rjmp .L101
 1362 0486 00C0      		rjmp .L167
 1363               	.L114:
 1364 0488 2889      		ldd r18,Y+16
 1365 048a 3989      		ldd r19,Y+17
GAS LISTING /tmp/ccsHyliE.s 			page 25


 1366 048c 1216      		cp __zero_reg__,r18
 1367 048e 1306      		cpc __zero_reg__,r19
 1368 0490 04F4      		brge .L120
 1369 0492 E20E      		add r14,r18
 1370 0494 F31E      		adc r15,r19
 1371 0496 E814      		cp r14,r8
 1372 0498 F904      		cpc r15,r9
 1373 049a 04F0      		brlt .+2
 1374 049c 00C0      		rjmp .L167
 1375               	.L120:
 1376 049e 012B      		or r16,r17
 1377 04a0 01F0      		breq .+2
 1378 04a2 00C0      		rjmp .L101
 1379 04a4 3FEF      		ldi r19,-1
 1380 04a6 C31A      		sub r12,r19
 1381 04a8 D30A      		sbc r13,r19
 1382 04aa 2885      		ldd r18,Y+8
 1383 04ac 3985      		ldd r19,Y+9
 1384 04ae C216      		cp r12,r18
 1385 04b0 D306      		cpc r13,r19
 1386 04b2 04F4      		brge .+2
 1387 04b4 00C0      		rjmp .L101
 1388 04b6 00C0      		rjmp .L167
 1389               	.L115:
 1390 04b8 D501      		movw r26,r10
 1391 04ba 5A96      		adiw r26,26
 1392 04bc 8D91      		ld r24,X+
 1393 04be 9C91      		ld r25,X
 1394 04c0 5B97      		sbiw r26,26+1
 1395 04c2 2889      		ldd r18,Y+16
 1396 04c4 3989      		ldd r19,Y+17
 1397 04c6 2817      		cp r18,r24
 1398 04c8 3907      		cpc r19,r25
 1399 04ca 04F0      		brlt .+2
 1400 04cc 00C0      		rjmp .L167
 1401 04ce 220F      		lsl r18
 1402 04d0 331F      		rol r19
 1403 04d2 1896      		adiw r26,8
 1404 04d4 8D91      		ld r24,X+
 1405 04d6 9C91      		ld r25,X
 1406 04d8 1997      		sbiw r26,8+1
 1407 04da 820F      		add r24,r18
 1408 04dc 931F      		adc r25,r19
 1409 04de DC01      		movw r26,r24
 1410 04e0 ED91      		ld r30,X+
 1411 04e2 FC91      		ld r31,X
 1412 04e4 84A1      		ldd r24,Z+36
 1413 04e6 90E0      		ldi r25,0
 1414 04e8 B601      		movw r22,r12
 1415 04ea 680F      		add r22,r24
 1416 04ec 791F      		adc r23,r25
 1417 04ee 6615      		cp r22,r6
 1418 04f0 7705      		cpc r23,r7
 1419 04f2 04F0      		brlt .+2
 1420 04f4 00C0      		rjmp .L167
 1421 04f6 EC81      		ldd r30,Y+4
 1422 04f8 FD81      		ldd r31,Y+5
GAS LISTING /tmp/ccsHyliE.s 			page 26


 1423 04fa 3496      		adiw r30,4
 1424 04fc E20D      		add r30,r2
 1425 04fe F31D      		adc r31,r3
 1426 0500 21E0      		ldi r18,lo8(1)
 1427 0502 30E0      		ldi r19,0
 1428               	.L121:
 1429 0504 8217      		cp r24,r18
 1430 0506 9307      		cpc r25,r19
 1431 0508 04F0      		brlt .L192
 1432 050a E190      		ld r14,Z+
 1433 050c F190      		ld r15,Z+
 1434 050e 0191      		ld r16,Z+
 1435 0510 1191      		ld r17,Z+
 1436 0512 A701      		movw r20,r14
 1437 0514 4B73      		andi r20,59
 1438 0516 5527      		clr r21
 1439 0518 452B      		or r20,r21
 1440 051a 01F4      		brne .L167
 1441 051c 2F5F      		subi r18,-1
 1442 051e 3F4F      		sbci r19,-1
 1443 0520 00C0      		rjmp .L121
 1444               	.L192:
 1445 0522 BFEF      		ldi r27,-1
 1446 0524 4B16      		cp r4,r27
 1447 0526 5104      		cpc r5,__zero_reg__
 1448 0528 01F0      		breq .L101
 1449 052a 6B01      		movw r12,r22
 1450 052c 00C0      		rjmp .L101
 1451               	.L116:
 1452 052e 2F85      		ldd r18,Y+15
 1453 0530 2223      		tst r18
 1454 0532 01F0      		breq .L167
 1455 0534 3E85      		ldd r19,Y+14
 1456 0536 3111      		cpse r19,__zero_reg__
 1457 0538 00C0      		rjmp .L167
 1458 053a 0889      		ldd r16,Y+16
 1459 053c 1989      		ldd r17,Y+17
 1460 053e 0150      		subi r16,1
 1461 0540 1109      		sbc r17,__zero_reg__
 1462 0542 00F4      		brcc .L123
 1463 0544 EC81      		ldd r30,Y+4
 1464 0546 FD81      		ldd r31,Y+5
 1465 0548 E20D      		add r30,r2
 1466 054a F31D      		adc r31,r3
 1467 054c 6481      		ldd r22,Z+4
 1468 054e 7581      		ldd r23,Z+5
 1469 0550 8681      		ldd r24,Z+6
 1470 0552 9781      		ldd r25,Z+7
 1471 0554 0E94 0000 		call luaG_checkopenop
 1472 0558 892B      		or r24,r25
 1473 055a 01F0      		breq .L167
 1474               	.L123:
 1475 055c 0E0D      		add r16,r14
 1476 055e 1F1D      		adc r17,r15
 1477 0560 8016      		cp r8,r16
 1478 0562 9106      		cpc r9,r17
 1479 0564 04F0      		brlt .L167
GAS LISTING /tmp/ccsHyliE.s 			page 27


 1480               	.L101:
 1481 0566 5FEF      		ldi r21,-1
 1482 0568 C51A      		sub r12,r21
 1483 056a D50A      		sbc r13,r21
 1484 056c 00C0      		rjmp .L92
 1485               	.L190:
 1486 056e 8A81      		ldd r24,Y+2
 1487 0570 9B81      		ldd r25,Y+3
 1488 0572 880F      		lsl r24
 1489 0574 991F      		rol r25
 1490 0576 880F      		lsl r24
 1491 0578 991F      		rol r25
 1492 057a F101      		movw r30,r2
 1493 057c E80F      		add r30,r24
 1494 057e F91F      		adc r31,r25
 1495 0580 6081      		ld r22,Z
 1496 0582 7181      		ldd r23,Z+1
 1497 0584 8281      		ldd r24,Z+2
 1498 0586 9381      		ldd r25,Z+3
 1499 0588 00C0      		rjmp .L89
 1500               	.L167:
 1501 058a 60E0      		ldi r22,0
 1502 058c 70E0      		ldi r23,0
 1503 058e CB01      		movw r24,r22
 1504               	.L89:
 1505               	/* epilogue start */
 1506 0590 6196      		adiw r28,17
 1507 0592 0FB6      		in __tmp_reg__,__SREG__
 1508 0594 F894      		cli
 1509 0596 DEBF      		out __SP_H__,r29
 1510 0598 0FBE      		out __SREG__,__tmp_reg__
 1511 059a CDBF      		out __SP_L__,r28
 1512 059c DF91      		pop r29
 1513 059e CF91      		pop r28
 1514 05a0 1F91      		pop r17
 1515 05a2 0F91      		pop r16
 1516 05a4 FF90      		pop r15
 1517 05a6 EF90      		pop r14
 1518 05a8 DF90      		pop r13
 1519 05aa CF90      		pop r12
 1520 05ac BF90      		pop r11
 1521 05ae AF90      		pop r10
 1522 05b0 9F90      		pop r9
 1523 05b2 8F90      		pop r8
 1524 05b4 7F90      		pop r7
 1525 05b6 6F90      		pop r6
 1526 05b8 5F90      		pop r5
 1527 05ba 4F90      		pop r4
 1528 05bc 3F90      		pop r3
 1529 05be 2F90      		pop r2
 1530 05c0 0895      		ret
 1531               		.size	symbexec, .-symbexec
 1532               		.section	.rodata.str1.1
 1533               	.LC1:
 1534 000d 3F00      		.string	"?"
 1535               	.LC2:
 1536 000f 6C6F 6361 		.string	"local"
GAS LISTING /tmp/ccsHyliE.s 			page 28


 1536      6C00 
 1537               	.LC3:
 1538 0015 676C 6F62 		.string	"global"
 1538      616C 00
 1539               	.LC4:
 1540 001c 6669 656C 		.string	"field"
 1540      6400 
 1541               	.LC5:
 1542 0022 7570 7661 		.string	"upvalue"
 1542      6C75 6500 
 1543               	.LC6:
 1544 002a 6D65 7468 		.string	"method"
 1544      6F64 00
 1545               		.section	.text.getobjname,"ax",@progbits
 1546               		.type	getobjname, @function
 1547               	getobjname:
 1548 0000 6F92      		push r6
 1549 0002 7F92      		push r7
 1550 0004 8F92      		push r8
 1551 0006 9F92      		push r9
 1552 0008 AF92      		push r10
 1553 000a BF92      		push r11
 1554 000c CF92      		push r12
 1555 000e DF92      		push r13
 1556 0010 EF92      		push r14
 1557 0012 FF92      		push r15
 1558 0014 0F93      		push r16
 1559 0016 1F93      		push r17
 1560 0018 CF93      		push r28
 1561 001a DF93      		push r29
 1562               	/* prologue: function */
 1563               	/* frame size = 0 */
 1564               	/* stack size = 14 */
 1565               	.L__stack_usage = 14
 1566 001c 4C01      		movw r8,r24
 1567 001e 5B01      		movw r10,r22
 1568 0020 7A01      		movw r14,r20
 1569 0022 6901      		movw r12,r18
 1570               	.L203:
 1571 0024 D501      		movw r26,r10
 1572 0026 1296      		adiw r26,2
 1573 0028 ED91      		ld r30,X+
 1574 002a FC91      		ld r31,X
 1575 002c 1397      		sbiw r26,2+1
 1576 002e 8481      		ldd r24,Z+4
 1577 0030 9581      		ldd r25,Z+5
 1578 0032 0897      		sbiw r24,8
 1579 0034 01F0      		breq .L194
 1580               	.L196:
 1581 0036 C0E0      		ldi r28,0
 1582 0038 D0E0      		ldi r29,0
 1583 003a 00C0      		rjmp .L195
 1584               	.L194:
 1585 003c 0190      		ld __tmp_reg__,Z+
 1586 003e F081      		ld r31,Z
 1587 0040 E02D      		mov r30,__tmp_reg__
 1588 0042 8481      		ldd r24,Z+4
GAS LISTING /tmp/ccsHyliE.s 			page 29


 1589 0044 8111      		cpse r24,__zero_reg__
 1590 0046 00C0      		rjmp .L196
 1591 0048 0285      		ldd r16,Z+10
 1592 004a 1385      		ldd r17,Z+11
 1593 004c B501      		movw r22,r10
 1594 004e C401      		movw r24,r8
 1595 0050 0E94 0000 		call currentpc
 1596 0054 3C01      		movw r6,r24
 1597 0056 AC01      		movw r20,r24
 1598 0058 B701      		movw r22,r14
 1599 005a 6F5F      		subi r22,-1
 1600 005c 7F4F      		sbci r23,-1
 1601 005e C801      		movw r24,r16
 1602 0060 0E94 0000 		call luaF_getlocalname
 1603 0064 EC01      		movw r28,r24
 1604 0066 F601      		movw r30,r12
 1605 0068 9183      		std Z+1,r25
 1606 006a 8083      		st Z,r24
 1607 006c 892B      		or r24,r25
 1608 006e 01F0      		breq .+2
 1609 0070 00C0      		rjmp .L207
 1610 0072 A701      		movw r20,r14
 1611 0074 B301      		movw r22,r6
 1612 0076 C801      		movw r24,r16
 1613 0078 0E94 0000 		call symbexec
 1614 007c 9B01      		movw r18,r22
 1615 007e 2F73      		andi r18,63
 1616 0080 3327      		clr r19
 1617 0082 2530      		cpi r18,5
 1618 0084 3105      		cpc r19,__zero_reg__
 1619 0086 01F0      		breq .L197
 1620 0088 00F4      		brsh .L198
 1621 008a 2115      		cp r18,__zero_reg__
 1622 008c 3105      		cpc r19,__zero_reg__
 1623 008e 01F0      		breq .L199
 1624 0090 2430      		cpi r18,4
 1625 0092 3105      		cpc r19,__zero_reg__
 1626 0094 01F4      		brne .+2
 1627 0096 00C0      		rjmp .L200
 1628 0098 00C0      		rjmp .L195
 1629               	.L198:
 1630 009a 2630      		cpi r18,6
 1631 009c 3105      		cpc r19,__zero_reg__
 1632 009e 01F0      		breq .L201
 1633 00a0 2B30      		cpi r18,11
 1634 00a2 3105      		cpc r19,__zero_reg__
 1635 00a4 01F4      		brne .+2
 1636 00a6 00C0      		rjmp .L202
 1637 00a8 00C0      		rjmp .L195
 1638               	.L197:
 1639 00aa DC01      		movw r26,r24
 1640 00ac CB01      		movw r24,r22
 1641 00ae CEE0      		ldi r28,14
 1642               		1:
 1643 00b0 B695      		lsr r27
 1644 00b2 A795      		ror r26
 1645 00b4 9795      		ror r25
GAS LISTING /tmp/ccsHyliE.s 			page 30


 1646 00b6 8795      		ror r24
 1647 00b8 CA95      		dec r28
 1648 00ba 01F4      		brne 1b
 1649 00bc 46E0      		ldi r20,lo8(6)
 1650 00be 489F      		mul r20,r24
 1651 00c0 9001      		movw r18,r0
 1652 00c2 499F      		mul r20,r25
 1653 00c4 300D      		add r19,r0
 1654 00c6 1124      		clr __zero_reg__
 1655 00c8 D801      		movw r26,r16
 1656 00ca 1496      		adiw r26,4
 1657 00cc ED91      		ld r30,X+
 1658 00ce FC91      		ld r31,X
 1659 00d0 1597      		sbiw r26,4+1
 1660 00d2 E20F      		add r30,r18
 1661 00d4 F31F      		adc r31,r19
 1662 00d6 8081      		ld r24,Z
 1663 00d8 9181      		ldd r25,Z+1
 1664 00da 0996      		adiw r24,9
 1665 00dc F601      		movw r30,r12
 1666 00de 9183      		std Z+1,r25
 1667 00e0 8083      		st Z,r24
 1668 00e2 C0E0      		ldi r28,lo8(.LC3)
 1669 00e4 D0E0      		ldi r29,hi8(.LC3)
 1670 00e6 00C0      		rjmp .L195
 1671               	.L199:
 1672 00e8 8B01      		movw r16,r22
 1673 00ea 9C01      		movw r18,r24
 1674 00ec E7E1      		ldi r30,23
 1675               		1:
 1676 00ee 3695      		lsr r19
 1677 00f0 2795      		ror r18
 1678 00f2 1795      		ror r17
 1679 00f4 0795      		ror r16
 1680 00f6 EA95      		dec r30
 1681 00f8 01F4      		brne 1b
 1682 00fa 7801      		movw r14,r16
 1683 00fc DC01      		movw r26,r24
 1684 00fe CB01      		movw r24,r22
 1685 0100 F6E0      		ldi r31,6
 1686               		1:
 1687 0102 B695      		lsr r27
 1688 0104 A795      		ror r26
 1689 0106 9795      		ror r25
 1690 0108 8795      		ror r24
 1691 010a FA95      		dec r31
 1692 010c 01F4      		brne 1b
 1693 010e BC01      		movw r22,r24
 1694 0110 7727      		clr r23
 1695 0112 0617      		cp r16,r22
 1696 0114 1707      		cpc r17,r23
 1697 0116 04F4      		brge .+2
 1698 0118 00C0      		rjmp .L203
 1699 011a 00C0      		rjmp .L196
 1700               	.L201:
 1701 011c DC01      		movw r26,r24
 1702 011e CB01      		movw r24,r22
GAS LISTING /tmp/ccsHyliE.s 			page 31


 1703 0120 6EE0      		ldi r22,14
 1704               		1:
 1705 0122 B695      		lsr r27
 1706 0124 A795      		ror r26
 1707 0126 9795      		ror r25
 1708 0128 8795      		ror r24
 1709 012a 6A95      		dec r22
 1710 012c 01F4      		brne 1b
 1711 012e 9C01      		movw r18,r24
 1712 0130 2227      		clr r18
 1713 0132 3170      		andi r19,1
 1714 0134 232B      		or r18,r19
 1715 0136 01F0      		breq .L209
 1716 0138 BC01      		movw r22,r24
 1717 013a 7727      		clr r23
 1718 013c 26E0      		ldi r18,lo8(6)
 1719 013e 269F      		mul r18,r22
 1720 0140 C001      		movw r24,r0
 1721 0142 279F      		mul r18,r23
 1722 0144 900D      		add r25,r0
 1723 0146 1124      		clr __zero_reg__
 1724 0148 D801      		movw r26,r16
 1725 014a 1496      		adiw r26,4
 1726 014c ED91      		ld r30,X+
 1727 014e FC91      		ld r31,X
 1728 0150 1597      		sbiw r26,4+1
 1729 0152 E80F      		add r30,r24
 1730 0154 F91F      		adc r31,r25
 1731 0156 8481      		ldd r24,Z+4
 1732 0158 9581      		ldd r25,Z+5
 1733 015a 0697      		sbiw r24,6
 1734 015c 01F4      		brne .L209
 1735 015e 8081      		ld r24,Z
 1736 0160 9181      		ldd r25,Z+1
 1737 0162 0996      		adiw r24,9
 1738 0164 00C0      		rjmp .L204
 1739               	.L209:
 1740 0166 80E0      		ldi r24,lo8(.LC1)
 1741 0168 90E0      		ldi r25,hi8(.LC1)
 1742               	.L204:
 1743 016a F601      		movw r30,r12
 1744 016c 9183      		std Z+1,r25
 1745 016e 8083      		st Z,r24
 1746 0170 C0E0      		ldi r28,lo8(.LC4)
 1747 0172 D0E0      		ldi r29,hi8(.LC4)
 1748 0174 00C0      		rjmp .L195
 1749               	.L200:
 1750 0176 DC01      		movw r26,r24
 1751 0178 CB01      		movw r24,r22
 1752 017a 57E1      		ldi r21,23
 1753               		1:
 1754 017c B695      		lsr r27
 1755 017e A795      		ror r26
 1756 0180 9795      		ror r25
 1757 0182 8795      		ror r24
 1758 0184 5A95      		dec r21
 1759 0186 01F4      		brne 1b
GAS LISTING /tmp/ccsHyliE.s 			page 32


 1760 0188 F801      		movw r30,r16
 1761 018a 2685      		ldd r18,Z+14
 1762 018c 3785      		ldd r19,Z+15
 1763 018e 2115      		cp r18,__zero_reg__
 1764 0190 3105      		cpc r19,__zero_reg__
 1765 0192 01F0      		breq .L210
 1766 0194 BC01      		movw r22,r24
 1767 0196 660F      		lsl r22
 1768 0198 771F      		rol r23
 1769 019a F901      		movw r30,r18
 1770 019c E60F      		add r30,r22
 1771 019e F71F      		adc r31,r23
 1772 01a0 8081      		ld r24,Z
 1773 01a2 9181      		ldd r25,Z+1
 1774 01a4 0996      		adiw r24,9
 1775 01a6 00C0      		rjmp .L205
 1776               	.L210:
 1777 01a8 80E0      		ldi r24,lo8(.LC1)
 1778 01aa 90E0      		ldi r25,hi8(.LC1)
 1779               	.L205:
 1780 01ac D601      		movw r26,r12
 1781 01ae 8D93      		st X+,r24
 1782 01b0 9C93      		st X,r25
 1783 01b2 C0E0      		ldi r28,lo8(.LC5)
 1784 01b4 D0E0      		ldi r29,hi8(.LC5)
 1785 01b6 00C0      		rjmp .L195
 1786               	.L202:
 1787 01b8 DC01      		movw r26,r24
 1788 01ba CB01      		movw r24,r22
 1789 01bc 2EE0      		ldi r18,14
 1790               		1:
 1791 01be B695      		lsr r27
 1792 01c0 A795      		ror r26
 1793 01c2 9795      		ror r25
 1794 01c4 8795      		ror r24
 1795 01c6 2A95      		dec r18
 1796 01c8 01F4      		brne 1b
 1797 01ca 9C01      		movw r18,r24
 1798 01cc 2227      		clr r18
 1799 01ce 3170      		andi r19,1
 1800 01d0 232B      		or r18,r19
 1801 01d2 01F0      		breq .L212
 1802 01d4 BC01      		movw r22,r24
 1803 01d6 7727      		clr r23
 1804 01d8 26E0      		ldi r18,lo8(6)
 1805 01da 269F      		mul r18,r22
 1806 01dc C001      		movw r24,r0
 1807 01de 279F      		mul r18,r23
 1808 01e0 900D      		add r25,r0
 1809 01e2 1124      		clr __zero_reg__
 1810 01e4 D801      		movw r26,r16
 1811 01e6 1496      		adiw r26,4
 1812 01e8 ED91      		ld r30,X+
 1813 01ea FC91      		ld r31,X
 1814 01ec 1597      		sbiw r26,4+1
 1815 01ee E80F      		add r30,r24
 1816 01f0 F91F      		adc r31,r25
GAS LISTING /tmp/ccsHyliE.s 			page 33


 1817 01f2 8481      		ldd r24,Z+4
 1818 01f4 9581      		ldd r25,Z+5
 1819 01f6 0697      		sbiw r24,6
 1820 01f8 01F4      		brne .L212
 1821 01fa 8081      		ld r24,Z
 1822 01fc 9181      		ldd r25,Z+1
 1823 01fe 0996      		adiw r24,9
 1824 0200 00C0      		rjmp .L206
 1825               	.L212:
 1826 0202 80E0      		ldi r24,lo8(.LC1)
 1827 0204 90E0      		ldi r25,hi8(.LC1)
 1828               	.L206:
 1829 0206 F601      		movw r30,r12
 1830 0208 9183      		std Z+1,r25
 1831 020a 8083      		st Z,r24
 1832 020c C0E0      		ldi r28,lo8(.LC6)
 1833 020e D0E0      		ldi r29,hi8(.LC6)
 1834 0210 00C0      		rjmp .L195
 1835               	.L207:
 1836 0212 C0E0      		ldi r28,lo8(.LC2)
 1837 0214 D0E0      		ldi r29,hi8(.LC2)
 1838               	.L195:
 1839 0216 CE01      		movw r24,r28
 1840               	/* epilogue start */
 1841 0218 DF91      		pop r29
 1842 021a CF91      		pop r28
 1843 021c 1F91      		pop r17
 1844 021e 0F91      		pop r16
 1845 0220 FF90      		pop r15
 1846 0222 EF90      		pop r14
 1847 0224 DF90      		pop r13
 1848 0226 CF90      		pop r12
 1849 0228 BF90      		pop r11
 1850 022a AF90      		pop r10
 1851 022c 9F90      		pop r9
 1852 022e 8F90      		pop r8
 1853 0230 7F90      		pop r7
 1854 0232 6F90      		pop r6
 1855 0234 0895      		ret
 1856               		.size	getobjname, .-getobjname
 1857               		.section	.rodata.str1.1
 1858               	.LC7:
 1859 0031 6D61 696E 		.string	"main"
 1859      00
 1860               	.LC8:
 1861 0036 4C75 6100 		.string	"Lua"
 1862               	.LC9:
 1863 003a 00        		.string	""
 1864               	.LC10:
 1865 003b 7461 696C 		.string	"tail"
 1865      00
 1866               	.LC11:
 1867 0040 3D28 7461 		.string	"=(tail call)"
 1867      696C 2063 
 1867      616C 6C29 
 1867      00
 1868               	.LC12:
GAS LISTING /tmp/ccsHyliE.s 			page 34


 1869 004d 3D5B 435D 		.string	"=[C]"
 1869      00
 1870               	.LC13:
 1871 0052 4300      		.string	"C"
 1872               		.section	.text.lua_getinfo,"ax",@progbits
 1873               	.global	lua_getinfo
 1874               		.type	lua_getinfo, @function
 1875               	lua_getinfo:
 1876 0000 2F92      		push r2
 1877 0002 3F92      		push r3
 1878 0004 4F92      		push r4
 1879 0006 5F92      		push r5
 1880 0008 6F92      		push r6
 1881 000a 7F92      		push r7
 1882 000c 8F92      		push r8
 1883 000e 9F92      		push r9
 1884 0010 AF92      		push r10
 1885 0012 BF92      		push r11
 1886 0014 CF92      		push r12
 1887 0016 DF92      		push r13
 1888 0018 EF92      		push r14
 1889 001a FF92      		push r15
 1890 001c 0F93      		push r16
 1891 001e 1F93      		push r17
 1892 0020 CF93      		push r28
 1893 0022 DF93      		push r29
 1894 0024 CDB7      		in r28,__SP_L__
 1895 0026 DEB7      		in r29,__SP_H__
 1896 0028 2A97      		sbiw r28,10
 1897 002a 0FB6      		in __tmp_reg__,__SREG__
 1898 002c F894      		cli
 1899 002e DEBF      		out __SP_H__,r29
 1900 0030 0FBE      		out __SREG__,__tmp_reg__
 1901 0032 CDBF      		out __SP_L__,r28
 1902               	/* prologue: function */
 1903               	/* frame size = 10 */
 1904               	/* stack size = 28 */
 1905               	.L__stack_usage = 28
 1906 0034 8C01      		movw r16,r24
 1907 0036 4B01      		movw r8,r22
 1908 0038 5A87      		std Y+10,r21
 1909 003a 4987      		std Y+9,r20
 1910 003c DB01      		movw r26,r22
 1911 003e 8C91      		ld r24,X
 1912 0040 8E33      		cpi r24,lo8(62)
 1913 0042 01F4      		brne .L215
 1914 0044 D801      		movw r26,r16
 1915 0046 1596      		adiw r26,5
 1916 0048 ED91      		ld r30,X+
 1917 004a FC91      		ld r31,X
 1918 004c 1697      		sbiw r26,5+1
 1919 004e BFEF      		ldi r27,-1
 1920 0050 8B1A      		sub r8,r27
 1921 0052 9B0A      		sbc r9,r27
 1922 0054 3697      		sbiw r30,6
 1923 0056 8481      		ldd r24,Z+4
 1924 0058 9581      		ldd r25,Z+5
GAS LISTING /tmp/ccsHyliE.s 			page 35


 1925 005a 0897      		sbiw r24,8
 1926 005c 01F4      		brne .L216
 1927 005e E080      		ld r14,Z
 1928 0060 F180      		ldd r15,Z+1
 1929 0062 A12C      		mov r10,__zero_reg__
 1930 0064 B12C      		mov r11,__zero_reg__
 1931 0066 00C0      		rjmp .L217
 1932               	.L216:
 1933 0068 A080      		ld r10,Z
 1934 006a B180      		ldd r11,Z+1
 1935 006c E12C      		mov r14,__zero_reg__
 1936 006e F12C      		mov r15,__zero_reg__
 1937               	.L217:
 1938 0070 D801      		movw r26,r16
 1939 0072 1696      		adiw r26,5+1
 1940 0074 FC93      		st X,r31
 1941 0076 EE93      		st -X,r30
 1942 0078 1597      		sbiw r26,5
 1943 007a C12C      		mov r12,__zero_reg__
 1944 007c D12C      		mov r13,__zero_reg__
 1945 007e A114      		cp r10,__zero_reg__
 1946 0080 B104      		cpc r11,__zero_reg__
 1947 0082 01F4      		brne .L219
 1948 0084 00C0      		rjmp .L218
 1949               	.L215:
 1950 0086 E985      		ldd r30,Y+9
 1951 0088 FA85      		ldd r31,Y+10
 1952 008a E25B      		subi r30,-78
 1953 008c FF4F      		sbci r31,-1
 1954 008e 8081      		ld r24,Z
 1955 0090 9181      		ldd r25,Z+1
 1956 0092 0097      		sbiw r24,0
 1957 0094 01F0      		breq .L220
 1958 0096 4CE0      		ldi r20,lo8(12)
 1959 0098 489F      		mul r20,r24
 1960 009a 9001      		movw r18,r0
 1961 009c 499F      		mul r20,r25
 1962 009e 300D      		add r19,r0
 1963 00a0 1124      		clr __zero_reg__
 1964 00a2 F801      		movw r30,r16
 1965 00a4 C588      		ldd r12,Z+21
 1966 00a6 D688      		ldd r13,Z+22
 1967 00a8 C20E      		add r12,r18
 1968 00aa D31E      		adc r13,r19
 1969 00ac D601      		movw r26,r12
 1970 00ae 1296      		adiw r26,2
 1971 00b0 ED91      		ld r30,X+
 1972 00b2 FC91      		ld r31,X
 1973 00b4 1397      		sbiw r26,2+1
 1974 00b6 8481      		ldd r24,Z+4
 1975 00b8 9581      		ldd r25,Z+5
 1976 00ba 0897      		sbiw r24,8
 1977 00bc 01F4      		brne .L221
 1978 00be E080      		ld r14,Z
 1979 00c0 F180      		ldd r15,Z+1
 1980 00c2 00C0      		rjmp .L218
 1981               	.L221:
GAS LISTING /tmp/ccsHyliE.s 			page 36


 1982 00c4 A080      		ld r10,Z
 1983 00c6 B180      		ldd r11,Z+1
 1984 00c8 A114      		cp r10,__zero_reg__
 1985 00ca B104      		cpc r11,__zero_reg__
 1986 00cc 01F0      		breq .L220
 1987 00ce E12C      		mov r14,__zero_reg__
 1988 00d0 F12C      		mov r15,__zero_reg__
 1989 00d2 00C0      		rjmp .L219
 1990               	.L218:
 1991 00d4 E114      		cp r14,__zero_reg__
 1992 00d6 F104      		cpc r15,__zero_reg__
 1993 00d8 01F0      		breq .L220
 1994 00da A12C      		mov r10,__zero_reg__
 1995 00dc B12C      		mov r11,__zero_reg__
 1996               	.L219:
 1997 00de 9A82      		std Y+2,r9
 1998 00e0 8982      		std Y+1,r8
 1999 00e2 6624      		clr r6
 2000 00e4 6394      		inc r6
 2001 00e6 712C      		mov r7,__zero_reg__
 2002 00e8 2601      		movw r4,r12
 2003 00ea BCE0      		ldi r27,12
 2004 00ec 4B1A      		sub r4,r27
 2005 00ee 5108      		sbc r5,__zero_reg__
 2006 00f0 E985      		ldd r30,Y+9
 2007 00f2 FA85      		ldd r31,Y+10
 2008 00f4 3296      		adiw r30,2
 2009 00f6 FC83      		std Y+4,r31
 2010 00f8 EB83      		std Y+3,r30
 2011 00fa 2224      		clr r2
 2012 00fc 2A94      		dec r2
 2013 00fe 322C      		mov r3,r2
 2014 0100 8985      		ldd r24,Y+9
 2015 0102 9A85      		ldd r25,Y+10
 2016 0104 4296      		adiw r24,18
 2017 0106 9E83      		std Y+6,r25
 2018 0108 8D83      		std Y+5,r24
 2019 010a 00C0      		rjmp .L222
 2020               	.L220:
 2021 010c 80E0      		ldi r24,lo8(.LC9)
 2022 010e 90E0      		ldi r25,hi8(.LC9)
 2023 0110 A985      		ldd r26,Y+9
 2024 0112 BA85      		ldd r27,Y+10
 2025 0114 1596      		adiw r26,4+1
 2026 0116 9C93      		st X,r25
 2027 0118 8E93      		st -X,r24
 2028 011a 1497      		sbiw r26,4
 2029 011c 1396      		adiw r26,2+1
 2030 011e 9C93      		st X,r25
 2031 0120 8E93      		st -X,r24
 2032 0122 1297      		sbiw r26,2
 2033 0124 80E0      		ldi r24,lo8(.LC10)
 2034 0126 90E0      		ldi r25,hi8(.LC10)
 2035 0128 1796      		adiw r26,6+1
 2036 012a 9C93      		st X,r25
 2037 012c 8E93      		st -X,r24
 2038 012e 1697      		sbiw r26,6
GAS LISTING /tmp/ccsHyliE.s 			page 37


 2039 0130 8FEF      		ldi r24,lo8(-1)
 2040 0132 9FEF      		ldi r25,lo8(-1)
 2041 0134 1B96      		adiw r26,10+1
 2042 0136 9C93      		st X,r25
 2043 0138 8E93      		st -X,r24
 2044 013a 1A97      		sbiw r26,10
 2045 013c 1F96      		adiw r26,14+1
 2046 013e 9C93      		st X,r25
 2047 0140 8E93      		st -X,r24
 2048 0142 1E97      		sbiw r26,14
 2049 0144 5196      		adiw r26,16+1
 2050 0146 9C93      		st X,r25
 2051 0148 8E93      		st -X,r24
 2052 014a 5097      		sbiw r26,16
 2053 014c 80E0      		ldi r24,lo8(.LC11)
 2054 014e 90E0      		ldi r25,hi8(.LC11)
 2055 0150 1996      		adiw r26,8+1
 2056 0152 9C93      		st X,r25
 2057 0154 8E93      		st -X,r24
 2058 0156 1897      		sbiw r26,8
 2059 0158 4CE3      		ldi r20,lo8(60)
 2060 015a 50E0      		ldi r21,0
 2061 015c BC01      		movw r22,r24
 2062 015e CD01      		movw r24,r26
 2063 0160 4296      		adiw r24,18
 2064 0162 0E94 0000 		call luaO_chunkid
 2065 0166 E985      		ldd r30,Y+9
 2066 0168 FA85      		ldd r31,Y+10
 2067 016a 1586      		std Z+13,__zero_reg__
 2068 016c 1486      		std Z+12,__zero_reg__
 2069 016e A12C      		mov r10,__zero_reg__
 2070 0170 B12C      		mov r11,__zero_reg__
 2071 0172 E12C      		mov r14,__zero_reg__
 2072 0174 F12C      		mov r15,__zero_reg__
 2073 0176 6624      		clr r6
 2074 0178 6394      		inc r6
 2075 017a 712C      		mov r7,__zero_reg__
 2076 017c 00C0      		rjmp .L223
 2077               	.L242:
 2078 017e 8636      		cpi r24,lo8(102)
 2079 0180 01F4      		brne .L282
 2080               	.L222:
 2081 0182 A981      		ldd r26,Y+1
 2082 0184 BA81      		ldd r27,Y+2
 2083 0186 8D91      		ld r24,X+
 2084 0188 BA83      		std Y+2,r27
 2085 018a A983      		std Y+1,r26
 2086 018c 8111      		cpse r24,__zero_reg__
 2087 018e 00C0      		rjmp .L242
 2088 0190 00C0      		rjmp .L223
 2089               	.L282:
 2090 0192 8736      		cpi r24,lo8(103)
 2091 0194 04F4      		brge .L226
 2092 0196 8C34      		cpi r24,lo8(76)
 2093 0198 01F0      		breq .L222
 2094 019a 8335      		cpi r24,lo8(83)
 2095 019c 01F0      		breq .L227
GAS LISTING /tmp/ccsHyliE.s 			page 38


 2096 019e 00C0      		rjmp .L224
 2097               	.L226:
 2098 01a0 8E36      		cpi r24,lo8(110)
 2099 01a2 01F4      		brne .+2
 2100 01a4 00C0      		rjmp .L228
 2101 01a6 8537      		cpi r24,lo8(117)
 2102 01a8 01F4      		brne .+2
 2103 01aa 00C0      		rjmp .L229
 2104 01ac 8C36      		cpi r24,lo8(108)
 2105 01ae 01F4      		brne .+2
 2106 01b0 00C0      		rjmp .L230
 2107               	.L224:
 2108 01b2 612C      		mov r6,__zero_reg__
 2109 01b4 712C      		mov r7,__zero_reg__
 2110 01b6 00C0      		rjmp .L222
 2111               	.L227:
 2112 01b8 A114      		cp r10,__zero_reg__
 2113 01ba B104      		cpc r11,__zero_reg__
 2114 01bc 01F4      		brne .L231
 2115 01be D701      		movw r26,r14
 2116 01c0 1496      		adiw r26,4
 2117 01c2 8C91      		ld r24,X
 2118 01c4 8823      		tst r24
 2119 01c6 01F0      		breq .L232
 2120               	.L231:
 2121 01c8 80E0      		ldi r24,lo8(.LC12)
 2122 01ca 90E0      		ldi r25,hi8(.LC12)
 2123 01cc E985      		ldd r30,Y+9
 2124 01ce FA85      		ldd r31,Y+10
 2125 01d0 9187      		std Z+9,r25
 2126 01d2 8087      		std Z+8,r24
 2127 01d4 3786      		std Z+15,r3
 2128 01d6 2686      		std Z+14,r2
 2129 01d8 318A      		std Z+17,r3
 2130 01da 208A      		std Z+16,r2
 2131 01dc A0E0      		ldi r26,lo8(.LC13)
 2132 01de B0E0      		ldi r27,hi8(.LC13)
 2133 01e0 B783      		std Z+7,r27
 2134 01e2 A683      		std Z+6,r26
 2135 01e4 00C0      		rjmp .L233
 2136               	.L232:
 2137 01e6 D701      		movw r26,r14
 2138 01e8 1A96      		adiw r26,10
 2139 01ea ED91      		ld r30,X+
 2140 01ec FC91      		ld r31,X
 2141 01ee 1B97      		sbiw r26,10+1
 2142 01f0 8089      		ldd r24,Z+16
 2143 01f2 9189      		ldd r25,Z+17
 2144 01f4 0996      		adiw r24,9
 2145 01f6 E985      		ldd r30,Y+9
 2146 01f8 FA85      		ldd r31,Y+10
 2147 01fa 9187      		std Z+9,r25
 2148 01fc 8087      		std Z+8,r24
 2149 01fe 1A96      		adiw r26,10
 2150 0200 ED91      		ld r30,X+
 2151 0202 FC91      		ld r31,X
 2152 0204 1B97      		sbiw r26,10+1
GAS LISTING /tmp/ccsHyliE.s 			page 39


 2153 0206 868D      		ldd r24,Z+30
 2154 0208 978D      		ldd r25,Z+31
 2155 020a A985      		ldd r26,Y+9
 2156 020c BA85      		ldd r27,Y+10
 2157 020e 1F96      		adiw r26,14+1
 2158 0210 9C93      		st X,r25
 2159 0212 8E93      		st -X,r24
 2160 0214 1E97      		sbiw r26,14
 2161 0216 D701      		movw r26,r14
 2162 0218 1A96      		adiw r26,10
 2163 021a ED91      		ld r30,X+
 2164 021c FC91      		ld r31,X
 2165 021e 1B97      		sbiw r26,10+1
 2166 0220 20A1      		ldd r18,Z+32
 2167 0222 31A1      		ldd r19,Z+33
 2168 0224 E985      		ldd r30,Y+9
 2169 0226 FA85      		ldd r31,Y+10
 2170 0228 318B      		std Z+17,r19
 2171 022a 208B      		std Z+16,r18
 2172 022c 892B      		or r24,r25
 2173 022e 01F0      		breq .L257
 2174 0230 80E0      		ldi r24,lo8(.LC8)
 2175 0232 90E0      		ldi r25,hi8(.LC8)
 2176 0234 00C0      		rjmp .L234
 2177               	.L257:
 2178 0236 80E0      		ldi r24,lo8(.LC7)
 2179 0238 90E0      		ldi r25,hi8(.LC7)
 2180               	.L234:
 2181 023a A985      		ldd r26,Y+9
 2182 023c BA85      		ldd r27,Y+10
 2183 023e 1796      		adiw r26,6+1
 2184 0240 9C93      		st X,r25
 2185 0242 8E93      		st -X,r24
 2186 0244 1697      		sbiw r26,6
 2187               	.L233:
 2188 0246 E985      		ldd r30,Y+9
 2189 0248 FA85      		ldd r31,Y+10
 2190 024a 6085      		ldd r22,Z+8
 2191 024c 7185      		ldd r23,Z+9
 2192 024e 4CE3      		ldi r20,lo8(60)
 2193 0250 50E0      		ldi r21,0
 2194 0252 8D81      		ldd r24,Y+5
 2195 0254 9E81      		ldd r25,Y+6
 2196 0256 0E94 0000 		call luaO_chunkid
 2197 025a 00C0      		rjmp .L222
 2198               	.L230:
 2199 025c C114      		cp r12,__zero_reg__
 2200 025e D104      		cpc r13,__zero_reg__
 2201 0260 01F0      		breq .L258
 2202 0262 B601      		movw r22,r12
 2203 0264 C801      		movw r24,r16
 2204 0266 0E94 0000 		call currentline
 2205 026a 00C0      		rjmp .L235
 2206               	.L258:
 2207 026c 8FEF      		ldi r24,lo8(-1)
 2208 026e 9FEF      		ldi r25,lo8(-1)
 2209               	.L235:
GAS LISTING /tmp/ccsHyliE.s 			page 40


 2210 0270 A985      		ldd r26,Y+9
 2211 0272 BA85      		ldd r27,Y+10
 2212 0274 1B96      		adiw r26,10+1
 2213 0276 9C93      		st X,r25
 2214 0278 8E93      		st -X,r24
 2215 027a 1A97      		sbiw r26,10
 2216 027c 00C0      		rjmp .L222
 2217               	.L229:
 2218 027e E114      		cp r14,__zero_reg__
 2219 0280 F104      		cpc r15,__zero_reg__
 2220 0282 01F0      		breq .L259
 2221 0284 F701      		movw r30,r14
 2222 0286 8581      		ldd r24,Z+5
 2223 0288 90E0      		ldi r25,0
 2224 028a 00C0      		rjmp .L236
 2225               	.L259:
 2226 028c 80E0      		ldi r24,0
 2227 028e 90E0      		ldi r25,0
 2228               	.L236:
 2229 0290 A985      		ldd r26,Y+9
 2230 0292 BA85      		ldd r27,Y+10
 2231 0294 1D96      		adiw r26,12+1
 2232 0296 9C93      		st X,r25
 2233 0298 8E93      		st -X,r24
 2234 029a 1C97      		sbiw r26,12
 2235 029c 00C0      		rjmp .L222
 2236               	.L228:
 2237 029e C114      		cp r12,__zero_reg__
 2238 02a0 D104      		cpc r13,__zero_reg__
 2239 02a2 01F4      		brne .L237
 2240               	.L240:
 2241 02a4 80E0      		ldi r24,0
 2242 02a6 90E0      		ldi r25,0
 2243 02a8 00C0      		rjmp .L238
 2244               	.L237:
 2245 02aa D601      		movw r26,r12
 2246 02ac 1296      		adiw r26,2
 2247 02ae ED91      		ld r30,X+
 2248 02b0 FC91      		ld r31,X
 2249 02b2 1397      		sbiw r26,2+1
 2250 02b4 8481      		ldd r24,Z+4
 2251 02b6 9581      		ldd r25,Z+5
 2252 02b8 0897      		sbiw r24,8
 2253 02ba 01F4      		brne .L239
 2254 02bc 0190      		ld __tmp_reg__,Z+
 2255 02be F081      		ld r31,Z
 2256 02c0 E02D      		mov r30,__tmp_reg__
 2257 02c2 8481      		ldd r24,Z+4
 2258 02c4 8111      		cpse r24,__zero_reg__
 2259 02c6 00C0      		rjmp .L239
 2260 02c8 1A96      		adiw r26,10
 2261 02ca 8D91      		ld r24,X+
 2262 02cc 9C91      		ld r25,X
 2263 02ce 1B97      		sbiw r26,10+1
 2264 02d0 1816      		cp __zero_reg__,r24
 2265 02d2 1906      		cpc __zero_reg__,r25
 2266 02d4 04F0      		brlt .L240
GAS LISTING /tmp/ccsHyliE.s 			page 41


 2267               	.L239:
 2268 02d6 D201      		movw r26,r4
 2269 02d8 1296      		adiw r26,2
 2270 02da ED91      		ld r30,X+
 2271 02dc FC91      		ld r31,X
 2272 02de 1397      		sbiw r26,2+1
 2273 02e0 8481      		ldd r24,Z+4
 2274 02e2 9581      		ldd r25,Z+5
 2275 02e4 0897      		sbiw r24,8
 2276 02e6 01F4      		brne .L240
 2277 02e8 0190      		ld __tmp_reg__,Z+
 2278 02ea F081      		ld r31,Z
 2279 02ec E02D      		mov r30,__tmp_reg__
 2280 02ee 8481      		ldd r24,Z+4
 2281 02f0 8111      		cpse r24,__zero_reg__
 2282 02f2 00C0      		rjmp .L240
 2283 02f4 0284      		ldd __tmp_reg__,Z+10
 2284 02f6 F385      		ldd r31,Z+11
 2285 02f8 E02D      		mov r30,__tmp_reg__
 2286 02fa 2681      		ldd r18,Z+6
 2287 02fc 3781      		ldd r19,Z+7
 2288 02fe B201      		movw r22,r4
 2289 0300 C801      		movw r24,r16
 2290 0302 2F83      		std Y+7,r18
 2291 0304 3887      		std Y+8,r19
 2292 0306 0E94 0000 		call currentpc
 2293 030a 880F      		lsl r24
 2294 030c 991F      		rol r25
 2295 030e 880F      		lsl r24
 2296 0310 991F      		rol r25
 2297 0312 2F81      		ldd r18,Y+7
 2298 0314 3885      		ldd r19,Y+8
 2299 0316 F901      		movw r30,r18
 2300 0318 E80F      		add r30,r24
 2301 031a F91F      		adc r31,r25
 2302 031c 4081      		ld r20,Z
 2303 031e 5181      		ldd r21,Z+1
 2304 0320 6281      		ldd r22,Z+2
 2305 0322 7381      		ldd r23,Z+3
 2306 0324 CA01      		movw r24,r20
 2307 0326 8F73      		andi r24,63
 2308 0328 9927      		clr r25
 2309 032a 9C01      		movw r18,r24
 2310 032c 2C51      		subi r18,28
 2311 032e 3109      		sbc r19,__zero_reg__
 2312 0330 2230      		cpi r18,2
 2313 0332 3105      		cpc r19,__zero_reg__
 2314 0334 00F0      		brlo .L241
 2315 0336 8197      		sbiw r24,33
 2316 0338 01F0      		breq .+2
 2317 033a 00C0      		rjmp .L240
 2318               	.L241:
 2319 033c 96E0      		ldi r25,6
 2320               		1:
 2321 033e 7695      		lsr r23
 2322 0340 6795      		ror r22
 2323 0342 5795      		ror r21
GAS LISTING /tmp/ccsHyliE.s 			page 42


 2324 0344 4795      		ror r20
 2325 0346 9A95      		dec r25
 2326 0348 01F4      		brne 1b
 2327 034a 5527      		clr r21
 2328 034c 2B81      		ldd r18,Y+3
 2329 034e 3C81      		ldd r19,Y+4
 2330 0350 B201      		movw r22,r4
 2331 0352 C801      		movw r24,r16
 2332 0354 0E94 0000 		call getobjname
 2333               	.L238:
 2334 0358 E985      		ldd r30,Y+9
 2335 035a FA85      		ldd r31,Y+10
 2336 035c 9583      		std Z+5,r25
 2337 035e 8483      		std Z+4,r24
 2338 0360 892B      		or r24,r25
 2339 0362 01F0      		breq .+2
 2340 0364 00C0      		rjmp .L222
 2341 0366 80E0      		ldi r24,lo8(.LC9)
 2342 0368 90E0      		ldi r25,hi8(.LC9)
 2343 036a 9583      		std Z+5,r25
 2344 036c 8483      		std Z+4,r24
 2345 036e 1382      		std Z+3,__zero_reg__
 2346 0370 1282      		std Z+2,__zero_reg__
 2347 0372 00C0      		rjmp .L222
 2348               	.L223:
 2349 0374 66E6      		ldi r22,lo8(102)
 2350 0376 70E0      		ldi r23,0
 2351 0378 C401      		movw r24,r8
 2352 037a 0E94 0000 		call strchr
 2353 037e 892B      		or r24,r25
 2354 0380 01F0      		breq .L243
 2355 0382 D801      		movw r26,r16
 2356 0384 1596      		adiw r26,5
 2357 0386 ED91      		ld r30,X+
 2358 0388 FC91      		ld r31,X
 2359 038a 1697      		sbiw r26,5+1
 2360 038c E114      		cp r14,__zero_reg__
 2361 038e F104      		cpc r15,__zero_reg__
 2362 0390 01F0      		breq .L244
 2363 0392 F182      		std Z+1,r15
 2364 0394 E082      		st Z,r14
 2365 0396 88E0      		ldi r24,lo8(8)
 2366 0398 90E0      		ldi r25,0
 2367 039a 00C0      		rjmp .L281
 2368               	.L244:
 2369 039c A114      		cp r10,__zero_reg__
 2370 039e B104      		cpc r11,__zero_reg__
 2371 03a0 01F0      		breq .L246
 2372 03a2 B182      		std Z+1,r11
 2373 03a4 A082      		st Z,r10
 2374 03a6 83E0      		ldi r24,lo8(3)
 2375 03a8 90E0      		ldi r25,0
 2376               	.L281:
 2377 03aa 9583      		std Z+5,r25
 2378 03ac 8483      		std Z+4,r24
 2379 03ae 00C0      		rjmp .L245
 2380               	.L246:
GAS LISTING /tmp/ccsHyliE.s 			page 43


 2381 03b0 1582      		std Z+5,__zero_reg__
 2382 03b2 1482      		std Z+4,__zero_reg__
 2383               	.L245:
 2384 03b4 F801      		movw r30,r16
 2385 03b6 8785      		ldd r24,Z+15
 2386 03b8 9089      		ldd r25,Z+16
 2387 03ba 2581      		ldd r18,Z+5
 2388 03bc 3681      		ldd r19,Z+6
 2389 03be 821B      		sub r24,r18
 2390 03c0 930B      		sbc r25,r19
 2391 03c2 0797      		sbiw r24,7
 2392 03c4 04F4      		brge .L247
 2393 03c6 61E0      		ldi r22,lo8(1)
 2394 03c8 70E0      		ldi r23,0
 2395 03ca C801      		movw r24,r16
 2396 03cc 0E94 0000 		call luaD_growstack
 2397               	.L247:
 2398 03d0 D801      		movw r26,r16
 2399 03d2 1596      		adiw r26,5
 2400 03d4 8D91      		ld r24,X+
 2401 03d6 9C91      		ld r25,X
 2402 03d8 1697      		sbiw r26,5+1
 2403 03da 0696      		adiw r24,6
 2404 03dc 1696      		adiw r26,5+1
 2405 03de 9C93      		st X,r25
 2406 03e0 8E93      		st -X,r24
 2407 03e2 1597      		sbiw r26,5
 2408               	.L243:
 2409 03e4 6CE4      		ldi r22,lo8(76)
 2410 03e6 70E0      		ldi r23,0
 2411 03e8 C401      		movw r24,r8
 2412 03ea 0E94 0000 		call strchr
 2413 03ee 892B      		or r24,r25
 2414 03f0 01F4      		brne .+2
 2415 03f2 00C0      		rjmp .L248
 2416 03f4 E114      		cp r14,__zero_reg__
 2417 03f6 F104      		cpc r15,__zero_reg__
 2418 03f8 01F0      		breq .L249
 2419 03fa F701      		movw r30,r14
 2420 03fc 8481      		ldd r24,Z+4
 2421 03fe 8823      		tst r24
 2422 0400 01F0      		breq .L250
 2423               	.L249:
 2424 0402 D801      		movw r26,r16
 2425 0404 1596      		adiw r26,5
 2426 0406 ED91      		ld r30,X+
 2427 0408 FC91      		ld r31,X
 2428 040a 1697      		sbiw r26,5+1
 2429 040c 1582      		std Z+5,__zero_reg__
 2430 040e 1482      		std Z+4,__zero_reg__
 2431 0410 00C0      		rjmp .L251
 2432               	.L250:
 2433 0412 40E0      		ldi r20,0
 2434 0414 50E0      		ldi r21,0
 2435 0416 60E0      		ldi r22,0
 2436 0418 70E0      		ldi r23,0
 2437 041a C801      		movw r24,r16
GAS LISTING /tmp/ccsHyliE.s 			page 44


 2438 041c 0E94 0000 		call luaH_new
 2439 0420 6C01      		movw r12,r24
 2440 0422 D701      		movw r26,r14
 2441 0424 1A96      		adiw r26,10
 2442 0426 ED91      		ld r30,X+
 2443 0428 FC91      		ld r31,X
 2444 042a 1B97      		sbiw r26,10+1
 2445 042c A284      		ldd r10,Z+10
 2446 042e B384      		ldd r11,Z+11
 2447 0430 412C      		mov r4,__zero_reg__
 2448 0432 512C      		mov r5,__zero_reg__
 2449 0434 8824      		clr r8
 2450 0436 8394      		inc r8
 2451 0438 912C      		mov r9,__zero_reg__
 2452               	.L252:
 2453 043a D701      		movw r26,r14
 2454 043c 1A96      		adiw r26,10
 2455 043e ED91      		ld r30,X+
 2456 0440 FC91      		ld r31,X
 2457 0442 1B97      		sbiw r26,10+1
 2458 0444 808D      		ldd r24,Z+24
 2459 0446 918D      		ldd r25,Z+25
 2460 0448 4816      		cp r4,r24
 2461 044a 5906      		cpc r5,r25
 2462 044c 04F4      		brge .L283
 2463 044e F501      		movw r30,r10
 2464 0450 4191      		ld r20,Z+
 2465 0452 5191      		ld r21,Z+
 2466 0454 5F01      		movw r10,r30
 2467 0456 B601      		movw r22,r12
 2468 0458 C801      		movw r24,r16
 2469 045a 0E94 0000 		call luaH_setnum
 2470 045e DC01      		movw r26,r24
 2471 0460 1196      		adiw r26,1
 2472 0462 9C92      		st X,r9
 2473 0464 8E92      		st -X,r8
 2474 0466 1596      		adiw r26,4+1
 2475 0468 9C92      		st X,r9
 2476 046a 8E92      		st -X,r8
 2477 046c 1497      		sbiw r26,4
 2478 046e BFEF      		ldi r27,-1
 2479 0470 4B1A      		sub r4,r27
 2480 0472 5B0A      		sbc r5,r27
 2481 0474 00C0      		rjmp .L252
 2482               	.L283:
 2483 0476 D801      		movw r26,r16
 2484 0478 1596      		adiw r26,5
 2485 047a ED91      		ld r30,X+
 2486 047c FC91      		ld r31,X
 2487 047e 1697      		sbiw r26,5+1
 2488 0480 D182      		std Z+1,r13
 2489 0482 C082      		st Z,r12
 2490 0484 87E0      		ldi r24,lo8(7)
 2491 0486 90E0      		ldi r25,0
 2492 0488 9583      		std Z+5,r25
 2493 048a 8483      		std Z+4,r24
 2494               	.L251:
GAS LISTING /tmp/ccsHyliE.s 			page 45


 2495 048c F801      		movw r30,r16
 2496 048e 8785      		ldd r24,Z+15
 2497 0490 9089      		ldd r25,Z+16
 2498 0492 2581      		ldd r18,Z+5
 2499 0494 3681      		ldd r19,Z+6
 2500 0496 821B      		sub r24,r18
 2501 0498 930B      		sbc r25,r19
 2502 049a 0797      		sbiw r24,7
 2503 049c 04F4      		brge .L254
 2504 049e 61E0      		ldi r22,lo8(1)
 2505 04a0 70E0      		ldi r23,0
 2506 04a2 C801      		movw r24,r16
 2507 04a4 0E94 0000 		call luaD_growstack
 2508               	.L254:
 2509 04a8 D801      		movw r26,r16
 2510 04aa 1596      		adiw r26,5
 2511 04ac 8D91      		ld r24,X+
 2512 04ae 9C91      		ld r25,X
 2513 04b0 1697      		sbiw r26,5+1
 2514 04b2 0696      		adiw r24,6
 2515 04b4 1696      		adiw r26,5+1
 2516 04b6 9C93      		st X,r25
 2517 04b8 8E93      		st -X,r24
 2518 04ba 1597      		sbiw r26,5
 2519               	.L248:
 2520 04bc C301      		movw r24,r6
 2521               	/* epilogue start */
 2522 04be 2A96      		adiw r28,10
 2523 04c0 0FB6      		in __tmp_reg__,__SREG__
 2524 04c2 F894      		cli
 2525 04c4 DEBF      		out __SP_H__,r29
 2526 04c6 0FBE      		out __SREG__,__tmp_reg__
 2527 04c8 CDBF      		out __SP_L__,r28
 2528 04ca DF91      		pop r29
 2529 04cc CF91      		pop r28
 2530 04ce 1F91      		pop r17
 2531 04d0 0F91      		pop r16
 2532 04d2 FF90      		pop r15
 2533 04d4 EF90      		pop r14
 2534 04d6 DF90      		pop r13
 2535 04d8 CF90      		pop r12
 2536 04da BF90      		pop r11
 2537 04dc AF90      		pop r10
 2538 04de 9F90      		pop r9
 2539 04e0 8F90      		pop r8
 2540 04e2 7F90      		pop r7
 2541 04e4 6F90      		pop r6
 2542 04e6 5F90      		pop r5
 2543 04e8 4F90      		pop r4
 2544 04ea 3F90      		pop r3
 2545 04ec 2F90      		pop r2
 2546 04ee 0895      		ret
 2547               		.size	lua_getinfo, .-lua_getinfo
 2548               		.section	.text.luaG_checkcode,"ax",@progbits
 2549               	.global	luaG_checkcode
 2550               		.hidden	luaG_checkcode
 2551               		.type	luaG_checkcode, @function
GAS LISTING /tmp/ccsHyliE.s 			page 46


 2552               	luaG_checkcode:
 2553               	/* prologue: function */
 2554               	/* frame size = 0 */
 2555               	/* stack size = 0 */
 2556               	.L__stack_usage = 0
 2557 0000 FC01      		movw r30,r24
 2558 0002 6689      		ldd r22,Z+22
 2559 0004 7789      		ldd r23,Z+23
 2560 0006 4FEF      		ldi r20,lo8(-1)
 2561 0008 50E0      		ldi r21,0
 2562 000a 0E94 0000 		call symbexec
 2563 000e 21E0      		ldi r18,lo8(1)
 2564 0010 30E0      		ldi r19,0
 2565 0012 672B      		or r22,r23
 2566 0014 682B      		or r22,r24
 2567 0016 692B      		or r22,r25
 2568 0018 01F4      		brne .L285
 2569 001a 20E0      		ldi r18,0
 2570 001c 30E0      		ldi r19,0
 2571               	.L285:
 2572 001e C901      		movw r24,r18
 2573 0020 0895      		ret
 2574               		.size	luaG_checkcode, .-luaG_checkcode
 2575               		.section	.text.luaG_errormsg,"ax",@progbits
 2576               	.global	luaG_errormsg
 2577               		.hidden	luaG_errormsg
 2578               		.type	luaG_errormsg, @function
 2579               	luaG_errormsg:
 2580 0000 0F93      		push r16
 2581 0002 1F93      		push r17
 2582 0004 CF93      		push r28
 2583 0006 DF93      		push r29
 2584               	/* prologue: function */
 2585               	/* frame size = 0 */
 2586               	/* stack size = 4 */
 2587               	.L__stack_usage = 4
 2588 0008 EC01      		movw r28,r24
 2589 000a 89AD      		ldd r24,Y+57
 2590 000c 9AAD      		ldd r25,Y+58
 2591 000e 0097      		sbiw r24,0
 2592 0010 01F4      		brne .+2
 2593 0012 00C0      		rjmp .L287
 2594 0014 0989      		ldd r16,Y+17
 2595 0016 1A89      		ldd r17,Y+18
 2596 0018 080F      		add r16,r24
 2597 001a 191F      		adc r17,r25
 2598 001c F801      		movw r30,r16
 2599 001e 8481      		ldd r24,Z+4
 2600 0020 9581      		ldd r25,Z+5
 2601 0022 8830      		cpi r24,8
 2602 0024 9105      		cpc r25,__zero_reg__
 2603 0026 01F0      		breq .L288
 2604 0028 0397      		sbiw r24,3
 2605 002a 01F0      		breq .L288
 2606 002c 65E0      		ldi r22,lo8(5)
 2607 002e 70E0      		ldi r23,0
 2608 0030 CE01      		movw r24,r28
GAS LISTING /tmp/ccsHyliE.s 			page 47


 2609 0032 0E94 0000 		call luaD_throw
 2610               	.L288:
 2611 0036 2D81      		ldd r18,Y+5
 2612 0038 3E81      		ldd r19,Y+6
 2613 003a D901      		movw r26,r18
 2614 003c 1697      		sbiw r26,6
 2615 003e 4D91      		ld r20,X+
 2616 0040 5D91      		ld r21,X+
 2617 0042 6D91      		ld r22,X+
 2618 0044 7C91      		ld r23,X
 2619 0046 1397      		sbiw r26,3
 2620 0048 F901      		movw r30,r18
 2621 004a 4083      		st Z,r20
 2622 004c 5183      		std Z+1,r21
 2623 004e 6283      		std Z+2,r22
 2624 0050 7383      		std Z+3,r23
 2625 0052 1496      		adiw r26,4
 2626 0054 8D91      		ld r24,X+
 2627 0056 9C91      		ld r25,X
 2628 0058 1597      		sbiw r26,4+1
 2629 005a 9583      		std Z+5,r25
 2630 005c 8483      		std Z+4,r24
 2631 005e F801      		movw r30,r16
 2632 0060 4081      		ld r20,Z
 2633 0062 5181      		ldd r21,Z+1
 2634 0064 6281      		ldd r22,Z+2
 2635 0066 7381      		ldd r23,Z+3
 2636 0068 4D93      		st X+,r20
 2637 006a 5D93      		st X+,r21
 2638 006c 6D93      		st X+,r22
 2639 006e 7C93      		st X,r23
 2640 0070 1397      		sbiw r26,3
 2641 0072 8481      		ldd r24,Z+4
 2642 0074 9581      		ldd r25,Z+5
 2643 0076 1596      		adiw r26,4+1
 2644 0078 9C93      		st X,r25
 2645 007a 8E93      		st -X,r24
 2646 007c 1497      		sbiw r26,4
 2647 007e 8F85      		ldd r24,Y+15
 2648 0080 9889      		ldd r25,Y+16
 2649 0082 821B      		sub r24,r18
 2650 0084 930B      		sbc r25,r19
 2651 0086 0797      		sbiw r24,7
 2652 0088 04F4      		brge .L289
 2653 008a 61E0      		ldi r22,lo8(1)
 2654 008c 70E0      		ldi r23,0
 2655 008e CE01      		movw r24,r28
 2656 0090 0E94 0000 		call luaD_growstack
 2657               	.L289:
 2658 0094 6D81      		ldd r22,Y+5
 2659 0096 7E81      		ldd r23,Y+6
 2660 0098 CB01      		movw r24,r22
 2661 009a 0696      		adiw r24,6
 2662 009c 9E83      		std Y+6,r25
 2663 009e 8D83      		std Y+5,r24
 2664 00a0 6650      		subi r22,6
 2665 00a2 7109      		sbc r23,__zero_reg__
GAS LISTING /tmp/ccsHyliE.s 			page 48


 2666 00a4 41E0      		ldi r20,lo8(1)
 2667 00a6 50E0      		ldi r21,0
 2668 00a8 CE01      		movw r24,r28
 2669 00aa 0E94 0000 		call luaD_call
 2670               	.L287:
 2671 00ae 62E0      		ldi r22,lo8(2)
 2672 00b0 70E0      		ldi r23,0
 2673 00b2 CE01      		movw r24,r28
 2674               	/* epilogue start */
 2675 00b4 DF91      		pop r29
 2676 00b6 CF91      		pop r28
 2677 00b8 1F91      		pop r17
 2678 00ba 0F91      		pop r16
 2679 00bc 0C94 0000 		jmp luaD_throw
 2680               		.size	luaG_errormsg, .-luaG_errormsg
 2681               		.section	.rodata.str1.1
 2682               	.LC14:
 2683 0054 2573 3A25 		.string	"%s:%d: %s"
 2683      643A 2025 
 2683      7300 
 2684               		.section	.text.luaG_runerror,"ax",@progbits
 2685               	.global	luaG_runerror
 2686               		.hidden	luaG_runerror
 2687               		.type	luaG_runerror, @function
 2688               	luaG_runerror:
 2689 0000 AF92      		push r10
 2690 0002 BF92      		push r11
 2691 0004 CF92      		push r12
 2692 0006 DF92      		push r13
 2693 0008 EF92      		push r14
 2694 000a FF92      		push r15
 2695 000c 0F93      		push r16
 2696 000e 1F93      		push r17
 2697 0010 CF93      		push r28
 2698 0012 DF93      		push r29
 2699 0014 CDB7      		in r28,__SP_L__
 2700 0016 DEB7      		in r29,__SP_H__
 2701 0018 EC97      		sbiw r28,60
 2702 001a 0FB6      		in __tmp_reg__,__SREG__
 2703 001c F894      		cli
 2704 001e DEBF      		out __SP_H__,r29
 2705 0020 0FBE      		out __SREG__,__tmp_reg__
 2706 0022 CDBF      		out __SP_L__,r28
 2707               	/* prologue: function */
 2708               	/* frame size = 60 */
 2709               	/* stack size = 70 */
 2710               	.L__stack_usage = 70
 2711 0024 2C96      		adiw r28,74-62
 2712 0026 0EAD      		ldd r16,Y+62
 2713 0028 1FAD      		ldd r17,Y+63
 2714 002a 2C97      		sbiw r28,74-62
 2715 002c AE01      		movw r20,r28
 2716 002e 425B      		subi r20,-78
 2717 0030 5F4F      		sbci r21,-1
 2718 0032 2E96      		adiw r28,76-62
 2719 0034 6EAD      		ldd r22,Y+62
 2720 0036 7FAD      		ldd r23,Y+63
GAS LISTING /tmp/ccsHyliE.s 			page 49


 2721 0038 2E97      		sbiw r28,76-62
 2722 003a C801      		movw r24,r16
 2723 003c 0E94 0000 		call luaO_pushvfstring
 2724 0040 B82E      		mov r11,r24
 2725 0042 A92E      		mov r10,r25
 2726 0044 D801      		movw r26,r16
 2727 0046 1B96      		adiw r26,11
 2728 0048 ED90      		ld r14,X+
 2729 004a FC90      		ld r15,X
 2730 004c 1C97      		sbiw r26,11+1
 2731 004e D701      		movw r26,r14
 2732 0050 1296      		adiw r26,2
 2733 0052 ED91      		ld r30,X+
 2734 0054 FC91      		ld r31,X
 2735 0056 1397      		sbiw r26,2+1
 2736 0058 8481      		ldd r24,Z+4
 2737 005a 9581      		ldd r25,Z+5
 2738 005c 0897      		sbiw r24,8
 2739 005e 01F4      		brne .L300
 2740 0060 0190      		ld __tmp_reg__,Z+
 2741 0062 F081      		ld r31,Z
 2742 0064 E02D      		mov r30,__tmp_reg__
 2743 0066 8481      		ldd r24,Z+4
 2744 0068 8111      		cpse r24,__zero_reg__
 2745 006a 00C0      		rjmp .L300
 2746 006c B701      		movw r22,r14
 2747 006e C801      		movw r24,r16
 2748 0070 0E94 0000 		call currentline
 2749 0074 D82E      		mov r13,r24
 2750 0076 C92E      		mov r12,r25
 2751 0078 F701      		movw r30,r14
 2752 007a 8281      		ldd r24,Z+2
 2753 007c 9381      		ldd r25,Z+3
 2754 007e 0E94 0000 		call getluaproto.isra.0
 2755 0082 DC01      		movw r26,r24
 2756 0084 5096      		adiw r26,16
 2757 0086 6D91      		ld r22,X+
 2758 0088 7C91      		ld r23,X
 2759 008a 5197      		sbiw r26,16+1
 2760 008c 675F      		subi r22,-9
 2761 008e 7F4F      		sbci r23,-1
 2762 0090 4CE3      		ldi r20,lo8(60)
 2763 0092 50E0      		ldi r21,0
 2764 0094 FE01      		movw r30,r28
 2765 0096 3196      		adiw r30,1
 2766 0098 7F01      		movw r14,r30
 2767 009a CF01      		movw r24,r30
 2768 009c 0E94 0000 		call luaO_chunkid
 2769 00a0 AF92      		push r10
 2770 00a2 BF92      		push r11
 2771 00a4 CF92      		push r12
 2772 00a6 DF92      		push r13
 2773 00a8 FF92      		push r15
 2774 00aa EF92      		push r14
 2775 00ac 80E0      		ldi r24,lo8(.LC14)
 2776 00ae 90E0      		ldi r25,hi8(.LC14)
 2777 00b0 9F93      		push r25
GAS LISTING /tmp/ccsHyliE.s 			page 50


 2778 00b2 8F93      		push r24
 2779 00b4 1F93      		push r17
 2780 00b6 0F93      		push r16
 2781 00b8 0E94 0000 		call luaO_pushfstring
 2782 00bc 0FB6      		in __tmp_reg__,__SREG__
 2783 00be F894      		cli
 2784 00c0 DEBF      		out __SP_H__,r29
 2785 00c2 0FBE      		out __SREG__,__tmp_reg__
 2786 00c4 CDBF      		out __SP_L__,r28
 2787               	.L300:
 2788 00c6 C801      		movw r24,r16
 2789 00c8 0E94 0000 		call luaG_errormsg
 2790               	/* epilogue start */
 2791 00cc EC96      		adiw r28,60
 2792 00ce 0FB6      		in __tmp_reg__,__SREG__
 2793 00d0 F894      		cli
 2794 00d2 DEBF      		out __SP_H__,r29
 2795 00d4 0FBE      		out __SREG__,__tmp_reg__
 2796 00d6 CDBF      		out __SP_L__,r28
 2797 00d8 DF91      		pop r29
 2798 00da CF91      		pop r28
 2799 00dc 1F91      		pop r17
 2800 00de 0F91      		pop r16
 2801 00e0 FF90      		pop r15
 2802 00e2 EF90      		pop r14
 2803 00e4 DF90      		pop r13
 2804 00e6 CF90      		pop r12
 2805 00e8 BF90      		pop r11
 2806 00ea AF90      		pop r10
 2807 00ec 0895      		ret
 2808               		.size	luaG_runerror, .-luaG_runerror
 2809               		.section	.rodata.str1.1
 2810               	.LC15:
 2811 005e 6174 7465 		.string	"attempt to %s %s '%s' (a %s value)"
 2811      6D70 7420 
 2811      746F 2025 
 2811      7320 2573 
 2811      2027 2573 
 2812               	.LC16:
 2813 0081 6174 7465 		.string	"attempt to %s a %s value"
 2813      6D70 7420 
 2813      746F 2025 
 2813      7320 6120 
 2813      2573 2076 
 2814               		.section	.text.luaG_typeerror,"ax",@progbits
 2815               	.global	luaG_typeerror
 2816               		.hidden	luaG_typeerror
 2817               		.type	luaG_typeerror, @function
 2818               	luaG_typeerror:
 2819 0000 CF92      		push r12
 2820 0002 DF92      		push r13
 2821 0004 EF92      		push r14
 2822 0006 FF92      		push r15
 2823 0008 0F93      		push r16
 2824 000a 1F93      		push r17
 2825 000c CF93      		push r28
 2826 000e DF93      		push r29
GAS LISTING /tmp/ccsHyliE.s 			page 51


 2827 0010 1F92      		push __zero_reg__
 2828 0012 1F92      		push __zero_reg__
 2829 0014 CDB7      		in r28,__SP_L__
 2830 0016 DEB7      		in r29,__SP_H__
 2831               	/* prologue: function */
 2832               	/* frame size = 2 */
 2833               	/* stack size = 10 */
 2834               	.L__stack_usage = 10
 2835 0018 8C01      		movw r16,r24
 2836 001a FB01      		movw r30,r22
 2837 001c F42E      		mov r15,r20
 2838 001e E52E      		mov r14,r21
 2839 0020 1A82      		std Y+2,__zero_reg__
 2840 0022 1982      		std Y+1,__zero_reg__
 2841 0024 A481      		ldd r26,Z+4
 2842 0026 B581      		ldd r27,Z+5
 2843 0028 AA0F      		lsl r26
 2844 002a BB1F      		rol r27
 2845 002c A050      		subi r26,lo8(-(luaT_typenames))
 2846 002e B040      		sbci r27,hi8(-(luaT_typenames))
 2847 0030 DC90      		ld r13,X
 2848 0032 1196      		adiw r26,1
 2849 0034 CC90      		ld r12,X
 2850 0036 D801      		movw r26,r16
 2851 0038 1B96      		adiw r26,11
 2852 003a 6D91      		ld r22,X+
 2853 003c 7C91      		ld r23,X
 2854 003e 1C97      		sbiw r26,11+1
 2855 0040 DB01      		movw r26,r22
 2856 0042 8D91      		ld r24,X+
 2857 0044 9C91      		ld r25,X
 2858 0046 1197      		sbiw r26,1
 2859 0048 1496      		adiw r26,4
 2860 004a 2D91      		ld r18,X+
 2861 004c 3C91      		ld r19,X
 2862 004e 1597      		sbiw r26,4+1
 2863               	.L302:
 2864 0050 8217      		cp r24,r18
 2865 0052 9307      		cpc r25,r19
 2866 0054 00F4      		brsh .L305
 2867 0056 E817      		cp r30,r24
 2868 0058 F907      		cpc r31,r25
 2869 005a 01F0      		breq .L303
 2870 005c 0696      		adiw r24,6
 2871 005e 00C0      		rjmp .L302
 2872               	.L305:
 2873 0060 CF92      		push r12
 2874 0062 DF92      		push r13
 2875 0064 EF92      		push r14
 2876 0066 FF92      		push r15
 2877 0068 80E0      		ldi r24,lo8(.LC16)
 2878 006a 90E0      		ldi r25,hi8(.LC16)
 2879 006c 9F93      		push r25
 2880 006e 8F93      		push r24
 2881 0070 1F93      		push r17
 2882 0072 0F93      		push r16
 2883 0074 0E94 0000 		call luaG_runerror
GAS LISTING /tmp/ccsHyliE.s 			page 52


 2884               	.L308:
 2885 0078 0FB6      		in __tmp_reg__,__SREG__
 2886 007a F894      		cli
 2887 007c DEBF      		out __SP_H__,r29
 2888 007e 0FBE      		out __SREG__,__tmp_reg__
 2889 0080 CDBF      		out __SP_L__,r28
 2890               	/* epilogue start */
 2891 0082 0F90      		pop __tmp_reg__
 2892 0084 0F90      		pop __tmp_reg__
 2893 0086 DF91      		pop r29
 2894 0088 CF91      		pop r28
 2895 008a 1F91      		pop r17
 2896 008c 0F91      		pop r16
 2897 008e FF90      		pop r15
 2898 0090 EF90      		pop r14
 2899 0092 DF90      		pop r13
 2900 0094 CF90      		pop r12
 2901 0096 0895      		ret
 2902               	.L303:
 2903 0098 D801      		movw r26,r16
 2904 009a 1796      		adiw r26,7
 2905 009c 8D91      		ld r24,X+
 2906 009e 9C91      		ld r25,X
 2907 00a0 1897      		sbiw r26,7+1
 2908 00a2 E81B      		sub r30,r24
 2909 00a4 F90B      		sbc r31,r25
 2910 00a6 F595      		asr r31
 2911 00a8 E795      		ror r30
 2912 00aa 8BEA      		ldi r24,lo8(-85)
 2913 00ac 9AEA      		ldi r25,lo8(-86)
 2914 00ae E89F      		mul r30,r24
 2915 00b0 A001      		movw r20,r0
 2916 00b2 E99F      		mul r30,r25
 2917 00b4 500D      		add r21,r0
 2918 00b6 F89F      		mul r31,r24
 2919 00b8 500D      		add r21,r0
 2920 00ba 1124      		clr r1
 2921 00bc 9E01      		movw r18,r28
 2922 00be 2F5F      		subi r18,-1
 2923 00c0 3F4F      		sbci r19,-1
 2924 00c2 C801      		movw r24,r16
 2925 00c4 0E94 0000 		call getobjname
 2926 00c8 0097      		sbiw r24,0
 2927 00ca 01F0      		breq .L305
 2928 00cc CF92      		push r12
 2929 00ce DF92      		push r13
 2930 00d0 2A81      		ldd r18,Y+2
 2931 00d2 2F93      		push r18
 2932 00d4 2981      		ldd r18,Y+1
 2933 00d6 2F93      		push r18
 2934 00d8 9F93      		push r25
 2935 00da 8F93      		push r24
 2936 00dc EF92      		push r14
 2937 00de FF92      		push r15
 2938 00e0 80E0      		ldi r24,lo8(.LC15)
 2939 00e2 90E0      		ldi r25,hi8(.LC15)
 2940 00e4 9F93      		push r25
GAS LISTING /tmp/ccsHyliE.s 			page 53


 2941 00e6 8F93      		push r24
 2942 00e8 1F93      		push r17
 2943 00ea 0F93      		push r16
 2944 00ec 0E94 0000 		call luaG_runerror
 2945 00f0 00C0      		rjmp .L308
 2946               		.size	luaG_typeerror, .-luaG_typeerror
 2947               		.section	.rodata.str1.1
 2948               	.LC17:
 2949 009a 636F 6E63 		.string	"concatenate"
 2949      6174 656E 
 2949      6174 6500 
 2950               		.section	.text.luaG_concaterror,"ax",@progbits
 2951               	.global	luaG_concaterror
 2952               		.hidden	luaG_concaterror
 2953               		.type	luaG_concaterror, @function
 2954               	luaG_concaterror:
 2955               	/* prologue: function */
 2956               	/* frame size = 0 */
 2957               	/* stack size = 0 */
 2958               	.L__stack_usage = 0
 2959 0000 FB01      		movw r30,r22
 2960 0002 2481      		ldd r18,Z+4
 2961 0004 3581      		ldd r19,Z+5
 2962 0006 2550      		subi r18,5
 2963 0008 3109      		sbc r19,__zero_reg__
 2964 000a 2230      		cpi r18,2
 2965 000c 3105      		cpc r19,__zero_reg__
 2966 000e 00F4      		brsh .L310
 2967 0010 BA01      		movw r22,r20
 2968               	.L310:
 2969 0012 40E0      		ldi r20,lo8(.LC17)
 2970 0014 50E0      		ldi r21,hi8(.LC17)
 2971 0016 0C94 0000 		jmp luaG_typeerror
 2972               		.size	luaG_concaterror, .-luaG_concaterror
 2973               		.section	.rodata.str1.1
 2974               	.LC18:
 2975 00a6 7065 7266 		.string	"perform arithmetic on"
 2975      6F72 6D20 
 2975      6172 6974 
 2975      686D 6574 
 2975      6963 206F 
 2976               		.section	.text.luaG_aritherror,"ax",@progbits
 2977               	.global	luaG_aritherror
 2978               		.hidden	luaG_aritherror
 2979               		.type	luaG_aritherror, @function
 2980               	luaG_aritherror:
 2981 0000 CF92      		push r12
 2982 0002 DF92      		push r13
 2983 0004 EF92      		push r14
 2984 0006 FF92      		push r15
 2985 0008 0F93      		push r16
 2986 000a 1F93      		push r17
 2987 000c CF93      		push r28
 2988 000e DF93      		push r29
 2989 0010 00D0      		rcall .
 2990 0012 00D0      		rcall .
 2991 0014 CDB7      		in r28,__SP_L__
GAS LISTING /tmp/ccsHyliE.s 			page 54


 2992 0016 DEB7      		in r29,__SP_H__
 2993               	/* prologue: function */
 2994               	/* frame size = 6 */
 2995               	/* stack size = 14 */
 2996               	.L__stack_usage = 14
 2997 0018 6C01      		movw r12,r24
 2998 001a 7B01      		movw r14,r22
 2999 001c 8A01      		movw r16,r20
 3000 001e BE01      		movw r22,r28
 3001 0020 6F5F      		subi r22,-1
 3002 0022 7F4F      		sbci r23,-1
 3003 0024 C701      		movw r24,r14
 3004 0026 0E94 0000 		call luaV_tonumber
 3005 002a 892B      		or r24,r25
 3006 002c 01F4      		brne .L312
 3007 002e 8701      		movw r16,r14
 3008               	.L312:
 3009 0030 40E0      		ldi r20,lo8(.LC18)
 3010 0032 50E0      		ldi r21,hi8(.LC18)
 3011 0034 B801      		movw r22,r16
 3012 0036 C601      		movw r24,r12
 3013 0038 0E94 0000 		call luaG_typeerror
 3014               	/* epilogue start */
 3015 003c 2696      		adiw r28,6
 3016 003e 0FB6      		in __tmp_reg__,__SREG__
 3017 0040 F894      		cli
 3018 0042 DEBF      		out __SP_H__,r29
 3019 0044 0FBE      		out __SREG__,__tmp_reg__
 3020 0046 CDBF      		out __SP_L__,r28
 3021 0048 DF91      		pop r29
 3022 004a CF91      		pop r28
 3023 004c 1F91      		pop r17
 3024 004e 0F91      		pop r16
 3025 0050 FF90      		pop r15
 3026 0052 EF90      		pop r14
 3027 0054 DF90      		pop r13
 3028 0056 CF90      		pop r12
 3029 0058 0895      		ret
 3030               		.size	luaG_aritherror, .-luaG_aritherror
 3031               		.section	.rodata.str1.1
 3032               	.LC19:
 3033 00bc 6174 7465 		.string	"attempt to compare two %s values"
 3033      6D70 7420 
 3033      746F 2063 
 3033      6F6D 7061 
 3033      7265 2074 
 3034               	.LC20:
 3035 00dd 6174 7465 		.string	"attempt to compare %s with %s"
 3035      6D70 7420 
 3035      746F 2063 
 3035      6F6D 7061 
 3035      7265 2025 
 3036               		.section	.text.luaG_ordererror,"ax",@progbits
 3037               	.global	luaG_ordererror
 3038               		.hidden	luaG_ordererror
 3039               		.type	luaG_ordererror, @function
 3040               	luaG_ordererror:
GAS LISTING /tmp/ccsHyliE.s 			page 55


 3041 0000 CF93      		push r28
 3042 0002 DF93      		push r29
 3043               	/* prologue: function */
 3044               	/* frame size = 0 */
 3045               	/* stack size = 2 */
 3046               	.L__stack_usage = 2
 3047 0004 DB01      		movw r26,r22
 3048 0006 1496      		adiw r26,4
 3049 0008 ED91      		ld r30,X+
 3050 000a FC91      		ld r31,X
 3051 000c 1597      		sbiw r26,4+1
 3052 000e EE0F      		lsl r30
 3053 0010 FF1F      		rol r31
 3054 0012 E050      		subi r30,lo8(-(luaT_typenames))
 3055 0014 F040      		sbci r31,hi8(-(luaT_typenames))
 3056 0016 0190      		ld __tmp_reg__,Z+
 3057 0018 F081      		ld r31,Z
 3058 001a E02D      		mov r30,__tmp_reg__
 3059 001c EA01      		movw r28,r20
 3060 001e AC81      		ldd r26,Y+4
 3061 0020 BD81      		ldd r27,Y+5
 3062 0022 AA0F      		lsl r26
 3063 0024 BB1F      		rol r27
 3064 0026 A050      		subi r26,lo8(-(luaT_typenames))
 3065 0028 B040      		sbci r27,hi8(-(luaT_typenames))
 3066 002a 0D90      		ld __tmp_reg__,X+
 3067 002c BC91      		ld r27,X
 3068 002e A02D      		mov r26,__tmp_reg__
 3069 0030 3281      		ldd r19,Z+2
 3070 0032 1296      		adiw r26,2
 3071 0034 2C91      		ld r18,X
 3072 0036 1297      		sbiw r26,2
 3073 0038 3213      		cpse r19,r18
 3074 003a 00C0      		rjmp .L314
 3075 003c FF93      		push r31
 3076 003e EF93      		push r30
 3077 0040 20E0      		ldi r18,lo8(.LC19)
 3078 0042 30E0      		ldi r19,hi8(.LC19)
 3079 0044 3F93      		push r19
 3080 0046 2F93      		push r18
 3081 0048 9F93      		push r25
 3082 004a 8F93      		push r24
 3083 004c 0E94 0000 		call luaG_runerror
 3084 0050 0F90      		pop __tmp_reg__
 3085 0052 0F90      		pop __tmp_reg__
 3086 0054 0F90      		pop __tmp_reg__
 3087 0056 0F90      		pop __tmp_reg__
 3088 0058 0F90      		pop __tmp_reg__
 3089 005a 0F90      		pop __tmp_reg__
 3090 005c 00C0      		rjmp .L315
 3091               	.L314:
 3092 005e BF93      		push r27
 3093 0060 AF93      		push r26
 3094 0062 FF93      		push r31
 3095 0064 EF93      		push r30
 3096 0066 20E0      		ldi r18,lo8(.LC20)
 3097 0068 30E0      		ldi r19,hi8(.LC20)
GAS LISTING /tmp/ccsHyliE.s 			page 56


 3098 006a 3F93      		push r19
 3099 006c 2F93      		push r18
 3100 006e 9F93      		push r25
 3101 0070 8F93      		push r24
 3102 0072 0E94 0000 		call luaG_runerror
 3103 0076 8DB7      		in r24,__SP_L__
 3104 0078 9EB7      		in r25,__SP_H__
 3105 007a 0896      		adiw r24,8
 3106 007c 0FB6      		in __tmp_reg__,__SREG__
 3107 007e F894      		cli
 3108 0080 9EBF      		out __SP_H__,r25
 3109 0082 0FBE      		out __SREG__,__tmp_reg__
 3110 0084 8DBF      		out __SP_L__,r24
 3111               	.L315:
 3112 0086 80E0      		ldi r24,0
 3113 0088 90E0      		ldi r25,0
 3114               	/* epilogue start */
 3115 008a DF91      		pop r29
 3116 008c CF91      		pop r28
 3117 008e 0895      		ret
 3118               		.size	luaG_ordererror, .-luaG_ordererror
 3119               		.hidden	luaV_tonumber
 3120               		.hidden	luaT_typenames
 3121               		.hidden	luaO_pushfstring
 3122               		.hidden	luaO_pushvfstring
 3123               		.hidden	luaD_call
 3124               		.hidden	luaD_throw
 3125               		.hidden	luaH_setnum
 3126               		.hidden	luaH_new
 3127               		.hidden	luaD_growstack
 3128               		.hidden	luaO_chunkid
 3129               		.hidden	luaP_opmodes
 3130               		.hidden	luaA_pushobject
 3131               		.hidden	luaF_getlocalname
 3132               		.ident	"GCC: (GNU) 5.3.0"
 3133               	.global __do_copy_data
GAS LISTING /tmp/ccsHyliE.s 			page 57


DEFINED SYMBOLS
                            *ABS*:0000000000000000 ldebug.c
     /tmp/ccsHyliE.s:2      *ABS*:000000000000003e __SP_H__
     /tmp/ccsHyliE.s:3      *ABS*:000000000000003d __SP_L__
     /tmp/ccsHyliE.s:4      *ABS*:000000000000003f __SREG__
     /tmp/ccsHyliE.s:5      *ABS*:000000000000003b __RAMPZ__
     /tmp/ccsHyliE.s:6      *ABS*:0000000000000000 __tmp_reg__
     /tmp/ccsHyliE.s:7      *ABS*:0000000000000001 __zero_reg__
     /tmp/ccsHyliE.s:10     .text.currentpc:0000000000000000 currentpc
     /tmp/ccsHyliE.s:75     .text.currentline:0000000000000000 currentline
     /tmp/ccsHyliE.s:149    .text.checkArgMode:0000000000000000 checkArgMode
     /tmp/ccsHyliE.s:211    .text.getluaproto.isra.0:0000000000000000 getluaproto.isra.0
     /tmp/ccsHyliE.s:242    .text.findlocal:0000000000000000 findlocal
     /tmp/ccsHyliE.s:332    .text.lua_sethook:0000000000000000 lua_sethook
     /tmp/ccsHyliE.s:365    .text.lua_gethook:0000000000000000 lua_gethook
     /tmp/ccsHyliE.s:378    .text.lua_gethookmask:0000000000000000 lua_gethookmask
     /tmp/ccsHyliE.s:391    .text.lua_gethookcount:0000000000000000 lua_gethookcount
     /tmp/ccsHyliE.s:404    .text.lua_getstack:0000000000000000 lua_getstack
     /tmp/ccsHyliE.s:514    .text.lua_getlocal:0000000000000000 lua_getlocal
     /tmp/ccsHyliE.s:582    .text.lua_setlocal:0000000000000000 lua_setlocal
     /tmp/ccsHyliE.s:665    .text.luaG_checkopenop:0000000000000000 luaG_checkopenop
     /tmp/ccsHyliE.s:707    .text.symbexec:0000000000000000 symbexec
     /tmp/ccsHyliE.s:1547   .text.getobjname:0000000000000000 getobjname
     /tmp/ccsHyliE.s:1875   .text.lua_getinfo:0000000000000000 lua_getinfo
     /tmp/ccsHyliE.s:2552   .text.luaG_checkcode:0000000000000000 luaG_checkcode
     /tmp/ccsHyliE.s:2579   .text.luaG_errormsg:0000000000000000 luaG_errormsg
     /tmp/ccsHyliE.s:2688   .text.luaG_runerror:0000000000000000 luaG_runerror
     /tmp/ccsHyliE.s:2818   .text.luaG_typeerror:0000000000000000 luaG_typeerror
     /tmp/ccsHyliE.s:2954   .text.luaG_concaterror:0000000000000000 luaG_concaterror
     /tmp/ccsHyliE.s:2980   .text.luaG_aritherror:0000000000000000 luaG_aritherror
     /tmp/ccsHyliE.s:3040   .text.luaG_ordererror:0000000000000000 luaG_ordererror

UNDEFINED SYMBOLS
luaF_getlocalname
luaA_pushobject
luaP_opmodes
__tablejump2__
luaO_chunkid
strchr
luaD_growstack
luaH_new
luaH_setnum
luaD_throw
luaD_call
luaO_pushvfstring
luaO_pushfstring
luaT_typenames
luaV_tonumber
__do_copy_data
