GAS LISTING /tmp/ccmC0whv.s 			page 1


   1               		.file	"ldo.c"
   2               	__SP_H__ = 0x3e
   3               	__SP_L__ = 0x3d
   4               	__SREG__ = 0x3f
   5               	__RAMPZ__ = 0x3b
   6               	__tmp_reg__ = 0
   7               	__zero_reg__ = 1
   8               		.section	.rodata.str1.1,"aMS",@progbits,1
   9               	.LC0:
  10 0000 6E6F 7420 		.string	"not enough memory"
  10      656E 6F75 
  10      6768 206D 
  10      656D 6F72 
  10      7900 
  11               	.LC1:
  12 0012 6572 726F 		.string	"error in error handling"
  12      7220 696E 
  12      2065 7272 
  12      6F72 2068 
  12      616E 646C 
  13               		.section	.text.luaD_seterrorobj,"ax",@progbits
  14               	.global	luaD_seterrorobj
  15               		.hidden	luaD_seterrorobj
  16               		.type	luaD_seterrorobj, @function
  17               	luaD_seterrorobj:
  18 0000 0F93      		push r16
  19 0002 1F93      		push r17
  20 0004 CF93      		push r28
  21 0006 DF93      		push r29
  22               	/* prologue: function */
  23               	/* frame size = 0 */
  24               	/* stack size = 4 */
  25               	.L__stack_usage = 4
  26 0008 8C01      		movw r16,r24
  27 000a EA01      		movw r28,r20
  28 000c 6430      		cpi r22,4
  29 000e 7105      		cpc r23,__zero_reg__
  30 0010 01F0      		breq .L3
  31 0012 04F4      		brge .L4
  32 0014 6230      		cpi r22,2
  33 0016 7105      		cpc r23,__zero_reg__
  34 0018 04F0      		brlt .L2
  35 001a DC01      		movw r26,r24
  36 001c 1596      		adiw r26,5
  37 001e ED91      		ld r30,X+
  38 0020 FC91      		ld r31,X
  39 0022 1697      		sbiw r26,5+1
  40 0024 3697      		sbiw r30,6
  41 0026 8081      		ld r24,Z
  42 0028 9181      		ldd r25,Z+1
  43 002a A281      		ldd r26,Z+2
  44 002c B381      		ldd r27,Z+3
  45 002e 8883      		st Y,r24
  46 0030 9983      		std Y+1,r25
  47 0032 AA83      		std Y+2,r26
  48 0034 BB83      		std Y+3,r27
  49 0036 8481      		ldd r24,Z+4
GAS LISTING /tmp/ccmC0whv.s 			page 2


  50 0038 9581      		ldd r25,Z+5
  51 003a 00C0      		rjmp .L8
  52               	.L4:
  53 003c 6530      		cpi r22,5
  54 003e 7105      		cpc r23,__zero_reg__
  55 0040 01F4      		brne .L2
  56 0042 47E1      		ldi r20,lo8(23)
  57 0044 50E0      		ldi r21,0
  58 0046 60E0      		ldi r22,lo8(.LC1)
  59 0048 70E0      		ldi r23,hi8(.LC1)
  60 004a 00C0      		rjmp .L9
  61               	.L3:
  62 004c 41E1      		ldi r20,lo8(17)
  63 004e 50E0      		ldi r21,0
  64 0050 60E0      		ldi r22,lo8(.LC0)
  65 0052 70E0      		ldi r23,hi8(.LC0)
  66               	.L9:
  67 0054 C801      		movw r24,r16
  68 0056 0E94 0000 		call luaS_newlstr
  69 005a 9983      		std Y+1,r25
  70 005c 8883      		st Y,r24
  71 005e 86E0      		ldi r24,lo8(6)
  72 0060 90E0      		ldi r25,0
  73               	.L8:
  74 0062 9D83      		std Y+5,r25
  75 0064 8C83      		std Y+4,r24
  76               	.L2:
  77 0066 2696      		adiw r28,6
  78 0068 F801      		movw r30,r16
  79 006a D683      		std Z+6,r29
  80 006c C583      		std Z+5,r28
  81               	/* epilogue start */
  82 006e DF91      		pop r29
  83 0070 CF91      		pop r28
  84 0072 1F91      		pop r17
  85 0074 0F91      		pop r16
  86 0076 0895      		ret
  87               		.size	luaD_seterrorobj, .-luaD_seterrorobj
  88               		.section	.text.luaD_rawrunprotected,"ax",@progbits
  89               	.global	luaD_rawrunprotected
  90               		.hidden	luaD_rawrunprotected
  91               		.type	luaD_rawrunprotected, @function
  92               	luaD_rawrunprotected:
  93 0000 CF93      		push r28
  94 0002 DF93      		push r29
  95 0004 CDB7      		in r28,__SP_L__
  96 0006 DEB7      		in r29,__SP_H__
  97 0008 A297      		sbiw r28,34
  98 000a 0FB6      		in __tmp_reg__,__SREG__
  99 000c F894      		cli
 100 000e DEBF      		out __SP_H__,r29
 101 0010 0FBE      		out __SREG__,__tmp_reg__
 102 0012 CDBF      		out __SP_L__,r28
 103               	/* prologue: function */
 104               	/* frame size = 34 */
 105               	/* stack size = 36 */
 106               	.L__stack_usage = 36
GAS LISTING /tmp/ccmC0whv.s 			page 3


 107 0014 9E8F      		std Y+30,r25
 108 0016 8D8F      		std Y+29,r24
 109 0018 78A3      		std Y+32,r23
 110 001a 6F8F      		std Y+31,r22
 111 001c 5AA3      		std Y+34,r21
 112 001e 49A3      		std Y+33,r20
 113 0020 1C8E      		std Y+28,__zero_reg__
 114 0022 1B8E      		std Y+27,__zero_reg__
 115 0024 FC01      		movw r30,r24
 116 0026 87A9      		ldd r24,Z+55
 117 0028 90AD      		ldd r25,Z+56
 118 002a 9A83      		std Y+2,r25
 119 002c 8983      		std Y+1,r24
 120 002e CE01      		movw r24,r28
 121 0030 0196      		adiw r24,1
 122 0032 90AF      		std Z+56,r25
 123 0034 87AB      		std Z+55,r24
 124 0036 0296      		adiw r24,2
 125 0038 0E94 0000 		call setjmp
 126 003c 892B      		or r24,r25
 127 003e 01F0      		breq .L12
 128               	.L13:
 129 0040 8981      		ldd r24,Y+1
 130 0042 9A81      		ldd r25,Y+2
 131 0044 ED8D      		ldd r30,Y+29
 132 0046 FE8D      		ldd r31,Y+30
 133 0048 90AF      		std Z+56,r25
 134 004a 87AB      		std Z+55,r24
 135 004c 8B8D      		ldd r24,Y+27
 136 004e 9C8D      		ldd r25,Y+28
 137               	/* epilogue start */
 138 0050 A296      		adiw r28,34
 139 0052 0FB6      		in __tmp_reg__,__SREG__
 140 0054 F894      		cli
 141 0056 DEBF      		out __SP_H__,r29
 142 0058 0FBE      		out __SREG__,__tmp_reg__
 143 005a CDBF      		out __SP_L__,r28
 144 005c DF91      		pop r29
 145 005e CF91      		pop r28
 146 0060 0895      		ret
 147               	.L12:
 148 0062 69A1      		ldd r22,Y+33
 149 0064 7AA1      		ldd r23,Y+34
 150 0066 8D8D      		ldd r24,Y+29
 151 0068 9E8D      		ldd r25,Y+30
 152 006a EF8D      		ldd r30,Y+31
 153 006c F8A1      		ldd r31,Y+32
 154 006e 1995      		eicall
 155 0070 00C0      		rjmp .L13
 156               		.size	luaD_rawrunprotected, .-luaD_rawrunprotected
 157               		.section	.text.luaD_reallocstack,"ax",@progbits
 158               	.global	luaD_reallocstack
 159               		.hidden	luaD_reallocstack
 160               		.type	luaD_reallocstack, @function
 161               	luaD_reallocstack:
 162 0000 CF92      		push r12
 163 0002 DF92      		push r13
GAS LISTING /tmp/ccmC0whv.s 			page 4


 164 0004 EF92      		push r14
 165 0006 FF92      		push r15
 166 0008 0F93      		push r16
 167 000a 1F93      		push r17
 168 000c CF93      		push r28
 169 000e DF93      		push r29
 170               	/* prologue: function */
 171               	/* frame size = 0 */
 172               	/* stack size = 8 */
 173               	.L__stack_usage = 8
 174 0010 EC01      		movw r28,r24
 175 0012 7B01      		movw r14,r22
 176 0014 0989      		ldd r16,Y+17
 177 0016 1A89      		ldd r17,Y+18
 178 0018 6B01      		movw r12,r22
 179 001a 26E0      		ldi r18,6
 180 001c C20E      		add r12,r18
 181 001e D11C      		adc r13,__zero_reg__
 182 0020 CB01      		movw r24,r22
 183 0022 0796      		adiw r24,7
 184 0024 8B3A      		cpi r24,-85
 185 0026 9A42      		sbci r25,42
 186 0028 00F4      		brsh .L16
 187 002a 86E0      		ldi r24,lo8(6)
 188 002c 8C9D      		mul r24,r12
 189 002e 9001      		movw r18,r0
 190 0030 8D9D      		mul r24,r13
 191 0032 300D      		add r19,r0
 192 0034 1124      		clr __zero_reg__
 193 0036 6F89      		ldd r22,Y+23
 194 0038 788D      		ldd r23,Y+24
 195 003a 869F      		mul r24,r22
 196 003c A001      		movw r20,r0
 197 003e 879F      		mul r24,r23
 198 0040 500D      		add r21,r0
 199 0042 1124      		clr __zero_reg__
 200 0044 B801      		movw r22,r16
 201 0046 CE01      		movw r24,r28
 202 0048 0E94 0000 		call luaM_realloc_
 203 004c 00C0      		rjmp .L17
 204               	.L16:
 205 004e CE01      		movw r24,r28
 206 0050 0E94 0000 		call luaM_toobig
 207               	.L17:
 208 0054 9A8B      		std Y+18,r25
 209 0056 898B      		std Y+17,r24
 210 0058 D88E      		std Y+24,r13
 211 005a CF8A      		std Y+23,r12
 212 005c 46E0      		ldi r20,lo8(6)
 213 005e 4E9D      		mul r20,r14
 214 0060 9001      		movw r18,r0
 215 0062 4F9D      		mul r20,r15
 216 0064 300D      		add r19,r0
 217 0066 1124      		clr __zero_reg__
 218 0068 280F      		add r18,r24
 219 006a 391F      		adc r19,r25
 220 006c 388B      		std Y+16,r19
GAS LISTING /tmp/ccmC0whv.s 			page 5


 221 006e 2F87      		std Y+15,r18
 222 0070 2D81      		ldd r18,Y+5
 223 0072 3E81      		ldd r19,Y+6
 224 0074 201B      		sub r18,r16
 225 0076 310B      		sbc r19,r17
 226 0078 820F      		add r24,r18
 227 007a 931F      		adc r25,r19
 228 007c 9E83      		std Y+6,r25
 229 007e 8D83      		std Y+5,r24
 230 0080 EBA9      		ldd r30,Y+51
 231 0082 FCA9      		ldd r31,Y+52
 232               	.L18:
 233 0084 3097      		sbiw r30,0
 234 0086 01F0      		breq .L22
 235 0088 8481      		ldd r24,Z+4
 236 008a 9581      		ldd r25,Z+5
 237 008c 801B      		sub r24,r16
 238 008e 910B      		sbc r25,r17
 239 0090 2989      		ldd r18,Y+17
 240 0092 3A89      		ldd r19,Y+18
 241 0094 820F      		add r24,r18
 242 0096 931F      		adc r25,r19
 243 0098 9583      		std Z+5,r25
 244 009a 8483      		std Z+4,r24
 245 009c 0190      		ld __tmp_reg__,Z+
 246 009e F081      		ld r31,Z
 247 00a0 E02D      		mov r30,__tmp_reg__
 248 00a2 00C0      		rjmp .L18
 249               	.L22:
 250 00a4 ED89      		ldd r30,Y+21
 251 00a6 FE89      		ldd r31,Y+22
 252 00a8 4B85      		ldd r20,Y+11
 253 00aa 5C85      		ldd r21,Y+12
 254 00ac 7F01      		movw r14,r30
 255 00ae B4E0      		ldi r27,4
 256 00b0 EB0E      		add r14,r27
 257 00b2 F11C      		adc r15,__zero_reg__
 258               	.L20:
 259 00b4 8989      		ldd r24,Y+17
 260 00b6 9A89      		ldd r25,Y+18
 261 00b8 4E17      		cp r20,r30
 262 00ba 5F07      		cpc r21,r31
 263 00bc 00F0      		brlo .L23
 264 00be D701      		movw r26,r14
 265 00c0 2D91      		ld r18,X+
 266 00c2 3C91      		ld r19,X
 267 00c4 1197      		sbiw r26,1
 268 00c6 201B      		sub r18,r16
 269 00c8 310B      		sbc r19,r17
 270 00ca 280F      		add r18,r24
 271 00cc 391F      		adc r19,r25
 272 00ce 1196      		adiw r26,1
 273 00d0 3C93      		st X,r19
 274 00d2 2E93      		st -X,r18
 275 00d4 2081      		ld r18,Z
 276 00d6 3181      		ldd r19,Z+1
 277 00d8 201B      		sub r18,r16
GAS LISTING /tmp/ccmC0whv.s 			page 6


 278 00da 310B      		sbc r19,r17
 279 00dc 280F      		add r18,r24
 280 00de 391F      		adc r19,r25
 281 00e0 3183      		std Z+1,r19
 282 00e2 2083      		st Z,r18
 283 00e4 3E91      		ld r19,-X
 284 00e6 2E91      		ld r18,-X
 285 00e8 201B      		sub r18,r16
 286 00ea 310B      		sbc r19,r17
 287 00ec 820F      		add r24,r18
 288 00ee 931F      		adc r25,r19
 289 00f0 8D93      		st X+,r24
 290 00f2 9C93      		st X,r25
 291 00f4 3C96      		adiw r30,12
 292 00f6 BCE0      		ldi r27,12
 293 00f8 EB0E      		add r14,r27
 294 00fa F11C      		adc r15,__zero_reg__
 295 00fc 00C0      		rjmp .L20
 296               	.L23:
 297 00fe 2F81      		ldd r18,Y+7
 298 0100 3885      		ldd r19,Y+8
 299 0102 201B      		sub r18,r16
 300 0104 310B      		sbc r19,r17
 301 0106 820F      		add r24,r18
 302 0108 931F      		adc r25,r19
 303 010a 9887      		std Y+8,r25
 304 010c 8F83      		std Y+7,r24
 305               	/* epilogue start */
 306 010e DF91      		pop r29
 307 0110 CF91      		pop r28
 308 0112 1F91      		pop r17
 309 0114 0F91      		pop r16
 310 0116 FF90      		pop r15
 311 0118 EF90      		pop r14
 312 011a DF90      		pop r13
 313 011c CF90      		pop r12
 314 011e 0895      		ret
 315               		.size	luaD_reallocstack, .-luaD_reallocstack
 316               		.section	.text.luaD_reallocCI,"ax",@progbits
 317               	.global	luaD_reallocCI
 318               		.hidden	luaD_reallocCI
 319               		.type	luaD_reallocCI, @function
 320               	luaD_reallocCI:
 321 0000 EF92      		push r14
 322 0002 FF92      		push r15
 323 0004 0F93      		push r16
 324 0006 1F93      		push r17
 325 0008 CF93      		push r28
 326 000a DF93      		push r29
 327               	/* prologue: function */
 328               	/* frame size = 0 */
 329               	/* stack size = 6 */
 330               	.L__stack_usage = 6
 331 000c EC01      		movw r28,r24
 332 000e 8B01      		movw r16,r22
 333 0010 ED88      		ldd r14,Y+21
 334 0012 FE88      		ldd r15,Y+22
GAS LISTING /tmp/ccmC0whv.s 			page 7


 335 0014 CB01      		movw r24,r22
 336 0016 0196      		adiw r24,1
 337 0018 8635      		cpi r24,86
 338 001a 9541      		sbci r25,21
 339 001c 00F4      		brsh .L25
 340 001e 8CE0      		ldi r24,lo8(12)
 341 0020 869F      		mul r24,r22
 342 0022 9001      		movw r18,r0
 343 0024 879F      		mul r24,r23
 344 0026 300D      		add r19,r0
 345 0028 1124      		clr __zero_reg__
 346 002a 698D      		ldd r22,Y+25
 347 002c 7A8D      		ldd r23,Y+26
 348 002e 869F      		mul r24,r22
 349 0030 A001      		movw r20,r0
 350 0032 879F      		mul r24,r23
 351 0034 500D      		add r21,r0
 352 0036 1124      		clr __zero_reg__
 353 0038 B701      		movw r22,r14
 354 003a CE01      		movw r24,r28
 355 003c 0E94 0000 		call luaM_realloc_
 356 0040 00C0      		rjmp .L26
 357               	.L25:
 358 0042 CE01      		movw r24,r28
 359 0044 0E94 0000 		call luaM_toobig
 360               	.L26:
 361 0048 9E8B      		std Y+22,r25
 362 004a 8D8B      		std Y+21,r24
 363 004c 1A8F      		std Y+26,r17
 364 004e 098F      		std Y+25,r16
 365 0050 2B85      		ldd r18,Y+11
 366 0052 3C85      		ldd r19,Y+12
 367 0054 2E19      		sub r18,r14
 368 0056 3F09      		sbc r19,r15
 369 0058 280F      		add r18,r24
 370 005a 391F      		adc r19,r25
 371 005c 3C87      		std Y+12,r19
 372 005e 2B87      		std Y+11,r18
 373 0060 4CE0      		ldi r20,lo8(12)
 374 0062 409F      		mul r20,r16
 375 0064 9001      		movw r18,r0
 376 0066 419F      		mul r20,r17
 377 0068 300D      		add r19,r0
 378 006a 1124      		clr __zero_reg__
 379 006c 2C50      		subi r18,12
 380 006e 3109      		sbc r19,__zero_reg__
 381 0070 820F      		add r24,r18
 382 0072 931F      		adc r25,r19
 383 0074 9C8B      		std Y+20,r25
 384 0076 8B8B      		std Y+19,r24
 385               	/* epilogue start */
 386 0078 DF91      		pop r29
 387 007a CF91      		pop r28
 388 007c 1F91      		pop r17
 389 007e 0F91      		pop r16
 390 0080 FF90      		pop r15
 391 0082 EF90      		pop r14
GAS LISTING /tmp/ccmC0whv.s 			page 8


 392 0084 0895      		ret
 393               		.size	luaD_reallocCI, .-luaD_reallocCI
 394               		.section	.rodata.str1.1
 395               	.LC2:
 396 002a 6C75 6120 		.string	"lua throw calling "
 396      7468 726F 
 396      7720 6361 
 396      6C6C 696E 
 396      6720 00
 397               		.section	.text.luaD_throw,"ax",@progbits
 398               	.global	luaD_throw
 399               		.hidden	luaD_throw
 400               		.type	luaD_throw, @function
 401               	luaD_throw:
 402               	/* prologue: function */
 403               	/* frame size = 0 */
 404               	/* stack size = 0 */
 405               	.L__stack_usage = 0
 406 0000 EC01      		movw r28,r24
 407 0002 8B01      		movw r16,r22
 408 0004 8FA9      		ldd r24,Y+55
 409 0006 98AD      		ldd r25,Y+56
 410 0008 0097      		sbiw r24,0
 411 000a 01F0      		breq .L28
 412 000c FC01      		movw r30,r24
 413 000e 738F      		std Z+27,r23
 414 0010 628F      		std Z+26,r22
 415 0012 61E0      		ldi r22,lo8(1)
 416 0014 70E0      		ldi r23,0
 417 0016 0296      		adiw r24,2
 418 0018 0E94 0000 		call longjmp
 419               	.L28:
 420 001c 6C83      		std Y+4,r22
 421 001e E985      		ldd r30,Y+9
 422 0020 FA85      		ldd r31,Y+10
 423 0022 86A9      		ldd r24,Z+54
 424 0024 97A9      		ldd r25,Z+55
 425 0026 892B      		or r24,r25
 426 0028 01F0      		breq .L29
 427 002a ED89      		ldd r30,Y+21
 428 002c FE89      		ldd r31,Y+22
 429 002e FC87      		std Y+12,r31
 430 0030 EB87      		std Y+11,r30
 431 0032 6081      		ld r22,Z
 432 0034 7181      		ldd r23,Z+1
 433 0036 7887      		std Y+8,r23
 434 0038 6F83      		std Y+7,r22
 435 003a CE01      		movw r24,r28
 436 003c 0E94 0000 		call luaF_close
 437 0040 4F81      		ldd r20,Y+7
 438 0042 5885      		ldd r21,Y+8
 439 0044 B801      		movw r22,r16
 440 0046 CE01      		movw r24,r28
 441 0048 0E94 0000 		call luaD_seterrorobj
 442 004c 8D8D      		ldd r24,Y+29
 443 004e 9E8D      		ldd r25,Y+30
 444 0050 9C8F      		std Y+28,r25
GAS LISTING /tmp/ccmC0whv.s 			page 9


 445 0052 8B8F      		std Y+27,r24
 446 0054 81E0      		ldi r24,lo8(1)
 447 0056 88A3      		std Y+32,r24
 448 0058 898D      		ldd r24,Y+25
 449 005a 9A8D      		ldd r25,Y+26
 450 005c 8132      		cpi r24,33
 451 005e 9E44      		sbci r25,78
 452 0060 04F0      		brlt .L30
 453 0062 60E2      		ldi r22,lo8(32)
 454 0064 7EE4      		ldi r23,lo8(78)
 455 0066 CE01      		movw r24,r28
 456 0068 0E94 0000 		call luaD_reallocCI
 457               	.L30:
 458 006c 1AAE      		std Y+58,__zero_reg__
 459 006e 19AE      		std Y+57,__zero_reg__
 460 0070 18AE      		std Y+56,__zero_reg__
 461 0072 1FAA      		std Y+55,__zero_reg__
 462 0074 E985      		ldd r30,Y+9
 463 0076 FA85      		ldd r31,Y+10
 464 0078 06A8      		ldd __tmp_reg__,Z+54
 465 007a F7A9      		ldd r31,Z+55
 466 007c E02D      		mov r30,__tmp_reg__
 467 007e CE01      		movw r24,r28
 468 0080 1995      		eicall
 469               	.L29:
 470 0082 80E0      		ldi r24,lo8(.LC2)
 471 0084 90E0      		ldi r25,hi8(.LC2)
 472 0086 9F93      		push r25
 473 0088 8F93      		push r24
 474 008a 0E94 0000 		call printf
 475 008e 0F90      		pop __tmp_reg__
 476 0090 0F90      		pop __tmp_reg__
 477               	.L31:
 478 0092 00C0      		rjmp .L31
 479               		.size	luaD_throw, .-luaD_throw
 480               		.section	.rodata.str1.1
 481               	.LC3:
 482 003d 7374 6163 		.string	"stack overflow"
 482      6B20 6F76 
 482      6572 666C 
 482      6F77 00
 483               		.section	.text.growCI,"ax",@progbits
 484               		.type	growCI, @function
 485               	growCI:
 486 0000 CF93      		push r28
 487 0002 DF93      		push r29
 488               	/* prologue: function */
 489               	/* frame size = 0 */
 490               	/* stack size = 2 */
 491               	.L__stack_usage = 2
 492 0004 EC01      		movw r28,r24
 493 0006 698D      		ldd r22,Y+25
 494 0008 7A8D      		ldd r23,Y+26
 495 000a 6132      		cpi r22,33
 496 000c 2EE4      		ldi r18,78
 497 000e 7207      		cpc r23,r18
 498 0010 04F0      		brlt .L36
GAS LISTING /tmp/ccmC0whv.s 			page 10


 499 0012 65E0      		ldi r22,lo8(5)
 500 0014 70E0      		ldi r23,0
 501 0016 0E94 0000 		call luaD_throw
 502               	.L36:
 503 001a 660F      		lsl r22
 504 001c 771F      		rol r23
 505 001e CE01      		movw r24,r28
 506 0020 0E94 0000 		call luaD_reallocCI
 507 0024 898D      		ldd r24,Y+25
 508 0026 9A8D      		ldd r25,Y+26
 509 0028 8132      		cpi r24,33
 510 002a 9E44      		sbci r25,78
 511 002c 04F0      		brlt .L37
 512 002e 80E0      		ldi r24,lo8(.LC3)
 513 0030 90E0      		ldi r25,hi8(.LC3)
 514 0032 9F93      		push r25
 515 0034 8F93      		push r24
 516 0036 DF93      		push r29
 517 0038 CF93      		push r28
 518 003a 0E94 0000 		call luaG_runerror
 519 003e 0F90      		pop __tmp_reg__
 520 0040 0F90      		pop __tmp_reg__
 521 0042 0F90      		pop __tmp_reg__
 522 0044 0F90      		pop __tmp_reg__
 523               	.L37:
 524 0046 8B85      		ldd r24,Y+11
 525 0048 9C85      		ldd r25,Y+12
 526 004a 0C96      		adiw r24,12
 527 004c 9C87      		std Y+12,r25
 528 004e 8B87      		std Y+11,r24
 529               	/* epilogue start */
 530 0050 DF91      		pop r29
 531 0052 CF91      		pop r28
 532 0054 0895      		ret
 533               		.size	growCI, .-growCI
 534               		.section	.text.luaD_growstack,"ax",@progbits
 535               	.global	luaD_growstack
 536               		.hidden	luaD_growstack
 537               		.type	luaD_growstack, @function
 538               	luaD_growstack:
 539               	/* prologue: function */
 540               	/* frame size = 0 */
 541               	/* stack size = 0 */
 542               	.L__stack_usage = 0
 543 0000 FC01      		movw r30,r24
 544 0002 2789      		ldd r18,Z+23
 545 0004 308D      		ldd r19,Z+24
 546 0006 2617      		cp r18,r22
 547 0008 3707      		cpc r19,r23
 548 000a 04F0      		brlt .L39
 549 000c B901      		movw r22,r18
 550 000e 660F      		lsl r22
 551 0010 771F      		rol r23
 552 0012 00C0      		rjmp .L40
 553               	.L39:
 554 0014 620F      		add r22,r18
 555 0016 731F      		adc r23,r19
GAS LISTING /tmp/ccmC0whv.s 			page 11


 556               	.L40:
 557 0018 0C94 0000 		jmp luaD_reallocstack
 558               		.size	luaD_growstack, .-luaD_growstack
 559               		.section	.text.resume_error,"ax",@progbits
 560               		.type	resume_error, @function
 561               	resume_error:
 562 0000 0F93      		push r16
 563 0002 1F93      		push r17
 564 0004 CF93      		push r28
 565 0006 DF93      		push r29
 566               	/* prologue: function */
 567               	/* frame size = 0 */
 568               	/* stack size = 4 */
 569               	.L__stack_usage = 4
 570 0008 EC01      		movw r28,r24
 571 000a EB85      		ldd r30,Y+11
 572 000c FC85      		ldd r31,Y+12
 573 000e 0081      		ld r16,Z
 574 0010 1181      		ldd r17,Z+1
 575 0012 1E83      		std Y+6,r17
 576 0014 0D83      		std Y+5,r16
 577 0016 FB01      		movw r30,r22
 578               		0:
 579 0018 0190      		ld __tmp_reg__,Z+
 580 001a 0020      		tst __tmp_reg__
 581 001c 01F4      		brne 0b
 582 001e 3197      		sbiw r30,1
 583 0020 AF01      		movw r20,r30
 584 0022 461B      		sub r20,r22
 585 0024 570B      		sbc r21,r23
 586 0026 0E94 0000 		call luaS_newlstr
 587 002a F801      		movw r30,r16
 588 002c 9183      		std Z+1,r25
 589 002e 8083      		st Z,r24
 590 0030 86E0      		ldi r24,lo8(6)
 591 0032 90E0      		ldi r25,0
 592 0034 9583      		std Z+5,r25
 593 0036 8483      		std Z+4,r24
 594 0038 8F85      		ldd r24,Y+15
 595 003a 9889      		ldd r25,Y+16
 596 003c 2D81      		ldd r18,Y+5
 597 003e 3E81      		ldd r19,Y+6
 598 0040 821B      		sub r24,r18
 599 0042 930B      		sbc r25,r19
 600 0044 0797      		sbiw r24,7
 601 0046 04F4      		brge .L42
 602 0048 61E0      		ldi r22,lo8(1)
 603 004a 70E0      		ldi r23,0
 604 004c CE01      		movw r24,r28
 605 004e 0E94 0000 		call luaD_growstack
 606               	.L42:
 607 0052 8D81      		ldd r24,Y+5
 608 0054 9E81      		ldd r25,Y+6
 609 0056 0696      		adiw r24,6
 610 0058 9E83      		std Y+6,r25
 611 005a 8D83      		std Y+5,r24
 612 005c 82E0      		ldi r24,lo8(2)
GAS LISTING /tmp/ccmC0whv.s 			page 12


 613 005e 90E0      		ldi r25,0
 614               	/* epilogue start */
 615 0060 DF91      		pop r29
 616 0062 CF91      		pop r28
 617 0064 1F91      		pop r17
 618 0066 0F91      		pop r16
 619 0068 0895      		ret
 620               		.size	resume_error, .-resume_error
 621               		.section	.text.f_parser,"ax",@progbits
 622               		.type	f_parser, @function
 623               	f_parser:
 624 0000 AF92      		push r10
 625 0002 BF92      		push r11
 626 0004 CF92      		push r12
 627 0006 DF92      		push r13
 628 0008 EF92      		push r14
 629 000a FF92      		push r15
 630 000c 0F93      		push r16
 631 000e 1F93      		push r17
 632 0010 CF93      		push r28
 633 0012 DF93      		push r29
 634               	/* prologue: function */
 635               	/* frame size = 0 */
 636               	/* stack size = 10 */
 637               	.L__stack_usage = 10
 638 0014 EC01      		movw r28,r24
 639 0016 8B01      		movw r16,r22
 640 0018 DB01      		movw r26,r22
 641 001a 8D91      		ld r24,X+
 642 001c 9C91      		ld r25,X
 643 001e 0E94 0000 		call luaZ_lookahead
 644 0022 7C01      		movw r14,r24
 645 0024 E985      		ldd r30,Y+9
 646 0026 FA85      		ldd r31,Y+10
 647 0028 46A1      		ldd r20,Z+38
 648 002a 57A1      		ldd r21,Z+39
 649 002c 60A5      		ldd r22,Z+40
 650 002e 71A5      		ldd r23,Z+41
 651 0030 82A1      		ldd r24,Z+34
 652 0032 93A1      		ldd r25,Z+35
 653 0034 A4A1      		ldd r26,Z+36
 654 0036 B5A1      		ldd r27,Z+37
 655 0038 4817      		cp r20,r24
 656 003a 5907      		cpc r21,r25
 657 003c 6A07      		cpc r22,r26
 658 003e 7B07      		cpc r23,r27
 659 0040 00F0      		brlo .L44
 660 0042 CE01      		movw r24,r28
 661 0044 0E94 0000 		call luaC_step
 662               	.L44:
 663 0048 BBE1      		ldi r27,27
 664 004a EB16      		cp r14,r27
 665 004c F104      		cpc r15,__zero_reg__
 666 004e 01F0      		breq .L49
 667 0050 E0E0      		ldi r30,lo8(gs(luaY_parser))
 668 0052 F0E0      		ldi r31,hi8(gs(luaY_parser))
 669 0054 00C0      		rjmp .L45
GAS LISTING /tmp/ccmC0whv.s 			page 13


 670               	.L49:
 671 0056 E0E0      		ldi r30,lo8(gs(luaU_undump))
 672 0058 F0E0      		ldi r31,hi8(gs(luaU_undump))
 673               	.L45:
 674 005a D801      		movw r26,r16
 675 005c 1896      		adiw r26,8
 676 005e 2D91      		ld r18,X+
 677 0060 3C91      		ld r19,X
 678 0062 1997      		sbiw r26,8+1
 679 0064 A801      		movw r20,r16
 680 0066 4E5F      		subi r20,-2
 681 0068 5F4F      		sbci r21,-1
 682 006a 6D91      		ld r22,X+
 683 006c 7C91      		ld r23,X
 684 006e CE01      		movw r24,r28
 685 0070 1995      		eicall
 686 0072 6C01      		movw r12,r24
 687 0074 4FA1      		ldd r20,Y+39
 688 0076 58A5      		ldd r21,Y+40
 689 0078 FC01      		movw r30,r24
 690 007a 64A1      		ldd r22,Z+36
 691 007c 70E0      		ldi r23,0
 692 007e CE01      		movw r24,r28
 693 0080 0E94 0000 		call luaF_newLclosure
 694 0084 8C01      		movw r16,r24
 695 0086 DC01      		movw r26,r24
 696 0088 1B96      		adiw r26,10+1
 697 008a DC92      		st X,r13
 698 008c CE92      		st -X,r12
 699 008e 1A97      		sbiw r26,10
 700 0090 5C01      		movw r10,r24
 701 0092 BCE0      		ldi r27,12
 702 0094 AB0E      		add r10,r27
 703 0096 B11C      		adc r11,__zero_reg__
 704 0098 E12C      		mov r14,__zero_reg__
 705 009a F12C      		mov r15,__zero_reg__
 706               	.L46:
 707 009c D601      		movw r26,r12
 708 009e 9496      		adiw r26,36
 709 00a0 8C91      		ld r24,X
 710 00a2 90E0      		ldi r25,0
 711 00a4 E816      		cp r14,r24
 712 00a6 F906      		cpc r15,r25
 713 00a8 04F4      		brge .L50
 714 00aa CE01      		movw r24,r28
 715 00ac 0E94 0000 		call luaF_newupval
 716 00b0 F501      		movw r30,r10
 717 00b2 8193      		st Z+,r24
 718 00b4 9193      		st Z+,r25
 719 00b6 5F01      		movw r10,r30
 720 00b8 FFEF      		ldi r31,-1
 721 00ba EF1A      		sub r14,r31
 722 00bc FF0A      		sbc r15,r31
 723 00be 00C0      		rjmp .L46
 724               	.L50:
 725 00c0 ED81      		ldd r30,Y+5
 726 00c2 FE81      		ldd r31,Y+6
GAS LISTING /tmp/ccmC0whv.s 			page 14


 727 00c4 1183      		std Z+1,r17
 728 00c6 0083      		st Z,r16
 729 00c8 88E0      		ldi r24,lo8(8)
 730 00ca 90E0      		ldi r25,0
 731 00cc 9583      		std Z+5,r25
 732 00ce 8483      		std Z+4,r24
 733 00d0 8F85      		ldd r24,Y+15
 734 00d2 9889      		ldd r25,Y+16
 735 00d4 2D81      		ldd r18,Y+5
 736 00d6 3E81      		ldd r19,Y+6
 737 00d8 821B      		sub r24,r18
 738 00da 930B      		sbc r25,r19
 739 00dc 0797      		sbiw r24,7
 740 00de 04F4      		brge .L48
 741 00e0 61E0      		ldi r22,lo8(1)
 742 00e2 70E0      		ldi r23,0
 743 00e4 CE01      		movw r24,r28
 744 00e6 0E94 0000 		call luaD_growstack
 745               	.L48:
 746 00ea 8D81      		ldd r24,Y+5
 747 00ec 9E81      		ldd r25,Y+6
 748 00ee 0696      		adiw r24,6
 749 00f0 9E83      		std Y+6,r25
 750 00f2 8D83      		std Y+5,r24
 751               	/* epilogue start */
 752 00f4 DF91      		pop r29
 753 00f6 CF91      		pop r28
 754 00f8 1F91      		pop r17
 755 00fa 0F91      		pop r16
 756 00fc FF90      		pop r15
 757 00fe EF90      		pop r14
 758 0100 DF90      		pop r13
 759 0102 CF90      		pop r12
 760 0104 BF90      		pop r11
 761 0106 AF90      		pop r10
 762 0108 0895      		ret
 763               		.size	f_parser, .-f_parser
 764               		.section	.text.luaD_callhook,"ax",@progbits
 765               	.global	luaD_callhook
 766               		.hidden	luaD_callhook
 767               		.type	luaD_callhook, @function
 768               	luaD_callhook:
 769 0000 AF92      		push r10
 770 0002 BF92      		push r11
 771 0004 CF92      		push r12
 772 0006 DF92      		push r13
 773 0008 EF92      		push r14
 774 000a FF92      		push r15
 775 000c 0F93      		push r16
 776 000e 1F93      		push r17
 777 0010 CF93      		push r28
 778 0012 DF93      		push r29
 779 0014 CDB7      		in r28,__SP_L__
 780 0016 DEB7      		in r29,__SP_H__
 781 0018 C055      		subi r28,80
 782 001a D109      		sbc r29,__zero_reg__
 783 001c 0FB6      		in __tmp_reg__,__SREG__
GAS LISTING /tmp/ccmC0whv.s 			page 15


 784 001e F894      		cli
 785 0020 DEBF      		out __SP_H__,r29
 786 0022 0FBE      		out __SREG__,__tmp_reg__
 787 0024 CDBF      		out __SP_L__,r28
 788               	/* prologue: function */
 789               	/* frame size = 80 */
 790               	/* stack size = 90 */
 791               	.L__stack_usage = 90
 792 0026 8C01      		movw r16,r24
 793 0028 DC01      		movw r26,r24
 794 002a 9596      		adiw r26,37
 795 002c AD90      		ld r10,X+
 796 002e BC90      		ld r11,X
 797 0030 9697      		sbiw r26,37+1
 798 0032 A114      		cp r10,__zero_reg__
 799 0034 B104      		cpc r11,__zero_reg__
 800 0036 01F4      		brne .+2
 801 0038 00C0      		rjmp .L51
 802 003a 9096      		adiw r26,32
 803 003c 8C91      		ld r24,X
 804 003e 9097      		sbiw r26,32
 805 0040 8823      		tst r24
 806 0042 01F4      		brne .+2
 807 0044 00C0      		rjmp .L51
 808 0046 1596      		adiw r26,5
 809 0048 2D91      		ld r18,X+
 810 004a 3C91      		ld r19,X
 811 004c 1697      		sbiw r26,5+1
 812 004e 5196      		adiw r26,17
 813 0050 8D91      		ld r24,X+
 814 0052 9C91      		ld r25,X
 815 0054 5297      		sbiw r26,17+1
 816 0056 6901      		movw r12,r18
 817 0058 C81A      		sub r12,r24
 818 005a D90A      		sbc r13,r25
 819 005c 1B96      		adiw r26,11
 820 005e ED91      		ld r30,X+
 821 0060 FC91      		ld r31,X
 822 0062 1C97      		sbiw r26,11+1
 823 0064 E480      		ldd r14,Z+4
 824 0066 F580      		ldd r15,Z+5
 825 0068 E81A      		sub r14,r24
 826 006a F90A      		sbc r15,r25
 827 006c 7A83      		std Y+2,r23
 828 006e 6983      		std Y+1,r22
 829 0070 5C87      		std Y+12,r21
 830 0072 4B87      		std Y+11,r20
 831 0074 6430      		cpi r22,4
 832 0076 7105      		cpc r23,__zero_reg__
 833 0078 01F4      		brne .L53
 834 007a 6196      		adiw r28,79-62
 835 007c 1FAE      		std Y+63,__zero_reg__
 836 007e 1EAE      		std Y+62,__zero_reg__
 837 0080 6197      		sbiw r28,79-62
 838 0082 00C0      		rjmp .L54
 839               	.L53:
 840 0084 D801      		movw r26,r16
GAS LISTING /tmp/ccmC0whv.s 			page 16


 841 0086 5596      		adiw r26,21
 842 0088 8D91      		ld r24,X+
 843 008a 9C91      		ld r25,X
 844 008c 5697      		sbiw r26,21+1
 845 008e E81B      		sub r30,r24
 846 0090 F90B      		sbc r31,r25
 847 0092 F595      		asr r31
 848 0094 E795      		ror r30
 849 0096 F595      		asr r31
 850 0098 E795      		ror r30
 851 009a 4BEA      		ldi r20,lo8(-85)
 852 009c 5AEA      		ldi r21,lo8(-86)
 853 009e E49F      		mul r30,r20
 854 00a0 C001      		movw r24,r0
 855 00a2 E59F      		mul r30,r21
 856 00a4 900D      		add r25,r0
 857 00a6 F49F      		mul r31,r20
 858 00a8 900D      		add r25,r0
 859 00aa 1124      		clr r1
 860 00ac 6196      		adiw r28,79-62
 861 00ae 9FAF      		std Y+63,r25
 862 00b0 8EAF      		std Y+62,r24
 863 00b2 6197      		sbiw r28,79-62
 864               	.L54:
 865 00b4 F801      		movw r30,r16
 866 00b6 8785      		ldd r24,Z+15
 867 00b8 9089      		ldd r25,Z+16
 868 00ba 821B      		sub r24,r18
 869 00bc 930B      		sbc r25,r19
 870 00be 8937      		cpi r24,121
 871 00c0 9105      		cpc r25,__zero_reg__
 872 00c2 04F4      		brge .L55
 873 00c4 64E1      		ldi r22,lo8(20)
 874 00c6 70E0      		ldi r23,0
 875 00c8 C801      		movw r24,r16
 876 00ca 0E94 0000 		call luaD_growstack
 877               	.L55:
 878 00ce D801      		movw r26,r16
 879 00d0 1B96      		adiw r26,11
 880 00d2 ED91      		ld r30,X+
 881 00d4 FC91      		ld r31,X
 882 00d6 1C97      		sbiw r26,11+1
 883 00d8 1596      		adiw r26,5
 884 00da 8D91      		ld r24,X+
 885 00dc 9C91      		ld r25,X
 886 00de 1697      		sbiw r26,5+1
 887 00e0 8858      		subi r24,-120
 888 00e2 9F4F      		sbci r25,-1
 889 00e4 9583      		std Z+5,r25
 890 00e6 8483      		std Z+4,r24
 891 00e8 9096      		adiw r26,32
 892 00ea 1C92      		st X,__zero_reg__
 893 00ec BE01      		movw r22,r28
 894 00ee 6F5F      		subi r22,-1
 895 00f0 7F4F      		sbci r23,-1
 896 00f2 C801      		movw r24,r16
 897 00f4 F501      		movw r30,r10
GAS LISTING /tmp/ccmC0whv.s 			page 17


 898 00f6 1995      		eicall
 899 00f8 81E0      		ldi r24,lo8(1)
 900 00fa D801      		movw r26,r16
 901 00fc 9096      		adiw r26,32
 902 00fe 8C93      		st X,r24
 903 0100 9097      		sbiw r26,32
 904 0102 5196      		adiw r26,17
 905 0104 8D91      		ld r24,X+
 906 0106 9C91      		ld r25,X
 907 0108 5297      		sbiw r26,17+1
 908 010a 1B96      		adiw r26,11
 909 010c ED91      		ld r30,X+
 910 010e FC91      		ld r31,X
 911 0110 1C97      		sbiw r26,11+1
 912 0112 E80E      		add r14,r24
 913 0114 F91E      		adc r15,r25
 914 0116 F582      		std Z+5,r15
 915 0118 E482      		std Z+4,r14
 916 011a C80E      		add r12,r24
 917 011c D91E      		adc r13,r25
 918 011e 1696      		adiw r26,5+1
 919 0120 DC92      		st X,r13
 920 0122 CE92      		st -X,r12
 921 0124 1597      		sbiw r26,5
 922               	.L51:
 923               	/* epilogue start */
 924 0126 C05B      		subi r28,-80
 925 0128 DF4F      		sbci r29,-1
 926 012a 0FB6      		in __tmp_reg__,__SREG__
 927 012c F894      		cli
 928 012e DEBF      		out __SP_H__,r29
 929 0130 0FBE      		out __SREG__,__tmp_reg__
 930 0132 CDBF      		out __SP_L__,r28
 931 0134 DF91      		pop r29
 932 0136 CF91      		pop r28
 933 0138 1F91      		pop r17
 934 013a 0F91      		pop r16
 935 013c FF90      		pop r15
 936 013e EF90      		pop r14
 937 0140 DF90      		pop r13
 938 0142 CF90      		pop r12
 939 0144 BF90      		pop r11
 940 0146 AF90      		pop r10
 941 0148 0895      		ret
 942               		.size	luaD_callhook, .-luaD_callhook
 943               		.section	.text.luaD_poscall,"ax",@progbits
 944               	.global	luaD_poscall
 945               		.hidden	luaD_poscall
 946               		.type	luaD_poscall, @function
 947               	luaD_poscall:
 948 0000 0F93      		push r16
 949 0002 1F93      		push r17
 950 0004 CF93      		push r28
 951 0006 DF93      		push r29
 952               	/* prologue: function */
 953               	/* frame size = 0 */
 954               	/* stack size = 4 */
GAS LISTING /tmp/ccmC0whv.s 			page 18


 955               	.L__stack_usage = 4
 956 0008 EC01      		movw r28,r24
 957 000a 8F8D      		ldd r24,Y+31
 958 000c 81FF      		sbrs r24,1
 959 000e 00C0      		rjmp .L63
 960 0010 8989      		ldd r24,Y+17
 961 0012 9A89      		ldd r25,Y+18
 962 0014 8B01      		movw r16,r22
 963 0016 081B      		sub r16,r24
 964 0018 190B      		sbc r17,r25
 965 001a 4FEF      		ldi r20,lo8(-1)
 966 001c 5FEF      		ldi r21,lo8(-1)
 967 001e 61E0      		ldi r22,lo8(1)
 968 0020 70E0      		ldi r23,0
 969 0022 CE01      		movw r24,r28
 970 0024 0E94 0000 		call luaD_callhook
 971 0028 EB85      		ldd r30,Y+11
 972 002a FC85      		ldd r31,Y+12
 973 002c 0280      		ldd __tmp_reg__,Z+2
 974 002e F381      		ldd r31,Z+3
 975 0030 E02D      		mov r30,__tmp_reg__
 976 0032 8481      		ldd r24,Z+4
 977 0034 9581      		ldd r25,Z+5
 978 0036 8330      		cpi r24,3
 979 0038 9105      		cpc r25,__zero_reg__
 980 003a 01F4      		brne .L64
 981               	.L67:
 982 003c 6989      		ldd r22,Y+17
 983 003e 7A89      		ldd r23,Y+18
 984 0040 600F      		add r22,r16
 985 0042 711F      		adc r23,r17
 986 0044 00C0      		rjmp .L63
 987               	.L64:
 988 0046 0897      		sbiw r24,8
 989 0048 01F4      		brne .L75
 990 004a 0190      		ld __tmp_reg__,Z+
 991 004c F081      		ld r31,Z
 992 004e E02D      		mov r30,__tmp_reg__
 993 0050 00C0      		rjmp .L65
 994               	.L75:
 995 0052 E0E0      		ldi r30,0
 996 0054 F0E0      		ldi r31,0
 997               	.L65:
 998 0056 8481      		ldd r24,Z+4
 999 0058 8111      		cpse r24,__zero_reg__
 1000 005a 00C0      		rjmp .L67
 1001               	.L83:
 1002 005c 8F8D      		ldd r24,Y+31
 1003 005e 81FF      		sbrs r24,1
 1004 0060 00C0      		rjmp .L67
 1005 0062 EB85      		ldd r30,Y+11
 1006 0064 FC85      		ldd r31,Y+12
 1007 0066 8285      		ldd r24,Z+10
 1008 0068 9385      		ldd r25,Z+11
 1009 006a 9C01      		movw r18,r24
 1010 006c 2150      		subi r18,1
 1011 006e 3109      		sbc r19,__zero_reg__
GAS LISTING /tmp/ccmC0whv.s 			page 19


 1012 0070 3387      		std Z+11,r19
 1013 0072 2287      		std Z+10,r18
 1014 0074 892B      		or r24,r25
 1015 0076 01F0      		breq .L67
 1016 0078 4FEF      		ldi r20,lo8(-1)
 1017 007a 5FEF      		ldi r21,lo8(-1)
 1018 007c 64E0      		ldi r22,lo8(4)
 1019 007e 70E0      		ldi r23,0
 1020 0080 CE01      		movw r24,r28
 1021 0082 0E94 0000 		call luaD_callhook
 1022 0086 00C0      		rjmp .L83
 1023               	.L63:
 1024 0088 EB85      		ldd r30,Y+11
 1025 008a FC85      		ldd r31,Y+12
 1026 008c DF01      		movw r26,r30
 1027 008e 1C97      		sbiw r26,12
 1028 0090 BC87      		std Y+12,r27
 1029 0092 AB87      		std Y+11,r26
 1030 0094 3281      		ldd r19,Z+2
 1031 0096 2381      		ldd r18,Z+3
 1032 0098 8085      		ldd r24,Z+8
 1033 009a 9185      		ldd r25,Z+9
 1034 009c 4D91      		ld r20,X+
 1035 009e 5C91      		ld r21,X
 1036 00a0 1197      		sbiw r26,1
 1037 00a2 5887      		std Y+8,r21
 1038 00a4 4F83      		std Y+7,r20
 1039 00a6 1696      		adiw r26,6
 1040 00a8 4D91      		ld r20,X+
 1041 00aa 5C91      		ld r21,X
 1042 00ac 1797      		sbiw r26,6+1
 1043 00ae 5E87      		std Y+14,r21
 1044 00b0 4D87      		std Y+13,r20
 1045 00b2 FB01      		movw r30,r22
 1046 00b4 A32F      		mov r26,r19
 1047 00b6 B22F      		mov r27,r18
 1048 00b8 9C01      		movw r18,r24
 1049               	.L69:
 1050 00ba AD01      		movw r20,r26
 1051 00bc 2115      		cp r18,__zero_reg__
 1052 00be 3105      		cpc r19,__zero_reg__
 1053 00c0 01F0      		breq .L70
 1054 00c2 4D81      		ldd r20,Y+5
 1055 00c4 5E81      		ldd r21,Y+6
 1056 00c6 E417      		cp r30,r20
 1057 00c8 F507      		cpc r31,r21
 1058 00ca 00F4      		brsh .L88
 1059 00cc 4081      		ld r20,Z
 1060 00ce 5181      		ldd r21,Z+1
 1061 00d0 6281      		ldd r22,Z+2
 1062 00d2 7381      		ldd r23,Z+3
 1063 00d4 4D93      		st X+,r20
 1064 00d6 5D93      		st X+,r21
 1065 00d8 6D93      		st X+,r22
 1066 00da 7C93      		st X,r23
 1067 00dc 1397      		sbiw r26,3
 1068 00de 4481      		ldd r20,Z+4
GAS LISTING /tmp/ccmC0whv.s 			page 20


 1069 00e0 5581      		ldd r21,Z+5
 1070 00e2 1596      		adiw r26,4+1
 1071 00e4 5C93      		st X,r21
 1072 00e6 4E93      		st -X,r20
 1073 00e8 1497      		sbiw r26,4
 1074 00ea 2150      		subi r18,1
 1075 00ec 3109      		sbc r19,__zero_reg__
 1076 00ee 3696      		adiw r30,6
 1077 00f0 1696      		adiw r26,6
 1078 00f2 00C0      		rjmp .L69
 1079               	.L88:
 1080 00f4 A901      		movw r20,r18
 1081 00f6 FD01      		movw r30,r26
 1082 00f8 3496      		adiw r30,4
 1083               	.L72:
 1084 00fa 1416      		cp __zero_reg__,r20
 1085 00fc 1506      		cpc __zero_reg__,r21
 1086 00fe 04F4      		brge .L89
 1087 0100 1182      		std Z+1,__zero_reg__
 1088 0102 1082      		st Z,__zero_reg__
 1089 0104 4150      		subi r20,1
 1090 0106 5109      		sbc r21,__zero_reg__
 1091 0108 3696      		adiw r30,6
 1092 010a 00C0      		rjmp .L72
 1093               	.L89:
 1094 010c 37FF      		sbrs r19,7
 1095 010e 00C0      		rjmp .L74
 1096 0110 20E0      		ldi r18,0
 1097 0112 30E0      		ldi r19,0
 1098               	.L74:
 1099 0114 66E0      		ldi r22,lo8(6)
 1100 0116 629F      		mul r22,r18
 1101 0118 A001      		movw r20,r0
 1102 011a 639F      		mul r22,r19
 1103 011c 500D      		add r21,r0
 1104 011e 1124      		clr __zero_reg__
 1105 0120 4A0F      		add r20,r26
 1106 0122 5B1F      		adc r21,r27
 1107               	.L70:
 1108 0124 5E83      		std Y+6,r21
 1109 0126 4D83      		std Y+5,r20
 1110 0128 0196      		adiw r24,1
 1111               	/* epilogue start */
 1112 012a DF91      		pop r29
 1113 012c CF91      		pop r28
 1114 012e 1F91      		pop r17
 1115 0130 0F91      		pop r16
 1116 0132 0895      		ret
 1117               		.size	luaD_poscall, .-luaD_poscall
 1118               		.section	.rodata.str1.1
 1119               	.LC4:
 1120 004c 6361 6C6C 		.string	"call"
 1120      00
 1121               	.LC5:
 1122 0051 6E00      		.string	"n"
 1123               		.section	.text.luaD_precall,"ax",@progbits
 1124               	.global	luaD_precall
GAS LISTING /tmp/ccmC0whv.s 			page 21


 1125               		.hidden	luaD_precall
 1126               		.type	luaD_precall, @function
 1127               	luaD_precall:
 1128 0000 2F92      		push r2
 1129 0002 3F92      		push r3
 1130 0004 4F92      		push r4
 1131 0006 5F92      		push r5
 1132 0008 6F92      		push r6
 1133 000a 7F92      		push r7
 1134 000c 8F92      		push r8
 1135 000e 9F92      		push r9
 1136 0010 AF92      		push r10
 1137 0012 BF92      		push r11
 1138 0014 CF92      		push r12
 1139 0016 DF92      		push r13
 1140 0018 EF92      		push r14
 1141 001a FF92      		push r15
 1142 001c 0F93      		push r16
 1143 001e 1F93      		push r17
 1144 0020 CF93      		push r28
 1145 0022 DF93      		push r29
 1146 0024 CDB7      		in r28,__SP_L__
 1147 0026 DEB7      		in r29,__SP_H__
 1148 0028 2897      		sbiw r28,8
 1149 002a 0FB6      		in __tmp_reg__,__SREG__
 1150 002c F894      		cli
 1151 002e DEBF      		out __SP_H__,r29
 1152 0030 0FBE      		out __SREG__,__tmp_reg__
 1153 0032 CDBF      		out __SP_L__,r28
 1154               	/* prologue: function */
 1155               	/* frame size = 8 */
 1156               	/* stack size = 26 */
 1157               	.L__stack_usage = 26
 1158 0034 9887      		std Y+8,r25
 1159 0036 8F83      		std Y+7,r24
 1160 0038 8B01      		movw r16,r22
 1161 003a 5C83      		std Y+4,r21
 1162 003c 4B83      		std Y+3,r20
 1163 003e DB01      		movw r26,r22
 1164 0040 1496      		adiw r26,4
 1165 0042 8D91      		ld r24,X+
 1166 0044 9C91      		ld r25,X
 1167 0046 1597      		sbiw r26,4+1
 1168 0048 8830      		cpi r24,8
 1169 004a 9105      		cpc r25,__zero_reg__
 1170 004c 01F4      		brne .+2
 1171 004e 00C0      		rjmp .L91
 1172 0050 0397      		sbiw r24,3
 1173 0052 01F4      		brne .+2
 1174 0054 00C0      		rjmp .L91
 1175 0056 40E1      		ldi r20,lo8(16)
 1176 0058 50E0      		ldi r21,0
 1177 005a 8F81      		ldd r24,Y+7
 1178 005c 9885      		ldd r25,Y+8
 1179 005e 0E94 0000 		call luaT_gettmbyobj
 1180 0062 7C01      		movw r14,r24
 1181 0064 EF81      		ldd r30,Y+7
GAS LISTING /tmp/ccmC0whv.s 			page 22


 1182 0066 F885      		ldd r31,Y+8
 1183 0068 8189      		ldd r24,Z+17
 1184 006a 9289      		ldd r25,Z+18
 1185 006c 6801      		movw r12,r16
 1186 006e C81A      		sub r12,r24
 1187 0070 D90A      		sbc r13,r25
 1188 0072 D701      		movw r26,r14
 1189 0074 1496      		adiw r26,4
 1190 0076 8D91      		ld r24,X+
 1191 0078 9C91      		ld r25,X
 1192 007a 1597      		sbiw r26,4+1
 1193 007c 0897      		sbiw r24,8
 1194 007e 01F0      		breq .L92
 1195 0080 40E0      		ldi r20,lo8(.LC4)
 1196 0082 50E0      		ldi r21,hi8(.LC4)
 1197 0084 B801      		movw r22,r16
 1198 0086 CF01      		movw r24,r30
 1199 0088 0E94 0000 		call luaG_typeerror
 1200               	.L92:
 1201 008c EF81      		ldd r30,Y+7
 1202 008e F885      		ldd r31,Y+8
 1203 0090 2581      		ldd r18,Z+5
 1204 0092 3681      		ldd r19,Z+6
 1205 0094 F901      		movw r30,r18
 1206               	.L93:
 1207 0096 0E17      		cp r16,r30
 1208 0098 1F07      		cpc r17,r31
 1209 009a 00F4      		brsh .L146
 1210 009c 5F01      		movw r10,r30
 1211 009e 46E0      		ldi r20,6
 1212 00a0 A41A      		sub r10,r20
 1213 00a2 B108      		sbc r11,__zero_reg__
 1214 00a4 D501      		movw r26,r10
 1215 00a6 4D91      		ld r20,X+
 1216 00a8 5D91      		ld r21,X+
 1217 00aa 6D91      		ld r22,X+
 1218 00ac 7C91      		ld r23,X
 1219 00ae 4083      		st Z,r20
 1220 00b0 5183      		std Z+1,r21
 1221 00b2 6283      		std Z+2,r22
 1222 00b4 7383      		std Z+3,r23
 1223 00b6 CF01      		movw r24,r30
 1224 00b8 0297      		sbiw r24,2
 1225 00ba DC01      		movw r26,r24
 1226 00bc 8D91      		ld r24,X+
 1227 00be 9C91      		ld r25,X
 1228 00c0 9583      		std Z+5,r25
 1229 00c2 8483      		std Z+4,r24
 1230 00c4 F501      		movw r30,r10
 1231 00c6 00C0      		rjmp .L93
 1232               	.L146:
 1233 00c8 EF81      		ldd r30,Y+7
 1234 00ca F885      		ldd r31,Y+8
 1235 00cc 8785      		ldd r24,Z+15
 1236 00ce 9089      		ldd r25,Z+16
 1237 00d0 821B      		sub r24,r18
 1238 00d2 930B      		sbc r25,r19
GAS LISTING /tmp/ccmC0whv.s 			page 23


 1239 00d4 0797      		sbiw r24,7
 1240 00d6 04F4      		brge .L95
 1241 00d8 61E0      		ldi r22,lo8(1)
 1242 00da 70E0      		ldi r23,0
 1243 00dc CF01      		movw r24,r30
 1244 00de 0E94 0000 		call luaD_growstack
 1245               	.L95:
 1246 00e2 AF81      		ldd r26,Y+7
 1247 00e4 B885      		ldd r27,Y+8
 1248 00e6 1596      		adiw r26,5
 1249 00e8 8D91      		ld r24,X+
 1250 00ea 9C91      		ld r25,X
 1251 00ec 1697      		sbiw r26,5+1
 1252 00ee 0696      		adiw r24,6
 1253 00f0 1696      		adiw r26,5+1
 1254 00f2 9C93      		st X,r25
 1255 00f4 8E93      		st -X,r24
 1256 00f6 1597      		sbiw r26,5
 1257 00f8 5196      		adiw r26,17
 1258 00fa 0D91      		ld r16,X+
 1259 00fc 1C91      		ld r17,X
 1260 00fe 5297      		sbiw r26,17+1
 1261 0100 0C0D      		add r16,r12
 1262 0102 1D1D      		adc r17,r13
 1263 0104 F701      		movw r30,r14
 1264 0106 8081      		ld r24,Z
 1265 0108 9181      		ldd r25,Z+1
 1266 010a A281      		ldd r26,Z+2
 1267 010c B381      		ldd r27,Z+3
 1268 010e F801      		movw r30,r16
 1269 0110 8083      		st Z,r24
 1270 0112 9183      		std Z+1,r25
 1271 0114 A283      		std Z+2,r26
 1272 0116 B383      		std Z+3,r27
 1273 0118 D701      		movw r26,r14
 1274 011a 1496      		adiw r26,4
 1275 011c 8D91      		ld r24,X+
 1276 011e 9C91      		ld r25,X
 1277 0120 1597      		sbiw r26,4+1
 1278 0122 9583      		std Z+5,r25
 1279 0124 8483      		std Z+4,r24
 1280               	.L91:
 1281 0126 EF81      		ldd r30,Y+7
 1282 0128 F885      		ldd r31,Y+8
 1283 012a 8189      		ldd r24,Z+17
 1284 012c 9289      		ldd r25,Z+18
 1285 012e 9801      		movw r18,r16
 1286 0130 281B      		sub r18,r24
 1287 0132 390B      		sbc r19,r25
 1288 0134 3A83      		std Y+2,r19
 1289 0136 2983      		std Y+1,r18
 1290 0138 D801      		movw r26,r16
 1291 013a 1496      		adiw r26,4
 1292 013c 8D91      		ld r24,X+
 1293 013e 9C91      		ld r25,X
 1294 0140 1597      		sbiw r26,4+1
 1295 0142 0897      		sbiw r24,8
GAS LISTING /tmp/ccmC0whv.s 			page 24


 1296 0144 01F4      		brne .L122
 1297 0146 ED91      		ld r30,X+
 1298 0148 FC91      		ld r31,X
 1299 014a 00C0      		rjmp .L96
 1300               	.L122:
 1301 014c E0E0      		ldi r30,0
 1302 014e F0E0      		ldi r31,0
 1303               	.L96:
 1304 0150 AF81      		ldd r26,Y+7
 1305 0152 B885      		ldd r27,Y+8
 1306 0154 1B96      		adiw r26,11
 1307 0156 2D91      		ld r18,X+
 1308 0158 3C91      		ld r19,X
 1309 015a 1C97      		sbiw r26,11+1
 1310 015c 1D96      		adiw r26,13
 1311 015e 8D91      		ld r24,X+
 1312 0160 9C91      		ld r25,X
 1313 0162 1E97      		sbiw r26,13+1
 1314 0164 D901      		movw r26,r18
 1315 0166 1796      		adiw r26,6+1
 1316 0168 9C93      		st X,r25
 1317 016a 8E93      		st -X,r24
 1318 016c 1697      		sbiw r26,6
 1319 016e AF81      		ldd r26,Y+7
 1320 0170 B885      		ldd r27,Y+8
 1321 0172 1596      		adiw r26,5
 1322 0174 4D91      		ld r20,X+
 1323 0176 5C91      		ld r21,X
 1324 0178 1697      		sbiw r26,5+1
 1325 017a 1F96      		adiw r26,15
 1326 017c 8D91      		ld r24,X+
 1327 017e 9C91      		ld r25,X
 1328 0180 5097      		sbiw r26,15+1
 1329 0182 3097      		sbiw r30,0
 1330 0184 01F4      		brne .+2
 1331 0186 00C0      		rjmp .L97
 1332 0188 2481      		ldd r18,Z+4
 1333 018a 2111      		cpse r18,__zero_reg__
 1334 018c 00C0      		rjmp .L97
 1335 018e E284      		ldd r14,Z+10
 1336 0190 F384      		ldd r15,Z+11
 1337 0192 F701      		movw r30,r14
 1338 0194 27A1      		ldd r18,Z+39
 1339 0196 622F      		mov r22,r18
 1340 0198 70E0      		ldi r23,0
 1341 019a 841B      		sub r24,r20
 1342 019c 950B      		sbc r25,r21
 1343 019e F6E0      		ldi r31,lo8(6)
 1344 01a0 2F9F      		mul r18,r31
 1345 01a2 9001      		movw r18,r0
 1346 01a4 1124      		clr __zero_reg__
 1347 01a6 2817      		cp r18,r24
 1348 01a8 3907      		cpc r19,r25
 1349 01aa 04F0      		brlt .L98
 1350 01ac CD01      		movw r24,r26
 1351 01ae 0E94 0000 		call luaD_growstack
 1352               	.L98:
GAS LISTING /tmp/ccmC0whv.s 			page 25


 1353 01b2 AF81      		ldd r26,Y+7
 1354 01b4 B885      		ldd r27,Y+8
 1355 01b6 5196      		adiw r26,17
 1356 01b8 0D91      		ld r16,X+
 1357 01ba 1C91      		ld r17,X
 1358 01bc 5297      		sbiw r26,17+1
 1359 01be 2981      		ldd r18,Y+1
 1360 01c0 3A81      		ldd r19,Y+2
 1361 01c2 020F      		add r16,r18
 1362 01c4 131F      		adc r17,r19
 1363 01c6 D701      		movw r26,r14
 1364 01c8 9696      		adiw r26,38
 1365 01ca 2C91      		ld r18,X
 1366 01cc 9697      		sbiw r26,38
 1367 01ce EF81      		ldd r30,Y+7
 1368 01d0 F885      		ldd r31,Y+8
 1369 01d2 8581      		ldd r24,Z+5
 1370 01d4 9681      		ldd r25,Z+6
 1371 01d6 9596      		adiw r26,37
 1372 01d8 2C90      		ld r2,X
 1373 01da 2111      		cpse r18,__zero_reg__
 1374 01dc 00C0      		rjmp .L99
 1375 01de 6801      		movw r12,r16
 1376 01e0 F6E0      		ldi r31,6
 1377 01e2 CF0E      		add r12,r31
 1378 01e4 D11C      		adc r13,__zero_reg__
 1379 01e6 9601      		movw r18,r12
 1380 01e8 46E0      		ldi r20,lo8(6)
 1381 01ea 249E      		mul r2,r20
 1382 01ec 200D      		add r18,r0
 1383 01ee 311D      		adc r19,r1
 1384 01f0 1124      		clr __zero_reg__
 1385 01f2 2817      		cp r18,r24
 1386 01f4 3907      		cpc r19,r25
 1387 01f6 00F0      		brlo .+2
 1388 01f8 00C0      		rjmp .L100
 1389 01fa AF81      		ldd r26,Y+7
 1390 01fc B885      		ldd r27,Y+8
 1391 01fe 1696      		adiw r26,5+1
 1392 0200 3C93      		st X,r19
 1393 0202 2E93      		st -X,r18
 1394 0204 1597      		sbiw r26,5
 1395 0206 00C0      		rjmp .L100
 1396               	.L99:
 1397 0208 801B      		sub r24,r16
 1398 020a 910B      		sbc r25,r17
 1399 020c 9595      		asr r25
 1400 020e 8795      		ror r24
 1401 0210 2BEA      		ldi r18,lo8(-85)
 1402 0212 3AEA      		ldi r19,lo8(-86)
 1403 0214 829F      		mul r24,r18
 1404 0216 8001      		movw r16,r0
 1405 0218 839F      		mul r24,r19
 1406 021a 100D      		add r17,r0
 1407 021c 929F      		mul r25,r18
 1408 021e 100D      		add r17,r0
 1409 0220 1124      		clr r1
GAS LISTING /tmp/ccmC0whv.s 			page 26


 1410 0222 0150      		subi r16,1
 1411 0224 1109      		sbc r17,__zero_reg__
 1412 0226 312C      		mov r3,__zero_reg__
 1413               	.L101:
 1414 0228 0215      		cp r16,r2
 1415 022a 1305      		cpc r17,r3
 1416 022c 04F4      		brge .L147
 1417 022e AF81      		ldd r26,Y+7
 1418 0230 B885      		ldd r27,Y+8
 1419 0232 1596      		adiw r26,5
 1420 0234 ED91      		ld r30,X+
 1421 0236 FC91      		ld r31,X
 1422 0238 1697      		sbiw r26,5+1
 1423 023a CF01      		movw r24,r30
 1424 023c 0696      		adiw r24,6
 1425 023e 1696      		adiw r26,5+1
 1426 0240 9C93      		st X,r25
 1427 0242 8E93      		st -X,r24
 1428 0244 1597      		sbiw r26,5
 1429 0246 1582      		std Z+5,__zero_reg__
 1430 0248 1482      		std Z+4,__zero_reg__
 1431 024a 0F5F      		subi r16,-1
 1432 024c 1F4F      		sbci r17,-1
 1433 024e 00C0      		rjmp .L101
 1434               	.L147:
 1435 0250 F701      		movw r30,r14
 1436 0252 86A1      		ldd r24,Z+38
 1437 0254 82FF      		sbrs r24,2
 1438 0256 00C0      		rjmp .L123
 1439 0258 6801      		movw r12,r16
 1440 025a C218      		sub r12,r2
 1441 025c D308      		sbc r13,r3
 1442 025e AF81      		ldd r26,Y+7
 1443 0260 B885      		ldd r27,Y+8
 1444 0262 1996      		adiw r26,9
 1445 0264 ED91      		ld r30,X+
 1446 0266 FC91      		ld r31,X
 1447 0268 1A97      		sbiw r26,9+1
 1448 026a 46A1      		ldd r20,Z+38
 1449 026c 57A1      		ldd r21,Z+39
 1450 026e 60A5      		ldd r22,Z+40
 1451 0270 71A5      		ldd r23,Z+41
 1452 0272 82A1      		ldd r24,Z+34
 1453 0274 93A1      		ldd r25,Z+35
 1454 0276 A4A1      		ldd r26,Z+36
 1455 0278 B5A1      		ldd r27,Z+37
 1456 027a 4817      		cp r20,r24
 1457 027c 5907      		cpc r21,r25
 1458 027e 6A07      		cpc r22,r26
 1459 0280 7B07      		cpc r23,r27
 1460 0282 00F0      		brlo .L104
 1461 0284 8F81      		ldd r24,Y+7
 1462 0286 9885      		ldd r25,Y+8
 1463 0288 0E94 0000 		call luaC_step
 1464               	.L104:
 1465 028c 41E0      		ldi r20,lo8(1)
 1466 028e 50E0      		ldi r21,0
GAS LISTING /tmp/ccmC0whv.s 			page 27


 1467 0290 B601      		movw r22,r12
 1468 0292 8F81      		ldd r24,Y+7
 1469 0294 9885      		ldd r25,Y+8
 1470 0296 0E94 0000 		call luaH_new
 1471 029a 5C01      		movw r10,r24
 1472 029c 4AEF      		ldi r20,lo8(-6)
 1473 029e B601      		movw r22,r12
 1474 02a0 4603      		mulsu r20,r22
 1475 02a2 9001      		movw r18,r0
 1476 02a4 479F      		mul r20,r23
 1477 02a6 300D      		add r19,r0
 1478 02a8 1124      		clr __zero_reg__
 1479 02aa 412C      		mov r4,__zero_reg__
 1480 02ac 512C      		mov r5,__zero_reg__
 1481 02ae 612C      		mov r6,__zero_reg__
 1482 02b0 712C      		mov r7,__zero_reg__
 1483               	.L105:
 1484 02b2 6C14      		cp r6,r12
 1485 02b4 7D04      		cpc r7,r13
 1486 02b6 04F4      		brge .L148
 1487 02b8 C201      		movw r24,r4
 1488 02ba 820F      		add r24,r18
 1489 02bc 931F      		adc r25,r19
 1490 02be AF81      		ldd r26,Y+7
 1491 02c0 B885      		ldd r27,Y+8
 1492 02c2 1596      		adiw r26,5
 1493 02c4 8D90      		ld r8,X+
 1494 02c6 9C90      		ld r9,X
 1495 02c8 1697      		sbiw r26,5+1
 1496 02ca 880E      		add r8,r24
 1497 02cc 991E      		adc r9,r25
 1498 02ce BFEF      		ldi r27,-1
 1499 02d0 6B1A      		sub r6,r27
 1500 02d2 7B0A      		sbc r7,r27
 1501 02d4 A301      		movw r20,r6
 1502 02d6 B501      		movw r22,r10
 1503 02d8 8F81      		ldd r24,Y+7
 1504 02da 9885      		ldd r25,Y+8
 1505 02dc 2D83      		std Y+5,r18
 1506 02de 3E83      		std Y+6,r19
 1507 02e0 0E94 0000 		call luaH_setnum
 1508 02e4 AC01      		movw r20,r24
 1509 02e6 F401      		movw r30,r8
 1510 02e8 8081      		ld r24,Z
 1511 02ea 9181      		ldd r25,Z+1
 1512 02ec A281      		ldd r26,Z+2
 1513 02ee B381      		ldd r27,Z+3
 1514 02f0 FA01      		movw r30,r20
 1515 02f2 8083      		st Z,r24
 1516 02f4 9183      		std Z+1,r25
 1517 02f6 A283      		std Z+2,r26
 1518 02f8 B383      		std Z+3,r27
 1519 02fa D401      		movw r26,r8
 1520 02fc 1496      		adiw r26,4
 1521 02fe 8D91      		ld r24,X+
 1522 0300 9C91      		ld r25,X
 1523 0302 1597      		sbiw r26,4+1
GAS LISTING /tmp/ccmC0whv.s 			page 28


 1524 0304 9583      		std Z+5,r25
 1525 0306 8483      		std Z+4,r24
 1526 0308 B6E0      		ldi r27,6
 1527 030a 4B0E      		add r4,r27
 1528 030c 511C      		adc r5,__zero_reg__
 1529 030e 3E81      		ldd r19,Y+6
 1530 0310 2D81      		ldd r18,Y+5
 1531 0312 00C0      		rjmp .L105
 1532               	.L148:
 1533 0314 41E0      		ldi r20,lo8(1)
 1534 0316 50E0      		ldi r21,0
 1535 0318 60E0      		ldi r22,lo8(.LC5)
 1536 031a 70E0      		ldi r23,hi8(.LC5)
 1537 031c 8F81      		ldd r24,Y+7
 1538 031e 9885      		ldd r25,Y+8
 1539 0320 0E94 0000 		call luaS_newlstr
 1540 0324 AC01      		movw r20,r24
 1541 0326 B501      		movw r22,r10
 1542 0328 8F81      		ldd r24,Y+7
 1543 032a 9885      		ldd r25,Y+8
 1544 032c 0E94 0000 		call luaH_setstr
 1545 0330 A601      		movw r20,r12
 1546 0332 DD0C      		lsl r13
 1547 0334 660B      		sbc r22,r22
 1548 0336 770B      		sbc r23,r23
 1549 0338 FC01      		movw r30,r24
 1550 033a 4083      		st Z,r20
 1551 033c 5183      		std Z+1,r21
 1552 033e 6283      		std Z+2,r22
 1553 0340 7383      		std Z+3,r23
 1554 0342 25E0      		ldi r18,lo8(5)
 1555 0344 30E0      		ldi r19,0
 1556 0346 3583      		std Z+5,r19
 1557 0348 2483      		std Z+4,r18
 1558 034a 00C0      		rjmp .L103
 1559               	.L123:
 1560 034c A12C      		mov r10,__zero_reg__
 1561 034e B12C      		mov r11,__zero_reg__
 1562               	.L103:
 1563 0350 AF81      		ldd r26,Y+7
 1564 0352 B885      		ldd r27,Y+8
 1565 0354 1596      		adiw r26,5
 1566 0356 CD90      		ld r12,X+
 1567 0358 DC90      		ld r13,X
 1568 035a 1697      		sbiw r26,5+1
 1569 035c 26E0      		ldi r18,lo8(6)
 1570 035e 209F      		mul r18,r16
 1571 0360 C001      		movw r24,r0
 1572 0362 219F      		mul r18,r17
 1573 0364 900D      		add r25,r0
 1574 0366 1124      		clr __zero_reg__
 1575 0368 F601      		movw r30,r12
 1576 036a E81B      		sub r30,r24
 1577 036c F90B      		sbc r31,r25
 1578 036e 3496      		adiw r30,4
 1579 0370 80E0      		ldi r24,0
 1580 0372 90E0      		ldi r25,0
GAS LISTING /tmp/ccmC0whv.s 			page 29


 1581               	.L107:
 1582 0374 8215      		cp r24,r2
 1583 0376 9305      		cpc r25,r3
 1584 0378 04F4      		brge .L149
 1585 037a AF81      		ldd r26,Y+7
 1586 037c B885      		ldd r27,Y+8
 1587 037e 1596      		adiw r26,5
 1588 0380 0D91      		ld r16,X+
 1589 0382 1C91      		ld r17,X
 1590 0384 1697      		sbiw r26,5+1
 1591 0386 9801      		movw r18,r16
 1592 0388 2A5F      		subi r18,-6
 1593 038a 3F4F      		sbci r19,-1
 1594 038c 1696      		adiw r26,5+1
 1595 038e 3C93      		st X,r19
 1596 0390 2E93      		st -X,r18
 1597 0392 1597      		sbiw r26,5
 1598 0394 9F01      		movw r18,r30
 1599 0396 2450      		subi r18,4
 1600 0398 3109      		sbc r19,__zero_reg__
 1601 039a D901      		movw r26,r18
 1602 039c 4D91      		ld r20,X+
 1603 039e 5D91      		ld r21,X+
 1604 03a0 6D91      		ld r22,X+
 1605 03a2 7C91      		ld r23,X
 1606 03a4 D801      		movw r26,r16
 1607 03a6 4D93      		st X+,r20
 1608 03a8 5D93      		st X+,r21
 1609 03aa 6D93      		st X+,r22
 1610 03ac 7C93      		st X,r23
 1611 03ae 1397      		sbiw r26,3
 1612 03b0 2081      		ld r18,Z
 1613 03b2 3181      		ldd r19,Z+1
 1614 03b4 1596      		adiw r26,4+1
 1615 03b6 3C93      		st X,r19
 1616 03b8 2E93      		st -X,r18
 1617 03ba 1497      		sbiw r26,4
 1618 03bc 1182      		std Z+1,__zero_reg__
 1619 03be 1082      		st Z,__zero_reg__
 1620 03c0 0196      		adiw r24,1
 1621 03c2 3696      		adiw r30,6
 1622 03c4 00C0      		rjmp .L107
 1623               	.L149:
 1624 03c6 A114      		cp r10,__zero_reg__
 1625 03c8 B104      		cpc r11,__zero_reg__
 1626 03ca 01F0      		breq .L109
 1627 03cc AF81      		ldd r26,Y+7
 1628 03ce B885      		ldd r27,Y+8
 1629 03d0 1596      		adiw r26,5
 1630 03d2 ED91      		ld r30,X+
 1631 03d4 FC91      		ld r31,X
 1632 03d6 1697      		sbiw r26,5+1
 1633 03d8 CF01      		movw r24,r30
 1634 03da 0696      		adiw r24,6
 1635 03dc 1696      		adiw r26,5+1
 1636 03de 9C93      		st X,r25
 1637 03e0 8E93      		st -X,r24
GAS LISTING /tmp/ccmC0whv.s 			page 30


 1638 03e2 1597      		sbiw r26,5
 1639 03e4 B182      		std Z+1,r11
 1640 03e6 A082      		st Z,r10
 1641 03e8 87E0      		ldi r24,lo8(7)
 1642 03ea 90E0      		ldi r25,0
 1643 03ec 9583      		std Z+5,r25
 1644 03ee 8483      		std Z+4,r24
 1645               	.L109:
 1646 03f0 EF81      		ldd r30,Y+7
 1647 03f2 F885      		ldd r31,Y+8
 1648 03f4 0189      		ldd r16,Z+17
 1649 03f6 1289      		ldd r17,Z+18
 1650 03f8 2981      		ldd r18,Y+1
 1651 03fa 3A81      		ldd r19,Y+2
 1652 03fc 020F      		add r16,r18
 1653 03fe 131F      		adc r17,r19
 1654               	.L100:
 1655 0400 AF81      		ldd r26,Y+7
 1656 0402 B885      		ldd r27,Y+8
 1657 0404 1B96      		adiw r26,11
 1658 0406 ED91      		ld r30,X+
 1659 0408 FC91      		ld r31,X
 1660 040a 1C97      		sbiw r26,11+1
 1661 040c 5396      		adiw r26,19
 1662 040e 8D91      		ld r24,X+
 1663 0410 9C91      		ld r25,X
 1664 0412 5497      		sbiw r26,19+1
 1665 0414 E817      		cp r30,r24
 1666 0416 F907      		cpc r31,r25
 1667 0418 01F4      		brne .L110
 1668 041a CD01      		movw r24,r26
 1669 041c 0E94 0000 		call growCI
 1670 0420 FC01      		movw r30,r24
 1671 0422 00C0      		rjmp .L111
 1672               	.L110:
 1673 0424 3C96      		adiw r30,12
 1674 0426 AF81      		ldd r26,Y+7
 1675 0428 B885      		ldd r27,Y+8
 1676 042a 1C96      		adiw r26,11+1
 1677 042c FC93      		st X,r31
 1678 042e EE93      		st -X,r30
 1679 0430 1B97      		sbiw r26,11
 1680               	.L111:
 1681 0432 1383      		std Z+3,r17
 1682 0434 0283      		std Z+2,r16
 1683 0436 D182      		std Z+1,r13
 1684 0438 C082      		st Z,r12
 1685 043a AF81      		ldd r26,Y+7
 1686 043c B885      		ldd r27,Y+8
 1687 043e 1896      		adiw r26,7+1
 1688 0440 DC92      		st X,r13
 1689 0442 CE92      		st -X,r12
 1690 0444 1797      		sbiw r26,7
 1691 0446 D701      		movw r26,r14
 1692 0448 9796      		adiw r26,39
 1693 044a 8C91      		ld r24,X
 1694 044c B6E0      		ldi r27,lo8(6)
GAS LISTING /tmp/ccmC0whv.s 			page 31


 1695 044e 8B9F      		mul r24,r27
 1696 0450 C00C      		add r12,r0
 1697 0452 D11C      		adc r13,r1
 1698 0454 1124      		clr __zero_reg__
 1699 0456 D582      		std Z+5,r13
 1700 0458 C482      		std Z+4,r12
 1701 045a D701      		movw r26,r14
 1702 045c 1696      		adiw r26,6
 1703 045e 8D91      		ld r24,X+
 1704 0460 9C91      		ld r25,X
 1705 0462 1797      		sbiw r26,6+1
 1706 0464 AF81      		ldd r26,Y+7
 1707 0466 B885      		ldd r27,Y+8
 1708 0468 1E96      		adiw r26,13+1
 1709 046a 9C93      		st X,r25
 1710 046c 8E93      		st -X,r24
 1711 046e 1D97      		sbiw r26,13
 1712 0470 1386      		std Z+11,__zero_reg__
 1713 0472 1286      		std Z+10,__zero_reg__
 1714 0474 2B81      		ldd r18,Y+3
 1715 0476 3C81      		ldd r19,Y+4
 1716 0478 3187      		std Z+9,r19
 1717 047a 2087      		std Z+8,r18
 1718 047c 1596      		adiw r26,5
 1719 047e ED91      		ld r30,X+
 1720 0480 FC91      		ld r31,X
 1721 0482 1697      		sbiw r26,5+1
 1722 0484 3496      		adiw r30,4
 1723               	.L112:
 1724 0486 9F01      		movw r18,r30
 1725 0488 2450      		subi r18,4
 1726 048a 3109      		sbc r19,__zero_reg__
 1727 048c 2C15      		cp r18,r12
 1728 048e 3D05      		cpc r19,r13
 1729 0490 00F4      		brsh .L150
 1730 0492 1182      		std Z+1,__zero_reg__
 1731 0494 1082      		st Z,__zero_reg__
 1732 0496 3696      		adiw r30,6
 1733 0498 00C0      		rjmp .L112
 1734               	.L150:
 1735 049a AF81      		ldd r26,Y+7
 1736 049c B885      		ldd r27,Y+8
 1737 049e 1696      		adiw r26,5+1
 1738 04a0 DC92      		st X,r13
 1739 04a2 CE92      		st -X,r12
 1740 04a4 1597      		sbiw r26,5
 1741 04a6 5F96      		adiw r26,31
 1742 04a8 2C91      		ld r18,X
 1743 04aa 5F97      		sbiw r26,31
 1744 04ac 20FF      		sbrs r18,0
 1745 04ae 00C0      		rjmp .L124
 1746 04b0 0496      		adiw r24,4
 1747 04b2 1E96      		adiw r26,13+1
 1748 04b4 9C93      		st X,r25
 1749 04b6 8E93      		st -X,r24
 1750 04b8 1D97      		sbiw r26,13
 1751 04ba 4FEF      		ldi r20,lo8(-1)
GAS LISTING /tmp/ccmC0whv.s 			page 32


 1752 04bc 5FEF      		ldi r21,lo8(-1)
 1753 04be 60E0      		ldi r22,0
 1754 04c0 70E0      		ldi r23,0
 1755 04c2 CD01      		movw r24,r26
 1756 04c4 0E94 0000 		call luaD_callhook
 1757 04c8 EF81      		ldd r30,Y+7
 1758 04ca F885      		ldd r31,Y+8
 1759 04cc 8585      		ldd r24,Z+13
 1760 04ce 9685      		ldd r25,Z+14
 1761 04d0 0497      		sbiw r24,4
 1762 04d2 9687      		std Z+14,r25
 1763 04d4 8587      		std Z+13,r24
 1764 04d6 00C0      		rjmp .L124
 1765               	.L97:
 1766 04d8 841B      		sub r24,r20
 1767 04da 950B      		sbc r25,r21
 1768 04dc 8937      		cpi r24,121
 1769 04de 9105      		cpc r25,__zero_reg__
 1770 04e0 04F4      		brge .L115
 1771 04e2 64E1      		ldi r22,lo8(20)
 1772 04e4 70E0      		ldi r23,0
 1773 04e6 8F81      		ldd r24,Y+7
 1774 04e8 9885      		ldd r25,Y+8
 1775 04ea 0E94 0000 		call luaD_growstack
 1776               	.L115:
 1777 04ee AF81      		ldd r26,Y+7
 1778 04f0 B885      		ldd r27,Y+8
 1779 04f2 1B96      		adiw r26,11
 1780 04f4 ED91      		ld r30,X+
 1781 04f6 FC91      		ld r31,X
 1782 04f8 1C97      		sbiw r26,11+1
 1783 04fa 5396      		adiw r26,19
 1784 04fc 8D91      		ld r24,X+
 1785 04fe 9C91      		ld r25,X
 1786 0500 5497      		sbiw r26,19+1
 1787 0502 E817      		cp r30,r24
 1788 0504 F907      		cpc r31,r25
 1789 0506 01F4      		brne .L116
 1790 0508 CD01      		movw r24,r26
 1791 050a 0E94 0000 		call growCI
 1792 050e FC01      		movw r30,r24
 1793 0510 00C0      		rjmp .L117
 1794               	.L116:
 1795 0512 3C96      		adiw r30,12
 1796 0514 AF81      		ldd r26,Y+7
 1797 0516 B885      		ldd r27,Y+8
 1798 0518 1C96      		adiw r26,11+1
 1799 051a FC93      		st X,r31
 1800 051c EE93      		st -X,r30
 1801 051e 1B97      		sbiw r26,11
 1802               	.L117:
 1803 0520 AF81      		ldd r26,Y+7
 1804 0522 B885      		ldd r27,Y+8
 1805 0524 5196      		adiw r26,17
 1806 0526 8D91      		ld r24,X+
 1807 0528 9C91      		ld r25,X
 1808 052a 5297      		sbiw r26,17+1
GAS LISTING /tmp/ccmC0whv.s 			page 33


 1809 052c 2981      		ldd r18,Y+1
 1810 052e 3A81      		ldd r19,Y+2
 1811 0530 820F      		add r24,r18
 1812 0532 931F      		adc r25,r19
 1813 0534 9383      		std Z+3,r25
 1814 0536 8283      		std Z+2,r24
 1815 0538 0696      		adiw r24,6
 1816 053a 9183      		std Z+1,r25
 1817 053c 8083      		st Z,r24
 1818 053e 1896      		adiw r26,7+1
 1819 0540 9C93      		st X,r25
 1820 0542 8E93      		st -X,r24
 1821 0544 1797      		sbiw r26,7
 1822 0546 1596      		adiw r26,5
 1823 0548 8D91      		ld r24,X+
 1824 054a 9C91      		ld r25,X
 1825 054c 1697      		sbiw r26,5+1
 1826 054e 8858      		subi r24,-120
 1827 0550 9F4F      		sbci r25,-1
 1828 0552 9583      		std Z+5,r25
 1829 0554 8483      		std Z+4,r24
 1830 0556 2B81      		ldd r18,Y+3
 1831 0558 3C81      		ldd r19,Y+4
 1832 055a 3187      		std Z+9,r19
 1833 055c 2087      		std Z+8,r18
 1834 055e 5F96      		adiw r26,31
 1835 0560 8C91      		ld r24,X
 1836 0562 5F97      		sbiw r26,31
 1837 0564 80FF      		sbrs r24,0
 1838 0566 00C0      		rjmp .L118
 1839 0568 4FEF      		ldi r20,lo8(-1)
 1840 056a 5FEF      		ldi r21,lo8(-1)
 1841 056c 60E0      		ldi r22,0
 1842 056e 70E0      		ldi r23,0
 1843 0570 CD01      		movw r24,r26
 1844 0572 0E94 0000 		call luaD_callhook
 1845               	.L118:
 1846 0576 D801      		movw r26,r16
 1847 0578 1496      		adiw r26,4
 1848 057a 8D91      		ld r24,X+
 1849 057c 9C91      		ld r25,X
 1850 057e 1597      		sbiw r26,4+1
 1851 0580 0897      		sbiw r24,8
 1852 0582 01F4      		brne .L119
 1853 0584 AF81      		ldd r26,Y+7
 1854 0586 B885      		ldd r27,Y+8
 1855 0588 1B96      		adiw r26,11
 1856 058a ED91      		ld r30,X+
 1857 058c FC91      		ld r31,X
 1858 058e 1C97      		sbiw r26,11+1
 1859 0590 0280      		ldd __tmp_reg__,Z+2
 1860 0592 F381      		ldd r31,Z+3
 1861 0594 E02D      		mov r30,__tmp_reg__
 1862 0596 8481      		ldd r24,Z+4
 1863 0598 9581      		ldd r25,Z+5
 1864 059a 0897      		sbiw r24,8
 1865 059c 01F4      		brne .L125
GAS LISTING /tmp/ccmC0whv.s 			page 34


 1866 059e 0190      		ld __tmp_reg__,Z+
 1867 05a0 F081      		ld r31,Z
 1868 05a2 E02D      		mov r30,__tmp_reg__
 1869 05a4 00C0      		rjmp .L120
 1870               	.L125:
 1871 05a6 E0E0      		ldi r30,0
 1872 05a8 F0E0      		ldi r31,0
 1873               	.L120:
 1874 05aa 0284      		ldd __tmp_reg__,Z+10
 1875 05ac F385      		ldd r31,Z+11
 1876 05ae E02D      		mov r30,__tmp_reg__
 1877 05b0 00C0      		rjmp .L145
 1878               	.L119:
 1879 05b2 D801      		movw r26,r16
 1880 05b4 ED91      		ld r30,X+
 1881 05b6 FC91      		ld r31,X
 1882               	.L145:
 1883 05b8 8F81      		ldd r24,Y+7
 1884 05ba 9885      		ldd r25,Y+8
 1885 05bc 1995      		eicall
 1886 05be 97FD      		sbrc r25,7
 1887 05c0 00C0      		rjmp .L126
 1888 05c2 46E0      		ldi r20,lo8(6)
 1889 05c4 489F      		mul r20,r24
 1890 05c6 9001      		movw r18,r0
 1891 05c8 499F      		mul r20,r25
 1892 05ca 300D      		add r19,r0
 1893 05cc 1124      		clr __zero_reg__
 1894 05ce EF81      		ldd r30,Y+7
 1895 05d0 F885      		ldd r31,Y+8
 1896 05d2 6581      		ldd r22,Z+5
 1897 05d4 7681      		ldd r23,Z+6
 1898 05d6 621B      		sub r22,r18
 1899 05d8 730B      		sbc r23,r19
 1900 05da CF01      		movw r24,r30
 1901 05dc 0E94 0000 		call luaD_poscall
 1902 05e0 81E0      		ldi r24,lo8(1)
 1903 05e2 90E0      		ldi r25,0
 1904 05e4 00C0      		rjmp .L114
 1905               	.L124:
 1906 05e6 80E0      		ldi r24,0
 1907 05e8 90E0      		ldi r25,0
 1908 05ea 00C0      		rjmp .L114
 1909               	.L126:
 1910 05ec 82E0      		ldi r24,lo8(2)
 1911 05ee 90E0      		ldi r25,0
 1912               	.L114:
 1913               	/* epilogue start */
 1914 05f0 2896      		adiw r28,8
 1915 05f2 0FB6      		in __tmp_reg__,__SREG__
 1916 05f4 F894      		cli
 1917 05f6 DEBF      		out __SP_H__,r29
 1918 05f8 0FBE      		out __SREG__,__tmp_reg__
 1919 05fa CDBF      		out __SP_L__,r28
 1920 05fc DF91      		pop r29
 1921 05fe CF91      		pop r28
 1922 0600 1F91      		pop r17
GAS LISTING /tmp/ccmC0whv.s 			page 35


 1923 0602 0F91      		pop r16
 1924 0604 FF90      		pop r15
 1925 0606 EF90      		pop r14
 1926 0608 DF90      		pop r13
 1927 060a CF90      		pop r12
 1928 060c BF90      		pop r11
 1929 060e AF90      		pop r10
 1930 0610 9F90      		pop r9
 1931 0612 8F90      		pop r8
 1932 0614 7F90      		pop r7
 1933 0616 6F90      		pop r6
 1934 0618 5F90      		pop r5
 1935 061a 4F90      		pop r4
 1936 061c 3F90      		pop r3
 1937 061e 2F90      		pop r2
 1938 0620 0895      		ret
 1939               		.size	luaD_precall, .-luaD_precall
 1940               		.section	.text.resume,"ax",@progbits
 1941               		.type	resume, @function
 1942               	resume:
 1943 0000 CF93      		push r28
 1944 0002 DF93      		push r29
 1945               	/* prologue: function */
 1946               	/* frame size = 0 */
 1947               	/* stack size = 2 */
 1948               	.L__stack_usage = 2
 1949 0004 EC01      		movw r28,r24
 1950 0006 8C81      		ldd r24,Y+4
 1951 0008 8111      		cpse r24,__zero_reg__
 1952 000a 00C0      		rjmp .L152
 1953 000c 6650      		subi r22,6
 1954 000e 7109      		sbc r23,__zero_reg__
 1955 0010 4FEF      		ldi r20,lo8(-1)
 1956 0012 5FEF      		ldi r21,lo8(-1)
 1957 0014 CE01      		movw r24,r28
 1958 0016 0E94 0000 		call luaD_precall
 1959 001a 892B      		or r24,r25
 1960 001c 01F0      		breq .L154
 1961 001e 00C0      		rjmp .L166
 1962               	.L152:
 1963 0020 EB85      		ldd r30,Y+11
 1964 0022 FC85      		ldd r31,Y+12
 1965 0024 1C82      		std Y+4,__zero_reg__
 1966 0026 A281      		ldd r26,Z+2
 1967 0028 B381      		ldd r27,Z+3
 1968 002a 1496      		adiw r26,4
 1969 002c 8D91      		ld r24,X+
 1970 002e 9C91      		ld r25,X
 1971 0030 1597      		sbiw r26,4+1
 1972 0032 8330      		cpi r24,3
 1973 0034 9105      		cpc r25,__zero_reg__
 1974 0036 01F0      		breq .L155
 1975 0038 0897      		sbiw r24,8
 1976 003a 01F4      		brne .L159
 1977 003c 0D90      		ld __tmp_reg__,X+
 1978 003e BC91      		ld r27,X
 1979 0040 A02D      		mov r26,__tmp_reg__
GAS LISTING /tmp/ccmC0whv.s 			page 36


 1980 0042 00C0      		rjmp .L156
 1981               	.L159:
 1982 0044 A0E0      		ldi r26,0
 1983 0046 B0E0      		ldi r27,0
 1984               	.L156:
 1985 0048 1496      		adiw r26,4
 1986 004a 8C91      		ld r24,X
 1987 004c 8823      		tst r24
 1988 004e 01F0      		breq .L157
 1989               	.L155:
 1990 0050 CE01      		movw r24,r28
 1991 0052 0E94 0000 		call luaD_poscall
 1992 0056 892B      		or r24,r25
 1993 0058 01F0      		breq .L154
 1994 005a EB85      		ldd r30,Y+11
 1995 005c FC85      		ldd r31,Y+12
 1996 005e 8481      		ldd r24,Z+4
 1997 0060 9581      		ldd r25,Z+5
 1998 0062 9E83      		std Y+6,r25
 1999 0064 8D83      		std Y+5,r24
 2000 0066 00C0      		rjmp .L154
 2001               	.L157:
 2002 0068 8081      		ld r24,Z
 2003 006a 9181      		ldd r25,Z+1
 2004 006c 9887      		std Y+8,r25
 2005 006e 8F83      		std Y+7,r24
 2006               	.L154:
 2007 0070 8B85      		ldd r24,Y+11
 2008 0072 9C85      		ldd r25,Y+12
 2009 0074 2D89      		ldd r18,Y+21
 2010 0076 3E89      		ldd r19,Y+22
 2011 0078 821B      		sub r24,r18
 2012 007a 930B      		sbc r25,r19
 2013 007c 9595      		asr r25
 2014 007e 8795      		ror r24
 2015 0080 9595      		asr r25
 2016 0082 8795      		ror r24
 2017 0084 2BEA      		ldi r18,lo8(-85)
 2018 0086 3AEA      		ldi r19,lo8(-86)
 2019 0088 829F      		mul r24,r18
 2020 008a B001      		movw r22,r0
 2021 008c 839F      		mul r24,r19
 2022 008e 700D      		add r23,r0
 2023 0090 929F      		mul r25,r18
 2024 0092 700D      		add r23,r0
 2025 0094 1124      		clr r1
 2026 0096 CE01      		movw r24,r28
 2027               	/* epilogue start */
 2028 0098 DF91      		pop r29
 2029 009a CF91      		pop r28
 2030 009c 0C94 0000 		jmp luaV_execute
 2031               	.L166:
 2032               	/* epilogue start */
 2033 00a0 DF91      		pop r29
 2034 00a2 CF91      		pop r28
 2035 00a4 0895      		ret
 2036               		.size	resume, .-resume
GAS LISTING /tmp/ccmC0whv.s 			page 37


 2037               		.section	.rodata.str1.1
 2038               	.LC6:
 2039 0053 4320 7374 		.string	"C stack overflow"
 2039      6163 6B20 
 2039      6F76 6572 
 2039      666C 6F77 
 2039      00
 2040               		.section	.text.luaD_call,"ax",@progbits
 2041               	.global	luaD_call
 2042               		.hidden	luaD_call
 2043               		.type	luaD_call, @function
 2044               	luaD_call:
 2045 0000 0F93      		push r16
 2046 0002 1F93      		push r17
 2047 0004 CF93      		push r28
 2048 0006 DF93      		push r29
 2049 0008 00D0      		rcall .
 2050 000a 1F92      		push __zero_reg__
 2051 000c CDB7      		in r28,__SP_L__
 2052 000e DEB7      		in r29,__SP_H__
 2053               	/* prologue: function */
 2054               	/* frame size = 4 */
 2055               	/* stack size = 8 */
 2056               	.L__stack_usage = 8
 2057 0010 8C01      		movw r16,r24
 2058 0012 DC01      		movw r26,r24
 2059 0014 5B96      		adiw r26,27
 2060 0016 8D91      		ld r24,X+
 2061 0018 9C91      		ld r25,X
 2062 001a 5C97      		sbiw r26,27+1
 2063 001c 0196      		adiw r24,1
 2064 001e 5C96      		adiw r26,27+1
 2065 0020 9C93      		st X,r25
 2066 0022 8E93      		st -X,r24
 2067 0024 5B97      		sbiw r26,27
 2068 0026 883C      		cpi r24,-56
 2069 0028 9105      		cpc r25,__zero_reg__
 2070 002a 00F0      		brlo .L168
 2071 002c 883C      		cpi r24,-56
 2072 002e 9105      		cpc r25,__zero_reg__
 2073 0030 01F4      		brne .L169
 2074 0032 80E0      		ldi r24,lo8(.LC6)
 2075 0034 90E0      		ldi r25,hi8(.LC6)
 2076 0036 9F93      		push r25
 2077 0038 8F93      		push r24
 2078 003a 1F93      		push r17
 2079 003c 0F93      		push r16
 2080 003e 4B83      		std Y+3,r20
 2081 0040 5C83      		std Y+4,r21
 2082 0042 6983      		std Y+1,r22
 2083 0044 7A83      		std Y+2,r23
 2084 0046 0E94 0000 		call luaG_runerror
 2085 004a 0F90      		pop __tmp_reg__
 2086 004c 0F90      		pop __tmp_reg__
 2087 004e 0F90      		pop __tmp_reg__
 2088 0050 0F90      		pop __tmp_reg__
 2089 0052 4B81      		ldd r20,Y+3
GAS LISTING /tmp/ccmC0whv.s 			page 38


 2090 0054 5C81      		ldd r21,Y+4
 2091 0056 6981      		ldd r22,Y+1
 2092 0058 7A81      		ldd r23,Y+2
 2093 005a 00C0      		rjmp .L168
 2094               	.L169:
 2095 005c 813E      		cpi r24,-31
 2096 005e 9105      		cpc r25,__zero_reg__
 2097 0060 00F0      		brlo .L168
 2098 0062 65E0      		ldi r22,lo8(5)
 2099 0064 70E0      		ldi r23,0
 2100 0066 C801      		movw r24,r16
 2101 0068 0E94 0000 		call luaD_throw
 2102               	.L168:
 2103 006c C801      		movw r24,r16
 2104 006e 0E94 0000 		call luaD_precall
 2105 0072 892B      		or r24,r25
 2106 0074 01F4      		brne .L170
 2107 0076 61E0      		ldi r22,lo8(1)
 2108 0078 70E0      		ldi r23,0
 2109 007a C801      		movw r24,r16
 2110 007c 0E94 0000 		call luaV_execute
 2111               	.L170:
 2112 0080 F801      		movw r30,r16
 2113 0082 838D      		ldd r24,Z+27
 2114 0084 948D      		ldd r25,Z+28
 2115 0086 0197      		sbiw r24,1
 2116 0088 948F      		std Z+28,r25
 2117 008a 838F      		std Z+27,r24
 2118 008c 0184      		ldd __tmp_reg__,Z+9
 2119 008e F285      		ldd r31,Z+10
 2120 0090 E02D      		mov r30,__tmp_reg__
 2121 0092 46A1      		ldd r20,Z+38
 2122 0094 57A1      		ldd r21,Z+39
 2123 0096 60A5      		ldd r22,Z+40
 2124 0098 71A5      		ldd r23,Z+41
 2125 009a 82A1      		ldd r24,Z+34
 2126 009c 93A1      		ldd r25,Z+35
 2127 009e A4A1      		ldd r26,Z+36
 2128 00a0 B5A1      		ldd r27,Z+37
 2129 00a2 4817      		cp r20,r24
 2130 00a4 5907      		cpc r21,r25
 2131 00a6 6A07      		cpc r22,r26
 2132 00a8 7B07      		cpc r23,r27
 2133 00aa 00F0      		brlo .L167
 2134 00ac C801      		movw r24,r16
 2135               	/* epilogue start */
 2136 00ae 0F90      		pop __tmp_reg__
 2137 00b0 0F90      		pop __tmp_reg__
 2138 00b2 0F90      		pop __tmp_reg__
 2139 00b4 0F90      		pop __tmp_reg__
 2140 00b6 DF91      		pop r29
 2141 00b8 CF91      		pop r28
 2142 00ba 1F91      		pop r17
 2143 00bc 0F91      		pop r16
 2144 00be 0C94 0000 		jmp luaC_step
 2145               	.L167:
 2146               	/* epilogue start */
GAS LISTING /tmp/ccmC0whv.s 			page 39


 2147 00c2 0F90      		pop __tmp_reg__
 2148 00c4 0F90      		pop __tmp_reg__
 2149 00c6 0F90      		pop __tmp_reg__
 2150 00c8 0F90      		pop __tmp_reg__
 2151 00ca DF91      		pop r29
 2152 00cc CF91      		pop r28
 2153 00ce 1F91      		pop r17
 2154 00d0 0F91      		pop r16
 2155 00d2 0895      		ret
 2156               		.size	luaD_call, .-luaD_call
 2157               		.section	.rodata.str1.1
 2158               	.LC7:
 2159 0064 6361 6E6E 		.string	"cannot resume non-suspended coroutine"
 2159      6F74 2072 
 2159      6573 756D 
 2159      6520 6E6F 
 2159      6E2D 7375 
 2160               		.section	.text.lua_resume,"ax",@progbits
 2161               	.global	lua_resume
 2162               		.type	lua_resume, @function
 2163               	lua_resume:
 2164 0000 0F93      		push r16
 2165 0002 1F93      		push r17
 2166 0004 CF93      		push r28
 2167 0006 DF93      		push r29
 2168               	/* prologue: function */
 2169               	/* frame size = 0 */
 2170               	/* stack size = 4 */
 2171               	.L__stack_usage = 4
 2172 0008 EC01      		movw r28,r24
 2173 000a 8C81      		ldd r24,Y+4
 2174 000c 8130      		cpi r24,lo8(1)
 2175 000e 01F0      		breq .L173
 2176 0010 8111      		cpse r24,__zero_reg__
 2177 0012 00C0      		rjmp .L174
 2178 0014 2B85      		ldd r18,Y+11
 2179 0016 3C85      		ldd r19,Y+12
 2180 0018 8D89      		ldd r24,Y+21
 2181 001a 9E89      		ldd r25,Y+22
 2182 001c 2817      		cp r18,r24
 2183 001e 3907      		cpc r19,r25
 2184 0020 01F0      		breq .L173
 2185               	.L174:
 2186 0022 60E0      		ldi r22,lo8(.LC7)
 2187 0024 70E0      		ldi r23,hi8(.LC7)
 2188 0026 00C0      		rjmp .L181
 2189               	.L173:
 2190 0028 8B8D      		ldd r24,Y+27
 2191 002a 9C8D      		ldd r25,Y+28
 2192 002c 883C      		cpi r24,-56
 2193 002e 9105      		cpc r25,__zero_reg__
 2194 0030 00F0      		brlo .L175
 2195 0032 60E0      		ldi r22,lo8(.LC6)
 2196 0034 70E0      		ldi r23,hi8(.LC6)
 2197               	.L181:
 2198 0036 CE01      		movw r24,r28
 2199               	/* epilogue start */
GAS LISTING /tmp/ccmC0whv.s 			page 40


 2200 0038 DF91      		pop r29
 2201 003a CF91      		pop r28
 2202 003c 1F91      		pop r17
 2203 003e 0F91      		pop r16
 2204 0040 0C94 0000 		jmp resume_error
 2205               	.L175:
 2206 0044 0196      		adiw r24,1
 2207 0046 9C8F      		std Y+28,r25
 2208 0048 8B8F      		std Y+27,r24
 2209 004a 9E8F      		std Y+30,r25
 2210 004c 8D8F      		std Y+29,r24
 2211 004e 26E0      		ldi r18,lo8(6)
 2212 0050 269F      		mul r18,r22
 2213 0052 C001      		movw r24,r0
 2214 0054 279F      		mul r18,r23
 2215 0056 900D      		add r25,r0
 2216 0058 1124      		clr __zero_reg__
 2217 005a 4D81      		ldd r20,Y+5
 2218 005c 5E81      		ldd r21,Y+6
 2219 005e 481B      		sub r20,r24
 2220 0060 590B      		sbc r21,r25
 2221 0062 60E0      		ldi r22,lo8(gs(resume))
 2222 0064 70E0      		ldi r23,hi8(gs(resume))
 2223 0066 CE01      		movw r24,r28
 2224 0068 0E94 0000 		call luaD_rawrunprotected
 2225 006c 8C01      		movw r16,r24
 2226 006e 0097      		sbiw r24,0
 2227 0070 01F0      		breq .L176
 2228 0072 8C83      		std Y+4,r24
 2229 0074 4D81      		ldd r20,Y+5
 2230 0076 5E81      		ldd r21,Y+6
 2231 0078 BC01      		movw r22,r24
 2232 007a CE01      		movw r24,r28
 2233 007c 0E94 0000 		call luaD_seterrorobj
 2234 0080 EB85      		ldd r30,Y+11
 2235 0082 FC85      		ldd r31,Y+12
 2236 0084 8D81      		ldd r24,Y+5
 2237 0086 9E81      		ldd r25,Y+6
 2238 0088 9583      		std Z+5,r25
 2239 008a 8483      		std Z+4,r24
 2240 008c 00C0      		rjmp .L177
 2241               	.L176:
 2242 008e 0C81      		ldd r16,Y+4
 2243 0090 10E0      		ldi r17,0
 2244               	.L177:
 2245 0092 8B8D      		ldd r24,Y+27
 2246 0094 9C8D      		ldd r25,Y+28
 2247 0096 0197      		sbiw r24,1
 2248 0098 9C8F      		std Y+28,r25
 2249 009a 8B8F      		std Y+27,r24
 2250 009c C801      		movw r24,r16
 2251               	/* epilogue start */
 2252 009e DF91      		pop r29
 2253 00a0 CF91      		pop r28
 2254 00a2 1F91      		pop r17
 2255 00a4 0F91      		pop r16
 2256 00a6 0895      		ret
GAS LISTING /tmp/ccmC0whv.s 			page 41


 2257               		.size	lua_resume, .-lua_resume
 2258               		.section	.rodata.str1.1
 2259               	.LC8:
 2260 008a 6174 7465 		.string	"attempt to yield across metamethod/C-call boundary"
 2260      6D70 7420 
 2260      746F 2079 
 2260      6965 6C64 
 2260      2061 6372 
 2261               		.section	.text.lua_yield,"ax",@progbits
 2262               	.global	lua_yield
 2263               		.type	lua_yield, @function
 2264               	lua_yield:
 2265 0000 0F93      		push r16
 2266 0002 1F93      		push r17
 2267 0004 CF93      		push r28
 2268 0006 DF93      		push r29
 2269               	/* prologue: function */
 2270               	/* frame size = 0 */
 2271               	/* stack size = 4 */
 2272               	.L__stack_usage = 4
 2273 0008 EC01      		movw r28,r24
 2274 000a 8B01      		movw r16,r22
 2275 000c 2B8D      		ldd r18,Y+27
 2276 000e 3C8D      		ldd r19,Y+28
 2277 0010 8D8D      		ldd r24,Y+29
 2278 0012 9E8D      		ldd r25,Y+30
 2279 0014 8217      		cp r24,r18
 2280 0016 9307      		cpc r25,r19
 2281 0018 00F4      		brsh .L183
 2282 001a 80E0      		ldi r24,lo8(.LC8)
 2283 001c 90E0      		ldi r25,hi8(.LC8)
 2284 001e 9F93      		push r25
 2285 0020 8F93      		push r24
 2286 0022 DF93      		push r29
 2287 0024 CF93      		push r28
 2288 0026 0E94 0000 		call luaG_runerror
 2289 002a 0F90      		pop __tmp_reg__
 2290 002c 0F90      		pop __tmp_reg__
 2291 002e 0F90      		pop __tmp_reg__
 2292 0030 0F90      		pop __tmp_reg__
 2293               	.L183:
 2294 0032 86E0      		ldi r24,lo8(6)
 2295 0034 809F      		mul r24,r16
 2296 0036 9001      		movw r18,r0
 2297 0038 819F      		mul r24,r17
 2298 003a 300D      		add r19,r0
 2299 003c 1124      		clr __zero_reg__
 2300 003e 8D81      		ldd r24,Y+5
 2301 0040 9E81      		ldd r25,Y+6
 2302 0042 821B      		sub r24,r18
 2303 0044 930B      		sbc r25,r19
 2304 0046 9887      		std Y+8,r25
 2305 0048 8F83      		std Y+7,r24
 2306 004a 81E0      		ldi r24,lo8(1)
 2307 004c 8C83      		std Y+4,r24
 2308 004e 8FEF      		ldi r24,lo8(-1)
 2309 0050 9FEF      		ldi r25,lo8(-1)
GAS LISTING /tmp/ccmC0whv.s 			page 42


 2310               	/* epilogue start */
 2311 0052 DF91      		pop r29
 2312 0054 CF91      		pop r28
 2313 0056 1F91      		pop r17
 2314 0058 0F91      		pop r16
 2315 005a 0895      		ret
 2316               		.size	lua_yield, .-lua_yield
 2317               		.section	.text.luaD_pcall,"ax",@progbits
 2318               	.global	luaD_pcall
 2319               		.hidden	luaD_pcall
 2320               		.type	luaD_pcall, @function
 2321               	luaD_pcall:
 2322 0000 5F92      		push r5
 2323 0002 6F92      		push r6
 2324 0004 7F92      		push r7
 2325 0006 8F92      		push r8
 2326 0008 9F92      		push r9
 2327 000a AF92      		push r10
 2328 000c BF92      		push r11
 2329 000e CF92      		push r12
 2330 0010 DF92      		push r13
 2331 0012 EF92      		push r14
 2332 0014 FF92      		push r15
 2333 0016 0F93      		push r16
 2334 0018 1F93      		push r17
 2335 001a CF93      		push r28
 2336 001c DF93      		push r29
 2337               	/* prologue: function */
 2338               	/* frame size = 0 */
 2339               	/* stack size = 15 */
 2340               	.L__stack_usage = 15
 2341 001e EC01      		movw r28,r24
 2342 0020 6901      		movw r12,r18
 2343 0022 8B8C      		ldd r8,Y+27
 2344 0024 9C8C      		ldd r9,Y+28
 2345 0026 EB84      		ldd r14,Y+11
 2346 0028 FC84      		ldd r15,Y+12
 2347 002a AD88      		ldd r10,Y+21
 2348 002c BE88      		ldd r11,Y+22
 2349 002e 58A0      		ldd r5,Y+32
 2350 0030 69AC      		ldd r6,Y+57
 2351 0032 7AAC      		ldd r7,Y+58
 2352 0034 1AAF      		std Y+58,r17
 2353 0036 09AF      		std Y+57,r16
 2354 0038 0E94 0000 		call luaD_rawrunprotected
 2355 003c 8C01      		movw r16,r24
 2356 003e 892B      		or r24,r25
 2357 0040 01F0      		breq .L186
 2358 0042 2989      		ldd r18,Y+17
 2359 0044 3A89      		ldd r19,Y+18
 2360 0046 C20E      		add r12,r18
 2361 0048 D31E      		adc r13,r19
 2362 004a B601      		movw r22,r12
 2363 004c CE01      		movw r24,r28
 2364 004e 0E94 0000 		call luaF_close
 2365 0052 A601      		movw r20,r12
 2366 0054 B801      		movw r22,r16
GAS LISTING /tmp/ccmC0whv.s 			page 43


 2367 0056 CE01      		movw r24,r28
 2368 0058 0E94 0000 		call luaD_seterrorobj
 2369 005c 9C8E      		std Y+28,r9
 2370 005e 8B8E      		std Y+27,r8
 2371 0060 EA18      		sub r14,r10
 2372 0062 FB08      		sbc r15,r11
 2373 0064 ED89      		ldd r30,Y+21
 2374 0066 FE89      		ldd r31,Y+22
 2375 0068 EE0D      		add r30,r14
 2376 006a FF1D      		adc r31,r15
 2377 006c FC87      		std Y+12,r31
 2378 006e EB87      		std Y+11,r30
 2379 0070 8081      		ld r24,Z
 2380 0072 9181      		ldd r25,Z+1
 2381 0074 9887      		std Y+8,r25
 2382 0076 8F83      		std Y+7,r24
 2383 0078 8681      		ldd r24,Z+6
 2384 007a 9781      		ldd r25,Z+7
 2385 007c 9E87      		std Y+14,r25
 2386 007e 8D87      		std Y+13,r24
 2387 0080 58A2      		std Y+32,r5
 2388 0082 898D      		ldd r24,Y+25
 2389 0084 9A8D      		ldd r25,Y+26
 2390 0086 8132      		cpi r24,33
 2391 0088 9E44      		sbci r25,78
 2392 008a 04F0      		brlt .L186
 2393 008c 60E2      		ldi r22,lo8(32)
 2394 008e 7EE4      		ldi r23,lo8(78)
 2395 0090 CE01      		movw r24,r28
 2396 0092 0E94 0000 		call luaD_reallocCI
 2397               	.L186:
 2398 0096 7AAE      		std Y+58,r7
 2399 0098 69AE      		std Y+57,r6
 2400 009a C801      		movw r24,r16
 2401               	/* epilogue start */
 2402 009c DF91      		pop r29
 2403 009e CF91      		pop r28
 2404 00a0 1F91      		pop r17
 2405 00a2 0F91      		pop r16
 2406 00a4 FF90      		pop r15
 2407 00a6 EF90      		pop r14
 2408 00a8 DF90      		pop r13
 2409 00aa CF90      		pop r12
 2410 00ac BF90      		pop r11
 2411 00ae AF90      		pop r10
 2412 00b0 9F90      		pop r9
 2413 00b2 8F90      		pop r8
 2414 00b4 7F90      		pop r7
 2415 00b6 6F90      		pop r6
 2416 00b8 5F90      		pop r5
 2417 00ba 0895      		ret
 2418               		.size	luaD_pcall, .-luaD_pcall
 2419               		.section	.text.luaD_protectedparser,"ax",@progbits
 2420               	.global	luaD_protectedparser
 2421               		.hidden	luaD_protectedparser
 2422               		.type	luaD_protectedparser, @function
 2423               	luaD_protectedparser:
GAS LISTING /tmp/ccmC0whv.s 			page 44


 2424 0000 EF92      		push r14
 2425 0002 FF92      		push r15
 2426 0004 0F93      		push r16
 2427 0006 1F93      		push r17
 2428 0008 CF93      		push r28
 2429 000a DF93      		push r29
 2430 000c CDB7      		in r28,__SP_L__
 2431 000e DEB7      		in r29,__SP_H__
 2432 0010 2A97      		sbiw r28,10
 2433 0012 0FB6      		in __tmp_reg__,__SREG__
 2434 0014 F894      		cli
 2435 0016 DEBF      		out __SP_H__,r29
 2436 0018 0FBE      		out __SREG__,__tmp_reg__
 2437 001a CDBF      		out __SP_L__,r28
 2438               	/* prologue: function */
 2439               	/* frame size = 10 */
 2440               	/* stack size = 16 */
 2441               	.L__stack_usage = 16
 2442 001c 7C01      		movw r14,r24
 2443 001e 7A83      		std Y+2,r23
 2444 0020 6983      		std Y+1,r22
 2445 0022 5A87      		std Y+10,r21
 2446 0024 4987      		std Y+9,r20
 2447 0026 1C82      		std Y+4,__zero_reg__
 2448 0028 1B82      		std Y+3,__zero_reg__
 2449 002a 1886      		std Y+8,__zero_reg__
 2450 002c 1F82      		std Y+7,__zero_reg__
 2451 002e FC01      		movw r30,r24
 2452 0030 01AD      		ldd r16,Z+57
 2453 0032 12AD      		ldd r17,Z+58
 2454 0034 2581      		ldd r18,Z+5
 2455 0036 3681      		ldd r19,Z+6
 2456 0038 8189      		ldd r24,Z+17
 2457 003a 9289      		ldd r25,Z+18
 2458 003c 281B      		sub r18,r24
 2459 003e 390B      		sbc r19,r25
 2460 0040 AE01      		movw r20,r28
 2461 0042 4F5F      		subi r20,-1
 2462 0044 5F4F      		sbci r21,-1
 2463 0046 60E0      		ldi r22,lo8(gs(f_parser))
 2464 0048 70E0      		ldi r23,hi8(gs(f_parser))
 2465 004a C701      		movw r24,r14
 2466 004c 0E94 0000 		call luaD_pcall
 2467 0050 8C01      		movw r16,r24
 2468 0052 4F81      		ldd r20,Y+7
 2469 0054 5885      		ldd r21,Y+8
 2470 0056 6B81      		ldd r22,Y+3
 2471 0058 7C81      		ldd r23,Y+4
 2472 005a 20E0      		ldi r18,0
 2473 005c 30E0      		ldi r19,0
 2474 005e C701      		movw r24,r14
 2475 0060 0E94 0000 		call luaM_realloc_
 2476 0064 C801      		movw r24,r16
 2477               	/* epilogue start */
 2478 0066 2A96      		adiw r28,10
 2479 0068 0FB6      		in __tmp_reg__,__SREG__
 2480 006a F894      		cli
GAS LISTING /tmp/ccmC0whv.s 			page 45


 2481 006c DEBF      		out __SP_H__,r29
 2482 006e 0FBE      		out __SREG__,__tmp_reg__
 2483 0070 CDBF      		out __SP_L__,r28
 2484 0072 DF91      		pop r29
 2485 0074 CF91      		pop r28
 2486 0076 1F91      		pop r17
 2487 0078 0F91      		pop r16
 2488 007a FF90      		pop r15
 2489 007c EF90      		pop r14
 2490 007e 0895      		ret
 2491               		.size	luaD_protectedparser, .-luaD_protectedparser
 2492               		.hidden	luaV_execute
 2493               		.hidden	luaH_setstr
 2494               		.hidden	luaH_setnum
 2495               		.hidden	luaH_new
 2496               		.hidden	luaG_typeerror
 2497               		.hidden	luaT_gettmbyobj
 2498               		.hidden	luaF_newupval
 2499               		.hidden	luaF_newLclosure
 2500               		.hidden	luaU_undump
 2501               		.hidden	luaY_parser
 2502               		.hidden	luaC_step
 2503               		.hidden	luaZ_lookahead
 2504               		.hidden	luaG_runerror
 2505               		.hidden	luaF_close
 2506               		.hidden	luaM_toobig
 2507               		.hidden	luaM_realloc_
 2508               		.hidden	luaS_newlstr
 2509               		.ident	"GCC: (GNU) 5.3.0"
 2510               	.global __do_copy_data
GAS LISTING /tmp/ccmC0whv.s 			page 46


DEFINED SYMBOLS
                            *ABS*:0000000000000000 ldo.c
     /tmp/ccmC0whv.s:2      *ABS*:000000000000003e __SP_H__
     /tmp/ccmC0whv.s:3      *ABS*:000000000000003d __SP_L__
     /tmp/ccmC0whv.s:4      *ABS*:000000000000003f __SREG__
     /tmp/ccmC0whv.s:5      *ABS*:000000000000003b __RAMPZ__
     /tmp/ccmC0whv.s:6      *ABS*:0000000000000000 __tmp_reg__
     /tmp/ccmC0whv.s:7      *ABS*:0000000000000001 __zero_reg__
     /tmp/ccmC0whv.s:17     .text.luaD_seterrorobj:0000000000000000 luaD_seterrorobj
     /tmp/ccmC0whv.s:92     .text.luaD_rawrunprotected:0000000000000000 luaD_rawrunprotected
     /tmp/ccmC0whv.s:161    .text.luaD_reallocstack:0000000000000000 luaD_reallocstack
     /tmp/ccmC0whv.s:320    .text.luaD_reallocCI:0000000000000000 luaD_reallocCI
     /tmp/ccmC0whv.s:401    .text.luaD_throw:0000000000000000 luaD_throw
     /tmp/ccmC0whv.s:485    .text.growCI:0000000000000000 growCI
     /tmp/ccmC0whv.s:538    .text.luaD_growstack:0000000000000000 luaD_growstack
     /tmp/ccmC0whv.s:561    .text.resume_error:0000000000000000 resume_error
     /tmp/ccmC0whv.s:623    .text.f_parser:0000000000000000 f_parser
     /tmp/ccmC0whv.s:768    .text.luaD_callhook:0000000000000000 luaD_callhook
     /tmp/ccmC0whv.s:947    .text.luaD_poscall:0000000000000000 luaD_poscall
     /tmp/ccmC0whv.s:1127   .text.luaD_precall:0000000000000000 luaD_precall
     /tmp/ccmC0whv.s:1942   .text.resume:0000000000000000 resume
     /tmp/ccmC0whv.s:2044   .text.luaD_call:0000000000000000 luaD_call
     /tmp/ccmC0whv.s:2163   .text.lua_resume:0000000000000000 lua_resume
     /tmp/ccmC0whv.s:2264   .text.lua_yield:0000000000000000 lua_yield
     /tmp/ccmC0whv.s:2321   .text.luaD_pcall:0000000000000000 luaD_pcall
     /tmp/ccmC0whv.s:2423   .text.luaD_protectedparser:0000000000000000 luaD_protectedparser

UNDEFINED SYMBOLS
luaS_newlstr
setjmp
luaM_realloc_
luaM_toobig
longjmp
luaF_close
printf
luaG_runerror
luaZ_lookahead
luaC_step
luaY_parser
luaU_undump
luaF_newLclosure
luaF_newupval
luaT_gettmbyobj
luaG_typeerror
luaH_new
luaH_setnum
luaH_setstr
luaV_execute
__do_copy_data
