GAS LISTING /tmp/cc9O0Edy.s 			page 1


   1               		.file	"ldump.c"
   2               	__SP_H__ = 0x3e
   3               	__SP_L__ = 0x3d
   4               	__SREG__ = 0x3f
   5               	__RAMPZ__ = 0x3b
   6               	__tmp_reg__ = 0
   7               	__zero_reg__ = 1
   8               		.section	.text.DumpBlock,"ax",@progbits
   9               		.type	DumpBlock, @function
  10               	DumpBlock:
  11 0000 CF93      		push r28
  12 0002 DF93      		push r29
  13               	/* prologue: function */
  14               	/* frame size = 0 */
  15               	/* stack size = 2 */
  16               	.L__stack_usage = 2
  17 0004 EA01      		movw r28,r20
  18 0006 2885      		ldd r18,Y+8
  19 0008 3985      		ldd r19,Y+9
  20 000a 232B      		or r18,r19
  21 000c 01F4      		brne .L1
  22 000e 2C81      		ldd r18,Y+4
  23 0010 3D81      		ldd r19,Y+5
  24 0012 EA81      		ldd r30,Y+2
  25 0014 FB81      		ldd r31,Y+3
  26 0016 AB01      		movw r20,r22
  27 0018 BC01      		movw r22,r24
  28 001a 8881      		ld r24,Y
  29 001c 9981      		ldd r25,Y+1
  30 001e 1995      		eicall
  31 0020 9987      		std Y+9,r25
  32 0022 8887      		std Y+8,r24
  33               	.L1:
  34               	/* epilogue start */
  35 0024 DF91      		pop r29
  36 0026 CF91      		pop r28
  37 0028 0895      		ret
  38               		.size	DumpBlock, .-DumpBlock
  39               		.section	.text.DumpChar,"ax",@progbits
  40               		.type	DumpChar, @function
  41               	DumpChar:
  42 0000 CF93      		push r28
  43 0002 DF93      		push r29
  44 0004 1F92      		push __zero_reg__
  45 0006 CDB7      		in r28,__SP_L__
  46 0008 DEB7      		in r29,__SP_H__
  47               	/* prologue: function */
  48               	/* frame size = 1 */
  49               	/* stack size = 3 */
  50               	.L__stack_usage = 3
  51 000a AB01      		movw r20,r22
  52 000c 8983      		std Y+1,r24
  53 000e 61E0      		ldi r22,lo8(1)
  54 0010 70E0      		ldi r23,0
  55 0012 CE01      		movw r24,r28
  56 0014 0196      		adiw r24,1
  57 0016 0E94 0000 		call DumpBlock
GAS LISTING /tmp/cc9O0Edy.s 			page 2


  58               	/* epilogue start */
  59 001a 0F90      		pop __tmp_reg__
  60 001c DF91      		pop r29
  61 001e CF91      		pop r28
  62 0020 0895      		ret
  63               		.size	DumpChar, .-DumpChar
  64               		.section	.text.DumpInt,"ax",@progbits
  65               		.type	DumpInt, @function
  66               	DumpInt:
  67 0000 CF93      		push r28
  68 0002 DF93      		push r29
  69 0004 1F92      		push __zero_reg__
  70 0006 1F92      		push __zero_reg__
  71 0008 CDB7      		in r28,__SP_L__
  72 000a DEB7      		in r29,__SP_H__
  73               	/* prologue: function */
  74               	/* frame size = 2 */
  75               	/* stack size = 4 */
  76               	.L__stack_usage = 4
  77 000c 9A83      		std Y+2,r25
  78 000e 8983      		std Y+1,r24
  79 0010 AB01      		movw r20,r22
  80 0012 62E0      		ldi r22,lo8(2)
  81 0014 70E0      		ldi r23,0
  82 0016 CE01      		movw r24,r28
  83 0018 0196      		adiw r24,1
  84 001a 0E94 0000 		call DumpBlock
  85               	/* epilogue start */
  86 001e 0F90      		pop __tmp_reg__
  87 0020 0F90      		pop __tmp_reg__
  88 0022 DF91      		pop r29
  89 0024 CF91      		pop r28
  90 0026 0895      		ret
  91               		.size	DumpInt, .-DumpInt
  92               		.section	.text.DumpString,"ax",@progbits
  93               		.type	DumpString, @function
  94               	DumpString:
  95 0000 EF92      		push r14
  96 0002 FF92      		push r15
  97 0004 0F93      		push r16
  98 0006 1F93      		push r17
  99 0008 CF93      		push r28
 100 000a DF93      		push r29
 101 000c 1F92      		push __zero_reg__
 102 000e 1F92      		push __zero_reg__
 103 0010 CDB7      		in r28,__SP_L__
 104 0012 DEB7      		in r29,__SP_H__
 105               	/* prologue: function */
 106               	/* frame size = 2 */
 107               	/* stack size = 8 */
 108               	.L__stack_usage = 8
 109 0014 8B01      		movw r16,r22
 110 0016 0097      		sbiw r24,0
 111 0018 01F0      		breq .L7
 112 001a 7C01      		movw r14,r24
 113 001c 29E0      		ldi r18,9
 114 001e E20E      		add r14,r18
GAS LISTING /tmp/cc9O0Edy.s 			page 3


 115 0020 F11C      		adc r15,__zero_reg__
 116 0022 E114      		cp r14,__zero_reg__
 117 0024 F104      		cpc r15,__zero_reg__
 118 0026 01F4      		brne .L8
 119               	.L7:
 120 0028 1A82      		std Y+2,__zero_reg__
 121 002a 1982      		std Y+1,__zero_reg__
 122 002c A801      		movw r20,r16
 123 002e 62E0      		ldi r22,lo8(2)
 124 0030 70E0      		ldi r23,0
 125 0032 CE01      		movw r24,r28
 126 0034 0196      		adiw r24,1
 127 0036 00C0      		rjmp .L13
 128               	.L8:
 129 0038 FC01      		movw r30,r24
 130 003a 8781      		ldd r24,Z+7
 131 003c 9085      		ldd r25,Z+8
 132 003e 0196      		adiw r24,1
 133 0040 9A83      		std Y+2,r25
 134 0042 8983      		std Y+1,r24
 135 0044 AB01      		movw r20,r22
 136 0046 62E0      		ldi r22,lo8(2)
 137 0048 70E0      		ldi r23,0
 138 004a CE01      		movw r24,r28
 139 004c 0196      		adiw r24,1
 140 004e 0E94 0000 		call DumpBlock
 141 0052 6981      		ldd r22,Y+1
 142 0054 7A81      		ldd r23,Y+2
 143 0056 A801      		movw r20,r16
 144 0058 C701      		movw r24,r14
 145               	.L13:
 146 005a 0E94 0000 		call DumpBlock
 147               	/* epilogue start */
 148 005e 0F90      		pop __tmp_reg__
 149 0060 0F90      		pop __tmp_reg__
 150 0062 DF91      		pop r29
 151 0064 CF91      		pop r28
 152 0066 1F91      		pop r17
 153 0068 0F91      		pop r16
 154 006a FF90      		pop r15
 155 006c EF90      		pop r14
 156 006e 0895      		ret
 157               		.size	DumpString, .-DumpString
 158               		.section	.text.DumpFunction,"ax",@progbits
 159               		.type	DumpFunction, @function
 160               	DumpFunction:
 161 0000 6F92      		push r6
 162 0002 7F92      		push r7
 163 0004 8F92      		push r8
 164 0006 9F92      		push r9
 165 0008 AF92      		push r10
 166 000a BF92      		push r11
 167 000c CF92      		push r12
 168 000e DF92      		push r13
 169 0010 EF92      		push r14
 170 0012 FF92      		push r15
 171 0014 0F93      		push r16
GAS LISTING /tmp/cc9O0Edy.s 			page 4


 172 0016 1F93      		push r17
 173 0018 CF93      		push r28
 174 001a DF93      		push r29
 175 001c 00D0      		rcall .
 176 001e 1F92      		push __zero_reg__
 177 0020 CDB7      		in r28,__SP_L__
 178 0022 DEB7      		in r29,__SP_H__
 179               	/* prologue: function */
 180               	/* frame size = 4 */
 181               	/* stack size = 18 */
 182               	.L__stack_usage = 18
 183 0024 7C01      		movw r14,r24
 184 0026 8A01      		movw r16,r20
 185 0028 DC01      		movw r26,r24
 186 002a 5096      		adiw r26,16
 187 002c 8D91      		ld r24,X+
 188 002e 9C91      		ld r25,X
 189 0030 5197      		sbiw r26,16+1
 190 0032 8617      		cp r24,r22
 191 0034 9707      		cpc r25,r23
 192 0036 01F0      		breq .L32
 193 0038 FA01      		movw r30,r20
 194 003a 2681      		ldd r18,Z+6
 195 003c 3781      		ldd r19,Z+7
 196 003e 232B      		or r18,r19
 197 0040 01F0      		breq .L15
 198               	.L32:
 199 0042 80E0      		ldi r24,0
 200 0044 90E0      		ldi r25,0
 201               	.L15:
 202 0046 B801      		movw r22,r16
 203 0048 0E94 0000 		call DumpString
 204 004c B801      		movw r22,r16
 205 004e D701      		movw r26,r14
 206 0050 5E96      		adiw r26,30
 207 0052 8D91      		ld r24,X+
 208 0054 9C91      		ld r25,X
 209 0056 5F97      		sbiw r26,30+1
 210 0058 0E94 0000 		call DumpInt
 211 005c B801      		movw r22,r16
 212 005e F701      		movw r30,r14
 213 0060 80A1      		ldd r24,Z+32
 214 0062 91A1      		ldd r25,Z+33
 215 0064 0E94 0000 		call DumpInt
 216 0068 D701      		movw r26,r14
 217 006a 9496      		adiw r26,36
 218 006c 8C91      		ld r24,X
 219 006e B801      		movw r22,r16
 220 0070 90E0      		ldi r25,0
 221 0072 0E94 0000 		call DumpChar
 222 0076 F701      		movw r30,r14
 223 0078 85A1      		ldd r24,Z+37
 224 007a B801      		movw r22,r16
 225 007c 90E0      		ldi r25,0
 226 007e 0E94 0000 		call DumpChar
 227 0082 D701      		movw r26,r14
 228 0084 9696      		adiw r26,38
GAS LISTING /tmp/cc9O0Edy.s 			page 5


 229 0086 8C91      		ld r24,X
 230 0088 B801      		movw r22,r16
 231 008a 90E0      		ldi r25,0
 232 008c 0E94 0000 		call DumpChar
 233 0090 F701      		movw r30,r14
 234 0092 87A1      		ldd r24,Z+39
 235 0094 B801      		movw r22,r16
 236 0096 90E0      		ldi r25,0
 237 0098 0E94 0000 		call DumpChar
 238 009c D701      		movw r26,r14
 239 009e 5696      		adiw r26,22
 240 00a0 CD90      		ld r12,X+
 241 00a2 DC90      		ld r13,X
 242 00a4 5797      		sbiw r26,22+1
 243 00a6 1696      		adiw r26,6
 244 00a8 AD90      		ld r10,X+
 245 00aa BC90      		ld r11,X
 246 00ac 1797      		sbiw r26,6+1
 247 00ae B801      		movw r22,r16
 248 00b0 C601      		movw r24,r12
 249 00b2 0E94 0000 		call DumpInt
 250 00b6 B601      		movw r22,r12
 251 00b8 660F      		lsl r22
 252 00ba 771F      		rol r23
 253 00bc 660F      		lsl r22
 254 00be 771F      		rol r23
 255 00c0 A801      		movw r20,r16
 256 00c2 C501      		movw r24,r10
 257 00c4 0E94 0000 		call DumpBlock
 258 00c8 F701      		movw r30,r14
 259 00ca 8488      		ldd r8,Z+20
 260 00cc 9588      		ldd r9,Z+21
 261 00ce B801      		movw r22,r16
 262 00d0 C401      		movw r24,r8
 263 00d2 0E94 0000 		call DumpInt
 264 00d6 A12C      		mov r10,__zero_reg__
 265 00d8 B12C      		mov r11,__zero_reg__
 266 00da C12C      		mov r12,__zero_reg__
 267 00dc D12C      		mov r13,__zero_reg__
 268               	.L16:
 269 00de D701      		movw r26,r14
 270 00e0 C814      		cp r12,r8
 271 00e2 D904      		cpc r13,r9
 272 00e4 04F4      		brge .L36
 273 00e6 1496      		adiw r26,4
 274 00e8 6D90      		ld r6,X+
 275 00ea 7C90      		ld r7,X
 276 00ec 1597      		sbiw r26,4+1
 277 00ee 6A0C      		add r6,r10
 278 00f0 7B1C      		adc r7,r11
 279 00f2 B801      		movw r22,r16
 280 00f4 F301      		movw r30,r6
 281 00f6 8481      		ldd r24,Z+4
 282 00f8 9581      		ldd r25,Z+5
 283 00fa 0E94 0000 		call DumpChar
 284 00fe D301      		movw r26,r6
 285 0100 1496      		adiw r26,4
GAS LISTING /tmp/cc9O0Edy.s 			page 6


 286 0102 8D91      		ld r24,X+
 287 0104 9C91      		ld r25,X
 288 0106 1597      		sbiw r26,4+1
 289 0108 8530      		cpi r24,5
 290 010a 9105      		cpc r25,__zero_reg__
 291 010c 01F0      		breq .L18
 292 010e 8630      		cpi r24,6
 293 0110 9105      		cpc r25,__zero_reg__
 294 0112 01F0      		breq .L19
 295 0114 0197      		sbiw r24,1
 296 0116 01F4      		brne .L17
 297 0118 B801      		movw r22,r16
 298 011a 8D91      		ld r24,X+
 299 011c 9C91      		ld r25,X
 300 011e 0E94 0000 		call DumpChar
 301 0122 00C0      		rjmp .L17
 302               	.L18:
 303 0124 F301      		movw r30,r6
 304 0126 8081      		ld r24,Z
 305 0128 9181      		ldd r25,Z+1
 306 012a A281      		ldd r26,Z+2
 307 012c B381      		ldd r27,Z+3
 308 012e 8983      		std Y+1,r24
 309 0130 9A83      		std Y+2,r25
 310 0132 AB83      		std Y+3,r26
 311 0134 BC83      		std Y+4,r27
 312 0136 A801      		movw r20,r16
 313 0138 64E0      		ldi r22,lo8(4)
 314 013a 70E0      		ldi r23,0
 315 013c CE01      		movw r24,r28
 316 013e 0196      		adiw r24,1
 317 0140 0E94 0000 		call DumpBlock
 318 0144 00C0      		rjmp .L17
 319               	.L19:
 320 0146 B801      		movw r22,r16
 321 0148 D301      		movw r26,r6
 322 014a 8D91      		ld r24,X+
 323 014c 9C91      		ld r25,X
 324 014e 0E94 0000 		call DumpString
 325               	.L17:
 326 0152 BFEF      		ldi r27,-1
 327 0154 CB1A      		sub r12,r27
 328 0156 DB0A      		sbc r13,r27
 329 0158 E6E0      		ldi r30,6
 330 015a AE0E      		add r10,r30
 331 015c B11C      		adc r11,__zero_reg__
 332 015e 00C0      		rjmp .L16
 333               	.L36:
 334 0160 5A96      		adiw r26,26
 335 0162 AD90      		ld r10,X+
 336 0164 BC90      		ld r11,X
 337 0166 5B97      		sbiw r26,26+1
 338 0168 B801      		movw r22,r16
 339 016a C501      		movw r24,r10
 340 016c 0E94 0000 		call DumpInt
 341 0170 C12C      		mov r12,__zero_reg__
 342 0172 D12C      		mov r13,__zero_reg__
GAS LISTING /tmp/cc9O0Edy.s 			page 7


 343               	.L22:
 344 0174 CA14      		cp r12,r10
 345 0176 DB04      		cpc r13,r11
 346 0178 04F4      		brge .L37
 347 017a F701      		movw r30,r14
 348 017c 6089      		ldd r22,Z+16
 349 017e 7189      		ldd r23,Z+17
 350 0180 C601      		movw r24,r12
 351 0182 880F      		lsl r24
 352 0184 991F      		rol r25
 353 0186 0084      		ldd __tmp_reg__,Z+8
 354 0188 F185      		ldd r31,Z+9
 355 018a E02D      		mov r30,__tmp_reg__
 356 018c E80F      		add r30,r24
 357 018e F91F      		adc r31,r25
 358 0190 A801      		movw r20,r16
 359 0192 8081      		ld r24,Z
 360 0194 9181      		ldd r25,Z+1
 361 0196 0E94 0000 		call DumpFunction
 362 019a FFEF      		ldi r31,-1
 363 019c CF1A      		sub r12,r31
 364 019e DF0A      		sbc r13,r31
 365 01a0 00C0      		rjmp .L22
 366               	.L37:
 367 01a2 D801      		movw r26,r16
 368 01a4 1696      		adiw r26,6
 369 01a6 8D91      		ld r24,X+
 370 01a8 9C91      		ld r25,X
 371 01aa 1797      		sbiw r26,6+1
 372 01ac 892B      		or r24,r25
 373 01ae 01F4      		brne .L33
 374 01b0 F701      		movw r30,r14
 375 01b2 C08C      		ldd r12,Z+24
 376 01b4 D18C      		ldd r13,Z+25
 377 01b6 00C0      		rjmp .L24
 378               	.L33:
 379 01b8 C12C      		mov r12,__zero_reg__
 380 01ba D12C      		mov r13,__zero_reg__
 381               	.L24:
 382 01bc D701      		movw r26,r14
 383 01be 1A96      		adiw r26,10
 384 01c0 AD90      		ld r10,X+
 385 01c2 BC90      		ld r11,X
 386 01c4 1B97      		sbiw r26,10+1
 387 01c6 B801      		movw r22,r16
 388 01c8 C601      		movw r24,r12
 389 01ca 0E94 0000 		call DumpInt
 390 01ce B601      		movw r22,r12
 391 01d0 660F      		lsl r22
 392 01d2 771F      		rol r23
 393 01d4 A801      		movw r20,r16
 394 01d6 C501      		movw r24,r10
 395 01d8 0E94 0000 		call DumpBlock
 396 01dc F801      		movw r30,r16
 397 01de 8681      		ldd r24,Z+6
 398 01e0 9781      		ldd r25,Z+7
 399 01e2 892B      		or r24,r25
GAS LISTING /tmp/cc9O0Edy.s 			page 8


 400 01e4 01F4      		brne .L34
 401 01e6 D701      		movw r26,r14
 402 01e8 5C96      		adiw r26,28
 403 01ea 8D90      		ld r8,X+
 404 01ec 9C90      		ld r9,X
 405 01ee 5D97      		sbiw r26,28+1
 406 01f0 00C0      		rjmp .L25
 407               	.L34:
 408 01f2 812C      		mov r8,__zero_reg__
 409 01f4 912C      		mov r9,__zero_reg__
 410               	.L25:
 411 01f6 B801      		movw r22,r16
 412 01f8 C401      		movw r24,r8
 413 01fa 0E94 0000 		call DumpInt
 414 01fe C12C      		mov r12,__zero_reg__
 415 0200 D12C      		mov r13,__zero_reg__
 416 0202 A12C      		mov r10,__zero_reg__
 417 0204 B12C      		mov r11,__zero_reg__
 418               	.L26:
 419 0206 A814      		cp r10,r8
 420 0208 B904      		cpc r11,r9
 421 020a 04F4      		brge .L38
 422 020c D701      		movw r26,r14
 423 020e 1C96      		adiw r26,12
 424 0210 ED91      		ld r30,X+
 425 0212 FC91      		ld r31,X
 426 0214 1D97      		sbiw r26,12+1
 427 0216 EC0D      		add r30,r12
 428 0218 FD1D      		adc r31,r13
 429 021a B801      		movw r22,r16
 430 021c 8081      		ld r24,Z
 431 021e 9181      		ldd r25,Z+1
 432 0220 0E94 0000 		call DumpString
 433 0224 D701      		movw r26,r14
 434 0226 1C96      		adiw r26,12
 435 0228 ED91      		ld r30,X+
 436 022a FC91      		ld r31,X
 437 022c 1D97      		sbiw r26,12+1
 438 022e EC0D      		add r30,r12
 439 0230 FD1D      		adc r31,r13
 440 0232 B801      		movw r22,r16
 441 0234 8281      		ldd r24,Z+2
 442 0236 9381      		ldd r25,Z+3
 443 0238 0E94 0000 		call DumpInt
 444 023c D701      		movw r26,r14
 445 023e 1C96      		adiw r26,12
 446 0240 ED91      		ld r30,X+
 447 0242 FC91      		ld r31,X
 448 0244 1D97      		sbiw r26,12+1
 449 0246 EC0D      		add r30,r12
 450 0248 FD1D      		adc r31,r13
 451 024a B801      		movw r22,r16
 452 024c 8481      		ldd r24,Z+4
 453 024e 9581      		ldd r25,Z+5
 454 0250 0E94 0000 		call DumpInt
 455 0254 BFEF      		ldi r27,-1
 456 0256 AB1A      		sub r10,r27
GAS LISTING /tmp/cc9O0Edy.s 			page 9


 457 0258 BB0A      		sbc r11,r27
 458 025a E6E0      		ldi r30,6
 459 025c CE0E      		add r12,r30
 460 025e D11C      		adc r13,__zero_reg__
 461 0260 00C0      		rjmp .L26
 462               	.L38:
 463 0262 D801      		movw r26,r16
 464 0264 1696      		adiw r26,6
 465 0266 8D91      		ld r24,X+
 466 0268 9C91      		ld r25,X
 467 026a 1797      		sbiw r26,6+1
 468 026c 892B      		or r24,r25
 469 026e 01F4      		brne .L35
 470 0270 F701      		movw r30,r14
 471 0272 A288      		ldd r10,Z+18
 472 0274 B388      		ldd r11,Z+19
 473 0276 00C0      		rjmp .L28
 474               	.L35:
 475 0278 A12C      		mov r10,__zero_reg__
 476 027a B12C      		mov r11,__zero_reg__
 477               	.L28:
 478 027c B801      		movw r22,r16
 479 027e C501      		movw r24,r10
 480 0280 0E94 0000 		call DumpInt
 481 0284 C12C      		mov r12,__zero_reg__
 482 0286 D12C      		mov r13,__zero_reg__
 483               	.L29:
 484 0288 CA14      		cp r12,r10
 485 028a DB04      		cpc r13,r11
 486 028c 04F4      		brge .L39
 487 028e C601      		movw r24,r12
 488 0290 880F      		lsl r24
 489 0292 991F      		rol r25
 490 0294 D701      		movw r26,r14
 491 0296 1E96      		adiw r26,14
 492 0298 ED91      		ld r30,X+
 493 029a FC91      		ld r31,X
 494 029c 1F97      		sbiw r26,14+1
 495 029e E80F      		add r30,r24
 496 02a0 F91F      		adc r31,r25
 497 02a2 B801      		movw r22,r16
 498 02a4 8081      		ld r24,Z
 499 02a6 9181      		ldd r25,Z+1
 500 02a8 0E94 0000 		call DumpString
 501 02ac BFEF      		ldi r27,-1
 502 02ae CB1A      		sub r12,r27
 503 02b0 DB0A      		sbc r13,r27
 504 02b2 00C0      		rjmp .L29
 505               	.L39:
 506               	/* epilogue start */
 507 02b4 0F90      		pop __tmp_reg__
 508 02b6 0F90      		pop __tmp_reg__
 509 02b8 0F90      		pop __tmp_reg__
 510 02ba 0F90      		pop __tmp_reg__
 511 02bc DF91      		pop r29
 512 02be CF91      		pop r28
 513 02c0 1F91      		pop r17
GAS LISTING /tmp/cc9O0Edy.s 			page 10


 514 02c2 0F91      		pop r16
 515 02c4 FF90      		pop r15
 516 02c6 EF90      		pop r14
 517 02c8 DF90      		pop r13
 518 02ca CF90      		pop r12
 519 02cc BF90      		pop r11
 520 02ce AF90      		pop r10
 521 02d0 9F90      		pop r9
 522 02d2 8F90      		pop r8
 523 02d4 7F90      		pop r7
 524 02d6 6F90      		pop r6
 525 02d8 0895      		ret
 526               		.size	DumpFunction, .-DumpFunction
 527               		.section	.text.luaU_dump,"ax",@progbits
 528               	.global	luaU_dump
 529               		.hidden	luaU_dump
 530               		.type	luaU_dump, @function
 531               	luaU_dump:
 532 0000 EF92      		push r14
 533 0002 FF92      		push r15
 534 0004 0F93      		push r16
 535 0006 1F93      		push r17
 536 0008 CF93      		push r28
 537 000a DF93      		push r29
 538 000c CDB7      		in r28,__SP_L__
 539 000e DEB7      		in r29,__SP_H__
 540 0010 6697      		sbiw r28,22
 541 0012 0FB6      		in __tmp_reg__,__SREG__
 542 0014 F894      		cli
 543 0016 DEBF      		out __SP_H__,r29
 544 0018 0FBE      		out __SREG__,__tmp_reg__
 545 001a CDBF      		out __SP_L__,r28
 546               	/* prologue: function */
 547               	/* frame size = 22 */
 548               	/* stack size = 28 */
 549               	.L__stack_usage = 28
 550 001c 7B01      		movw r14,r22
 551 001e 9E87      		std Y+14,r25
 552 0020 8D87      		std Y+13,r24
 553 0022 588B      		std Y+16,r21
 554 0024 4F87      		std Y+15,r20
 555 0026 3A8B      		std Y+18,r19
 556 0028 298B      		std Y+17,r18
 557 002a 1C8B      		std Y+20,r17
 558 002c 0B8B      		std Y+19,r16
 559 002e 1E8A      		std Y+22,__zero_reg__
 560 0030 1D8A      		std Y+21,__zero_reg__
 561 0032 CE01      		movw r24,r28
 562 0034 0196      		adiw r24,1
 563 0036 0E94 0000 		call luaU_header
 564 003a AE01      		movw r20,r28
 565 003c 435F      		subi r20,-13
 566 003e 5F4F      		sbci r21,-1
 567 0040 6CE0      		ldi r22,lo8(12)
 568 0042 70E0      		ldi r23,0
 569 0044 CE01      		movw r24,r28
 570 0046 0196      		adiw r24,1
GAS LISTING /tmp/cc9O0Edy.s 			page 11


 571 0048 0E94 0000 		call DumpBlock
 572 004c AE01      		movw r20,r28
 573 004e 435F      		subi r20,-13
 574 0050 5F4F      		sbci r21,-1
 575 0052 60E0      		ldi r22,0
 576 0054 70E0      		ldi r23,0
 577 0056 C701      		movw r24,r14
 578 0058 0E94 0000 		call DumpFunction
 579 005c 8D89      		ldd r24,Y+21
 580 005e 9E89      		ldd r25,Y+22
 581               	/* epilogue start */
 582 0060 6696      		adiw r28,22
 583 0062 0FB6      		in __tmp_reg__,__SREG__
 584 0064 F894      		cli
 585 0066 DEBF      		out __SP_H__,r29
 586 0068 0FBE      		out __SREG__,__tmp_reg__
 587 006a CDBF      		out __SP_L__,r28
 588 006c DF91      		pop r29
 589 006e CF91      		pop r28
 590 0070 1F91      		pop r17
 591 0072 0F91      		pop r16
 592 0074 FF90      		pop r15
 593 0076 EF90      		pop r14
 594 0078 0895      		ret
 595               		.size	luaU_dump, .-luaU_dump
 596               		.hidden	luaU_header
 597               		.ident	"GCC: (GNU) 5.3.0"
GAS LISTING /tmp/cc9O0Edy.s 			page 12


DEFINED SYMBOLS
                            *ABS*:0000000000000000 ldump.c
     /tmp/cc9O0Edy.s:2      *ABS*:000000000000003e __SP_H__
     /tmp/cc9O0Edy.s:3      *ABS*:000000000000003d __SP_L__
     /tmp/cc9O0Edy.s:4      *ABS*:000000000000003f __SREG__
     /tmp/cc9O0Edy.s:5      *ABS*:000000000000003b __RAMPZ__
     /tmp/cc9O0Edy.s:6      *ABS*:0000000000000000 __tmp_reg__
     /tmp/cc9O0Edy.s:7      *ABS*:0000000000000001 __zero_reg__
     /tmp/cc9O0Edy.s:10     .text.DumpBlock:0000000000000000 DumpBlock
     /tmp/cc9O0Edy.s:41     .text.DumpChar:0000000000000000 DumpChar
     /tmp/cc9O0Edy.s:66     .text.DumpInt:0000000000000000 DumpInt
     /tmp/cc9O0Edy.s:94     .text.DumpString:0000000000000000 DumpString
     /tmp/cc9O0Edy.s:160    .text.DumpFunction:0000000000000000 DumpFunction
     /tmp/cc9O0Edy.s:531    .text.luaU_dump:0000000000000000 luaU_dump

UNDEFINED SYMBOLS
luaU_header
