GAS LISTING /tmp/cchWtc0N.s 			page 1


   1               		.file	"llex.c"
   2               	__SP_H__ = 0x3e
   3               	__SP_L__ = 0x3d
   4               	__SREG__ = 0x3f
   5               	__RAMPZ__ = 0x3b
   6               	__tmp_reg__ = 0
   7               	__zero_reg__ = 1
   8               		.section	.text.luaX_init,"ax",@progbits
   9               	.global	luaX_init
  10               		.hidden	luaX_init
  11               		.type	luaX_init, @function
  12               	luaX_init:
  13 0000 EF92      		push r14
  14 0002 FF92      		push r15
  15 0004 0F93      		push r16
  16 0006 1F93      		push r17
  17 0008 CF93      		push r28
  18               	/* prologue: function */
  19               	/* frame size = 0 */
  20               	/* stack size = 5 */
  21               	.L__stack_usage = 5
  22 000a 7C01      		movw r14,r24
  23 000c 00E0      		ldi r16,lo8(luaX_tokens)
  24 000e 10E0      		ldi r17,hi8(luaX_tokens)
  25 0010 C1E0      		ldi r28,lo8(1)
  26               	.L2:
  27 0012 F801      		movw r30,r16
  28 0014 6191      		ld r22,Z+
  29 0016 7191      		ld r23,Z+
  30 0018 8F01      		movw r16,r30
  31 001a FB01      		movw r30,r22
  32               		0:
  33 001c 0190      		ld __tmp_reg__,Z+
  34 001e 0020      		tst __tmp_reg__
  35 0020 01F4      		brne 0b
  36 0022 3197      		sbiw r30,1
  37 0024 AF01      		movw r20,r30
  38 0026 461B      		sub r20,r22
  39 0028 570B      		sbc r21,r23
  40 002a C701      		movw r24,r14
  41 002c 0E94 0000 		call luaS_newlstr
  42 0030 FC01      		movw r30,r24
  43 0032 8381      		ldd r24,Z+3
  44 0034 8062      		ori r24,lo8(32)
  45 0036 8383      		std Z+3,r24
  46 0038 C483      		std Z+4,r28
  47 003a CF5F      		subi r28,lo8(-(1))
  48 003c C631      		cpi r28,lo8(22)
  49 003e 01F4      		brne .L2
  50               	/* epilogue start */
  51 0040 CF91      		pop r28
  52 0042 1F91      		pop r17
  53 0044 0F91      		pop r16
  54 0046 FF90      		pop r15
  55 0048 EF90      		pop r14
  56 004a 0895      		ret
  57               		.size	luaX_init, .-luaX_init
GAS LISTING /tmp/cchWtc0N.s 			page 2


  58               		.section	.rodata.str1.1,"aMS",@progbits,1
  59               	.LC0:
  60 0000 6368 6172 		.string	"char(%d)"
  60      2825 6429 
  60      00
  61               	.LC1:
  62 0009 2563 00   		.string	"%c"
  63               		.section	.text.luaX_token2str,"ax",@progbits
  64               	.global	luaX_token2str
  65               		.hidden	luaX_token2str
  66               		.type	luaX_token2str, @function
  67               	luaX_token2str:
  68 0000 0F93      		push r16
  69 0002 1F93      		push r17
  70 0004 CF93      		push r28
  71 0006 DF93      		push r29
  72               	/* prologue: function */
  73               	/* frame size = 0 */
  74               	/* stack size = 4 */
  75               	.L__stack_usage = 4
  76 0008 8C01      		movw r16,r24
  77 000a EB01      		movw r28,r22
  78 000c 6130      		cpi r22,1
  79 000e 81E0      		ldi r24,1
  80 0010 7807      		cpc r23,r24
  81 0012 04F4      		brge .L6
  82 0014 CB01      		movw r24,r22
  83 0016 0E94 0000 		call iscntrl
  84 001a F801      		movw r30,r16
  85 001c 3589      		ldd r19,Z+21
  86 001e 2489      		ldd r18,Z+20
  87 0020 892B      		or r24,r25
  88 0022 01F0      		breq .L7
  89 0024 DF93      		push r29
  90 0026 CF93      		push r28
  91 0028 80E0      		ldi r24,lo8(.LC0)
  92 002a 90E0      		ldi r25,hi8(.LC0)
  93 002c 00C0      		rjmp .L9
  94               	.L7:
  95 002e DF93      		push r29
  96 0030 CF93      		push r28
  97 0032 80E0      		ldi r24,lo8(.LC1)
  98 0034 90E0      		ldi r25,hi8(.LC1)
  99               	.L9:
 100 0036 9F93      		push r25
 101 0038 8F93      		push r24
 102 003a 3F93      		push r19
 103 003c 2F93      		push r18
 104 003e 0E94 0000 		call luaO_pushfstring
 105 0042 0F90      		pop __tmp_reg__
 106 0044 0F90      		pop __tmp_reg__
 107 0046 0F90      		pop __tmp_reg__
 108 0048 0F90      		pop __tmp_reg__
 109 004a 0F90      		pop __tmp_reg__
 110 004c 0F90      		pop __tmp_reg__
 111 004e 00C0      		rjmp .L8
 112               	.L6:
GAS LISTING /tmp/cchWtc0N.s 			page 3


 113 0050 CC0F      		lsl r28
 114 0052 DD1F      		rol r29
 115 0054 C050      		subi r28,lo8(-(luaX_tokens-514))
 116 0056 D040      		sbci r29,hi8(-(luaX_tokens-514))
 117 0058 8881      		ld r24,Y
 118 005a 9981      		ldd r25,Y+1
 119               	.L8:
 120               	/* epilogue start */
 121 005c DF91      		pop r29
 122 005e CF91      		pop r28
 123 0060 1F91      		pop r17
 124 0062 0F91      		pop r16
 125 0064 0895      		ret
 126               		.size	luaX_token2str, .-luaX_token2str
 127               		.section	.rodata.str1.1
 128               	.LC2:
 129 000c 2573 3A25 		.string	"%s:%d: %s"
 129      643A 2025 
 129      7300 
 130               	.LC3:
 131 0016 2573 206E 		.string	"%s near '%s'"
 131      6561 7220 
 131      2725 7327 
 131      00
 132               		.section	.text.luaX_lexerror,"ax",@progbits
 133               	.global	luaX_lexerror
 134               		.hidden	luaX_lexerror
 135               		.type	luaX_lexerror, @function
 136               	luaX_lexerror:
 137 0000 AF92      		push r10
 138 0002 BF92      		push r11
 139 0004 CF92      		push r12
 140 0006 DF92      		push r13
 141 0008 EF92      		push r14
 142 000a FF92      		push r15
 143 000c 0F93      		push r16
 144 000e 1F93      		push r17
 145 0010 CF93      		push r28
 146 0012 DF93      		push r29
 147 0014 CDB7      		in r28,__SP_L__
 148 0016 DEB7      		in r29,__SP_H__
 149 0018 C055      		subi r28,80
 150 001a D109      		sbc r29,__zero_reg__
 151 001c 0FB6      		in __tmp_reg__,__SREG__
 152 001e F894      		cli
 153 0020 DEBF      		out __SP_H__,r29
 154 0022 0FBE      		out __SREG__,__tmp_reg__
 155 0024 CDBF      		out __SP_L__,r28
 156               	/* prologue: function */
 157               	/* frame size = 80 */
 158               	/* stack size = 90 */
 159               	.L__stack_usage = 90
 160 0026 8C01      		movw r16,r24
 161 0028 B62E      		mov r11,r22
 162 002a A72E      		mov r10,r23
 163 002c 7A01      		movw r14,r20
 164 002e DC01      		movw r26,r24
GAS LISTING /tmp/cchWtc0N.s 			page 4


 165 0030 5A96      		adiw r26,26
 166 0032 6D91      		ld r22,X+
 167 0034 7C91      		ld r23,X
 168 0036 5B97      		sbiw r26,26+1
 169 0038 675F      		subi r22,-9
 170 003a 7F4F      		sbci r23,-1
 171 003c 40E5      		ldi r20,lo8(80)
 172 003e 50E0      		ldi r21,0
 173 0040 FE01      		movw r30,r28
 174 0042 3196      		adiw r30,1
 175 0044 6F01      		movw r12,r30
 176 0046 CF01      		movw r24,r30
 177 0048 0E94 0000 		call luaO_chunkid
 178 004c AF92      		push r10
 179 004e BF92      		push r11
 180 0050 D801      		movw r26,r16
 181 0052 1396      		adiw r26,3
 182 0054 8C91      		ld r24,X
 183 0056 1397      		sbiw r26,3
 184 0058 8F93      		push r24
 185 005a 1296      		adiw r26,2
 186 005c 8C91      		ld r24,X
 187 005e 1297      		sbiw r26,2
 188 0060 8F93      		push r24
 189 0062 DF92      		push r13
 190 0064 CF92      		push r12
 191 0066 80E0      		ldi r24,lo8(.LC2)
 192 0068 90E0      		ldi r25,hi8(.LC2)
 193 006a 9F93      		push r25
 194 006c 8F93      		push r24
 195 006e 5596      		adiw r26,21
 196 0070 8C91      		ld r24,X
 197 0072 5597      		sbiw r26,21
 198 0074 8F93      		push r24
 199 0076 5496      		adiw r26,20
 200 0078 8C91      		ld r24,X
 201 007a 8F93      		push r24
 202 007c 0E94 0000 		call luaO_pushfstring
 203 0080 D82E      		mov r13,r24
 204 0082 C92E      		mov r12,r25
 205 0084 0FB6      		in __tmp_reg__,__SREG__
 206 0086 F894      		cli
 207 0088 DEBF      		out __SP_H__,r29
 208 008a 0FBE      		out __SREG__,__tmp_reg__
 209 008c CDBF      		out __SP_L__,r28
 210 008e E114      		cp r14,__zero_reg__
 211 0090 F104      		cpc r15,__zero_reg__
 212 0092 01F0      		breq .L11
 213 0094 C701      		movw r24,r14
 214 0096 8C51      		subi r24,28
 215 0098 9140      		sbci r25,1
 216 009a 0397      		sbiw r24,3
 217 009c 00F4      		brsh .L12
 218 009e 60E0      		ldi r22,0
 219 00a0 70E0      		ldi r23,0
 220 00a2 C801      		movw r24,r16
 221 00a4 0E94 0000 		call save
GAS LISTING /tmp/cchWtc0N.s 			page 5


 222 00a8 D801      		movw r26,r16
 223 00aa 5896      		adiw r26,24
 224 00ac ED91      		ld r30,X+
 225 00ae FC91      		ld r31,X
 226 00b0 5997      		sbiw r26,24+1
 227 00b2 8081      		ld r24,Z
 228 00b4 9181      		ldd r25,Z+1
 229 00b6 00C0      		rjmp .L14
 230               	.L12:
 231 00b8 B701      		movw r22,r14
 232 00ba C801      		movw r24,r16
 233 00bc 0E94 0000 		call luaX_token2str
 234               	.L14:
 235 00c0 9F93      		push r25
 236 00c2 8F93      		push r24
 237 00c4 CF92      		push r12
 238 00c6 DF92      		push r13
 239 00c8 80E0      		ldi r24,lo8(.LC3)
 240 00ca 90E0      		ldi r25,hi8(.LC3)
 241 00cc 9F93      		push r25
 242 00ce 8F93      		push r24
 243 00d0 F801      		movw r30,r16
 244 00d2 8589      		ldd r24,Z+21
 245 00d4 8F93      		push r24
 246 00d6 8489      		ldd r24,Z+20
 247 00d8 8F93      		push r24
 248 00da 0E94 0000 		call luaO_pushfstring
 249 00de 0FB6      		in __tmp_reg__,__SREG__
 250 00e0 F894      		cli
 251 00e2 DEBF      		out __SP_H__,r29
 252 00e4 0FBE      		out __SREG__,__tmp_reg__
 253 00e6 CDBF      		out __SP_L__,r28
 254               	.L11:
 255 00e8 63E0      		ldi r22,lo8(3)
 256 00ea 70E0      		ldi r23,0
 257 00ec D801      		movw r26,r16
 258 00ee 5496      		adiw r26,20
 259 00f0 8D91      		ld r24,X+
 260 00f2 9C91      		ld r25,X
 261 00f4 5597      		sbiw r26,20+1
 262 00f6 0E94 0000 		call luaD_throw
 263               	/* epilogue start */
 264 00fa C05B      		subi r28,-80
 265 00fc DF4F      		sbci r29,-1
 266 00fe 0FB6      		in __tmp_reg__,__SREG__
 267 0100 F894      		cli
 268 0102 DEBF      		out __SP_H__,r29
 269 0104 0FBE      		out __SREG__,__tmp_reg__
 270 0106 CDBF      		out __SP_L__,r28
 271 0108 DF91      		pop r29
 272 010a CF91      		pop r28
 273 010c 1F91      		pop r17
 274 010e 0F91      		pop r16
 275 0110 FF90      		pop r15
 276 0112 EF90      		pop r14
 277 0114 DF90      		pop r13
 278 0116 CF90      		pop r12
GAS LISTING /tmp/cchWtc0N.s 			page 6


 279 0118 BF90      		pop r11
 280 011a AF90      		pop r10
 281 011c 0895      		ret
 282               		.size	luaX_lexerror, .-luaX_lexerror
 283               		.section	.rodata.str1.1
 284               	.LC4:
 285 0023 6C65 7869 		.string	"lexical element too long"
 285      6361 6C20 
 285      656C 656D 
 285      656E 7420 
 285      746F 6F20 
 286               		.section	.text.save,"ax",@progbits
 287               		.type	save, @function
 288               	save:
 289 0000 DF92      		push r13
 290 0002 EF92      		push r14
 291 0004 FF92      		push r15
 292 0006 0F93      		push r16
 293 0008 1F93      		push r17
 294 000a CF93      		push r28
 295 000c DF93      		push r29
 296               	/* prologue: function */
 297               	/* frame size = 0 */
 298               	/* stack size = 7 */
 299               	.L__stack_usage = 7
 300 000e 7C01      		movw r14,r24
 301 0010 D62E      		mov r13,r22
 302 0012 FC01      		movw r30,r24
 303 0014 C08D      		ldd r28,Z+24
 304 0016 D18D      		ldd r29,Z+25
 305 0018 2C81      		ldd r18,Y+4
 306 001a 3D81      		ldd r19,Y+5
 307 001c 8A81      		ldd r24,Y+2
 308 001e 9B81      		ldd r25,Y+3
 309 0020 0196      		adiw r24,1
 310 0022 2817      		cp r18,r24
 311 0024 3907      		cpc r19,r25
 312 0026 00F4      		brsh .L19
 313 0028 2E3F      		cpi r18,-2
 314 002a 3F47      		sbci r19,127
 315 002c 00F0      		brlo .L20
 316 002e 40E0      		ldi r20,0
 317 0030 50E0      		ldi r21,0
 318 0032 60E0      		ldi r22,lo8(.LC4)
 319 0034 70E0      		ldi r23,hi8(.LC4)
 320 0036 C701      		movw r24,r14
 321 0038 0E94 0000 		call luaX_lexerror
 322               	.L20:
 323 003c 4C81      		ldd r20,Y+4
 324 003e 5D81      		ldd r21,Y+5
 325 0040 8A01      		movw r16,r20
 326 0042 000F      		lsl r16
 327 0044 111F      		rol r17
 328 0046 9801      		movw r18,r16
 329 0048 2F5F      		subi r18,-1
 330 004a 3F4F      		sbci r19,-1
 331 004c F701      		movw r30,r14
GAS LISTING /tmp/cchWtc0N.s 			page 7


 332 004e 8489      		ldd r24,Z+20
 333 0050 9589      		ldd r25,Z+21
 334 0052 2E3F      		cpi r18,-2
 335 0054 3F4F      		sbci r19,-1
 336 0056 00F4      		brsh .L21
 337 0058 6881      		ld r22,Y
 338 005a 7981      		ldd r23,Y+1
 339 005c 9801      		movw r18,r16
 340 005e 0E94 0000 		call luaM_realloc_
 341 0062 00C0      		rjmp .L22
 342               	.L21:
 343 0064 0E94 0000 		call luaM_toobig
 344               	.L22:
 345 0068 9983      		std Y+1,r25
 346 006a 8883      		st Y,r24
 347 006c 1D83      		std Y+5,r17
 348 006e 0C83      		std Y+4,r16
 349               	.L19:
 350 0070 2881      		ld r18,Y
 351 0072 3981      		ldd r19,Y+1
 352 0074 8A81      		ldd r24,Y+2
 353 0076 9B81      		ldd r25,Y+3
 354 0078 AC01      		movw r20,r24
 355 007a 4F5F      		subi r20,-1
 356 007c 5F4F      		sbci r21,-1
 357 007e 5B83      		std Y+3,r21
 358 0080 4A83      		std Y+2,r20
 359 0082 F901      		movw r30,r18
 360 0084 E80F      		add r30,r24
 361 0086 F91F      		adc r31,r25
 362 0088 D082      		st Z,r13
 363               	/* epilogue start */
 364 008a DF91      		pop r29
 365 008c CF91      		pop r28
 366 008e 1F91      		pop r17
 367 0090 0F91      		pop r16
 368 0092 FF90      		pop r15
 369 0094 EF90      		pop r14
 370 0096 DF90      		pop r13
 371 0098 0895      		ret
 372               		.size	save, .-save
 373               		.section	.text.skip_sep,"ax",@progbits
 374               		.type	skip_sep, @function
 375               	skip_sep:
 376 0000 EF92      		push r14
 377 0002 FF92      		push r15
 378 0004 0F93      		push r16
 379 0006 1F93      		push r17
 380 0008 CF93      		push r28
 381 000a DF93      		push r29
 382               	/* prologue: function */
 383               	/* frame size = 0 */
 384               	/* stack size = 6 */
 385               	.L__stack_usage = 6
 386 000c EC01      		movw r28,r24
 387 000e E880      		ld r14,Y
 388 0010 F980      		ldd r15,Y+1
GAS LISTING /tmp/cchWtc0N.s 			page 8


 389 0012 B701      		movw r22,r14
 390 0014 0E94 0000 		call save
 391 0018 EE89      		ldd r30,Y+22
 392 001a FF89      		ldd r31,Y+23
 393 001c 8081      		ld r24,Z
 394 001e 9181      		ldd r25,Z+1
 395 0020 9C01      		movw r18,r24
 396 0022 2150      		subi r18,1
 397 0024 3109      		sbc r19,__zero_reg__
 398 0026 3183      		std Z+1,r19
 399 0028 2083      		st Z,r18
 400 002a 892B      		or r24,r25
 401 002c 01F0      		breq .L24
 402 002e A281      		ldd r26,Z+2
 403 0030 B381      		ldd r27,Z+3
 404 0032 CD01      		movw r24,r26
 405 0034 0196      		adiw r24,1
 406 0036 9383      		std Z+3,r25
 407 0038 8283      		std Z+2,r24
 408 003a 8C91      		ld r24,X
 409 003c 90E0      		ldi r25,0
 410 003e 00C0      		rjmp .L25
 411               	.L24:
 412 0040 CF01      		movw r24,r30
 413 0042 0E94 0000 		call luaZ_fill
 414               	.L25:
 415 0046 9983      		std Y+1,r25
 416 0048 8883      		st Y,r24
 417 004a 00E0      		ldi r16,0
 418 004c 10E0      		ldi r17,0
 419               	.L26:
 420 004e 8881      		ld r24,Y
 421 0050 9981      		ldd r25,Y+1
 422 0052 8D33      		cpi r24,61
 423 0054 9105      		cpc r25,__zero_reg__
 424 0056 01F4      		brne .L32
 425 0058 6DE3      		ldi r22,lo8(61)
 426 005a 70E0      		ldi r23,0
 427 005c CE01      		movw r24,r28
 428 005e 0E94 0000 		call save
 429 0062 EE89      		ldd r30,Y+22
 430 0064 FF89      		ldd r31,Y+23
 431 0066 8081      		ld r24,Z
 432 0068 9181      		ldd r25,Z+1
 433 006a 9C01      		movw r18,r24
 434 006c 2150      		subi r18,1
 435 006e 3109      		sbc r19,__zero_reg__
 436 0070 3183      		std Z+1,r19
 437 0072 2083      		st Z,r18
 438 0074 892B      		or r24,r25
 439 0076 01F0      		breq .L27
 440 0078 A281      		ldd r26,Z+2
 441 007a B381      		ldd r27,Z+3
 442 007c CD01      		movw r24,r26
 443 007e 0196      		adiw r24,1
 444 0080 9383      		std Z+3,r25
 445 0082 8283      		std Z+2,r24
GAS LISTING /tmp/cchWtc0N.s 			page 9


 446 0084 8C91      		ld r24,X
 447 0086 90E0      		ldi r25,0
 448 0088 00C0      		rjmp .L28
 449               	.L27:
 450 008a CF01      		movw r24,r30
 451 008c 0E94 0000 		call luaZ_fill
 452               	.L28:
 453 0090 9983      		std Y+1,r25
 454 0092 8883      		st Y,r24
 455 0094 0F5F      		subi r16,-1
 456 0096 1F4F      		sbci r17,-1
 457 0098 00C0      		rjmp .L26
 458               	.L32:
 459 009a E816      		cp r14,r24
 460 009c F906      		cpc r15,r25
 461 009e 01F0      		breq .L31
 462 00a0 C801      		movw r24,r16
 463 00a2 8095      		com r24
 464 00a4 9095      		com r25
 465 00a6 00C0      		rjmp .L30
 466               	.L31:
 467 00a8 C801      		movw r24,r16
 468               	.L30:
 469               	/* epilogue start */
 470 00aa DF91      		pop r29
 471 00ac CF91      		pop r28
 472 00ae 1F91      		pop r17
 473 00b0 0F91      		pop r16
 474 00b2 FF90      		pop r15
 475 00b4 EF90      		pop r14
 476 00b6 0895      		ret
 477               		.size	skip_sep, .-skip_sep
 478               		.section	.text.check_next,"ax",@progbits
 479               		.type	check_next, @function
 480               	check_next:
 481 0000 0F93      		push r16
 482 0002 1F93      		push r17
 483 0004 CF93      		push r28
 484 0006 DF93      		push r29
 485               	/* prologue: function */
 486               	/* frame size = 0 */
 487               	/* stack size = 4 */
 488               	.L__stack_usage = 4
 489 0008 EC01      		movw r28,r24
 490 000a CB01      		movw r24,r22
 491 000c 0881      		ld r16,Y
 492 000e 1981      		ldd r17,Y+1
 493 0010 B801      		movw r22,r16
 494 0012 0E94 0000 		call strchr
 495 0016 892B      		or r24,r25
 496 0018 01F0      		breq .L37
 497 001a B801      		movw r22,r16
 498 001c CE01      		movw r24,r28
 499 001e 0E94 0000 		call save
 500 0022 EE89      		ldd r30,Y+22
 501 0024 FF89      		ldd r31,Y+23
 502 0026 8081      		ld r24,Z
GAS LISTING /tmp/cchWtc0N.s 			page 10


 503 0028 9181      		ldd r25,Z+1
 504 002a 9C01      		movw r18,r24
 505 002c 2150      		subi r18,1
 506 002e 3109      		sbc r19,__zero_reg__
 507 0030 3183      		std Z+1,r19
 508 0032 2083      		st Z,r18
 509 0034 892B      		or r24,r25
 510 0036 01F0      		breq .L35
 511 0038 A281      		ldd r26,Z+2
 512 003a B381      		ldd r27,Z+3
 513 003c CD01      		movw r24,r26
 514 003e 0196      		adiw r24,1
 515 0040 9383      		std Z+3,r25
 516 0042 8283      		std Z+2,r24
 517 0044 8C91      		ld r24,X
 518 0046 90E0      		ldi r25,0
 519 0048 00C0      		rjmp .L36
 520               	.L35:
 521 004a CF01      		movw r24,r30
 522 004c 0E94 0000 		call luaZ_fill
 523               	.L36:
 524 0050 9983      		std Y+1,r25
 525 0052 8883      		st Y,r24
 526 0054 81E0      		ldi r24,lo8(1)
 527 0056 90E0      		ldi r25,0
 528 0058 00C0      		rjmp .L34
 529               	.L37:
 530 005a 80E0      		ldi r24,0
 531 005c 90E0      		ldi r25,0
 532               	.L34:
 533               	/* epilogue start */
 534 005e DF91      		pop r29
 535 0060 CF91      		pop r28
 536 0062 1F91      		pop r17
 537 0064 0F91      		pop r16
 538 0066 0895      		ret
 539               		.size	check_next, .-check_next
 540               		.section	.rodata.str1.1
 541               	.LC5:
 542 003c 4565 00   		.string	"Ee"
 543               	.LC6:
 544 003f 2B2D 00   		.string	"+-"
 545               		.section	.text.read_numeral,"ax",@progbits
 546               		.type	read_numeral, @function
 547               	read_numeral:
 548 0000 EF92      		push r14
 549 0002 FF92      		push r15
 550 0004 0F93      		push r16
 551 0006 1F93      		push r17
 552 0008 CF93      		push r28
 553 000a DF93      		push r29
 554               	/* prologue: function */
 555               	/* frame size = 0 */
 556               	/* stack size = 6 */
 557               	.L__stack_usage = 6
 558 000c EC01      		movw r28,r24
 559 000e 8B01      		movw r16,r22
GAS LISTING /tmp/cchWtc0N.s 			page 11


 560               	.L55:
 561 0010 6881      		ld r22,Y
 562 0012 7981      		ldd r23,Y+1
 563 0014 CE01      		movw r24,r28
 564 0016 0E94 0000 		call save
 565 001a EE89      		ldd r30,Y+22
 566 001c FF89      		ldd r31,Y+23
 567 001e 8081      		ld r24,Z
 568 0020 9181      		ldd r25,Z+1
 569 0022 9C01      		movw r18,r24
 570 0024 2150      		subi r18,1
 571 0026 3109      		sbc r19,__zero_reg__
 572 0028 3183      		std Z+1,r19
 573 002a 2083      		st Z,r18
 574 002c 892B      		or r24,r25
 575 002e 01F0      		breq .L39
 576 0030 A281      		ldd r26,Z+2
 577 0032 B381      		ldd r27,Z+3
 578 0034 CD01      		movw r24,r26
 579 0036 0196      		adiw r24,1
 580 0038 9383      		std Z+3,r25
 581 003a 8283      		std Z+2,r24
 582 003c 8C91      		ld r24,X
 583 003e 90E0      		ldi r25,0
 584 0040 00C0      		rjmp .L40
 585               	.L39:
 586 0042 CF01      		movw r24,r30
 587 0044 0E94 0000 		call luaZ_fill
 588               	.L40:
 589 0048 9983      		std Y+1,r25
 590 004a 8883      		st Y,r24
 591 004c 9C01      		movw r18,r24
 592 004e 2053      		subi r18,48
 593 0050 3109      		sbc r19,__zero_reg__
 594 0052 2A30      		cpi r18,10
 595 0054 3105      		cpc r19,__zero_reg__
 596 0056 00F0      		brlo .L55
 597 0058 8E97      		sbiw r24,46
 598 005a 01F0      		breq .L55
 599 005c 60E0      		ldi r22,lo8(.LC5)
 600 005e 70E0      		ldi r23,hi8(.LC5)
 601 0060 CE01      		movw r24,r28
 602 0062 0E94 0000 		call check_next
 603 0066 892B      		or r24,r25
 604 0068 01F0      		breq .L43
 605 006a 60E0      		ldi r22,lo8(.LC6)
 606 006c 70E0      		ldi r23,hi8(.LC6)
 607 006e CE01      		movw r24,r28
 608 0070 0E94 0000 		call check_next
 609 0074 00C0      		rjmp .L43
 610               	.L46:
 611 0076 B701      		movw r22,r14
 612 0078 CE01      		movw r24,r28
 613 007a 0E94 0000 		call save
 614 007e EE89      		ldd r30,Y+22
 615 0080 FF89      		ldd r31,Y+23
 616 0082 8081      		ld r24,Z
GAS LISTING /tmp/cchWtc0N.s 			page 12


 617 0084 9181      		ldd r25,Z+1
 618 0086 9C01      		movw r18,r24
 619 0088 2150      		subi r18,1
 620 008a 3109      		sbc r19,__zero_reg__
 621 008c 3183      		std Z+1,r19
 622 008e 2083      		st Z,r18
 623 0090 892B      		or r24,r25
 624 0092 01F0      		breq .L44
 625 0094 A281      		ldd r26,Z+2
 626 0096 B381      		ldd r27,Z+3
 627 0098 CD01      		movw r24,r26
 628 009a 0196      		adiw r24,1
 629 009c 9383      		std Z+3,r25
 630 009e 8283      		std Z+2,r24
 631 00a0 8C91      		ld r24,X
 632 00a2 90E0      		ldi r25,0
 633               	.L45:
 634 00a4 9983      		std Y+1,r25
 635 00a6 8883      		st Y,r24
 636               	.L43:
 637 00a8 E880      		ld r14,Y
 638 00aa F980      		ldd r15,Y+1
 639 00ac C701      		movw r24,r14
 640 00ae 0E94 0000 		call isalnum
 641 00b2 892B      		or r24,r25
 642 00b4 01F0      		breq .L59
 643 00b6 00C0      		rjmp .L46
 644               	.L44:
 645 00b8 CF01      		movw r24,r30
 646 00ba 0E94 0000 		call luaZ_fill
 647 00be 00C0      		rjmp .L45
 648               	.L59:
 649 00c0 8FE5      		ldi r24,95
 650 00c2 E816      		cp r14,r24
 651 00c4 F104      		cpc r15,__zero_reg__
 652 00c6 01F0      		breq .L46
 653 00c8 60E0      		ldi r22,0
 654 00ca 70E0      		ldi r23,0
 655 00cc CE01      		movw r24,r28
 656 00ce 0E94 0000 		call save
 657 00d2 2C8D      		ldd r18,Y+28
 658 00d4 E88D      		ldd r30,Y+24
 659 00d6 F98D      		ldd r31,Y+25
 660 00d8 8081      		ld r24,Z
 661 00da 9181      		ldd r25,Z+1
 662 00dc 0280      		ldd __tmp_reg__,Z+2
 663 00de F381      		ldd r31,Z+3
 664 00e0 E02D      		mov r30,__tmp_reg__
 665 00e2 E80F      		add r30,r24
 666 00e4 F91F      		adc r31,r25
 667               	.L47:
 668 00e6 E817      		cp r30,r24
 669 00e8 F907      		cpc r31,r25
 670 00ea 01F0      		breq .L60
 671 00ec 3291      		ld r19,-Z
 672 00ee 3E32      		cpi r19,lo8(46)
 673 00f0 01F4      		brne .L47
GAS LISTING /tmp/cchWtc0N.s 			page 13


 674 00f2 2083      		st Z,r18
 675 00f4 00C0      		rjmp .L47
 676               	.L60:
 677 00f6 E88D      		ldd r30,Y+24
 678 00f8 F98D      		ldd r31,Y+25
 679 00fa B801      		movw r22,r16
 680 00fc 8081      		ld r24,Z
 681 00fe 9181      		ldd r25,Z+1
 682               	/* epilogue start */
 683 0100 DF91      		pop r29
 684 0102 CF91      		pop r28
 685 0104 1F91      		pop r17
 686 0106 0F91      		pop r16
 687 0108 FF90      		pop r15
 688 010a EF90      		pop r14
 689 010c 0C94 0000 		jmp luaO_str2d
 690               		.size	read_numeral, .-read_numeral
 691               		.section	.text.luaX_syntaxerror,"ax",@progbits
 692               	.global	luaX_syntaxerror
 693               		.hidden	luaX_syntaxerror
 694               		.type	luaX_syntaxerror, @function
 695               	luaX_syntaxerror:
 696               	/* prologue: function */
 697               	/* frame size = 0 */
 698               	/* stack size = 0 */
 699               	.L__stack_usage = 0
 700 0000 FC01      		movw r30,r24
 701 0002 4681      		ldd r20,Z+6
 702 0004 5781      		ldd r21,Z+7
 703 0006 0C94 0000 		jmp luaX_lexerror
 704               		.size	luaX_syntaxerror, .-luaX_syntaxerror
 705               		.section	.rodata.str1.1
 706               	.LC7:
 707 0042 6368 756E 		.string	"chunk has too many lines"
 707      6B20 6861 
 707      7320 746F 
 707      6F20 6D61 
 707      6E79 206C 
 708               		.section	.text.inclinenumber,"ax",@progbits
 709               		.type	inclinenumber, @function
 710               	inclinenumber:
 711 0000 0F93      		push r16
 712 0002 1F93      		push r17
 713 0004 CF93      		push r28
 714 0006 DF93      		push r29
 715               	/* prologue: function */
 716               	/* frame size = 0 */
 717               	/* stack size = 4 */
 718               	.L__stack_usage = 4
 719 0008 EC01      		movw r28,r24
 720 000a 0881      		ld r16,Y
 721 000c 1981      		ldd r17,Y+1
 722 000e EE89      		ldd r30,Y+22
 723 0010 FF89      		ldd r31,Y+23
 724 0012 8081      		ld r24,Z
 725 0014 9181      		ldd r25,Z+1
 726 0016 9C01      		movw r18,r24
GAS LISTING /tmp/cchWtc0N.s 			page 14


 727 0018 2150      		subi r18,1
 728 001a 3109      		sbc r19,__zero_reg__
 729 001c 3183      		std Z+1,r19
 730 001e 2083      		st Z,r18
 731 0020 892B      		or r24,r25
 732 0022 01F0      		breq .L63
 733 0024 A281      		ldd r26,Z+2
 734 0026 B381      		ldd r27,Z+3
 735 0028 CD01      		movw r24,r26
 736 002a 0196      		adiw r24,1
 737 002c 9383      		std Z+3,r25
 738 002e 8283      		std Z+2,r24
 739 0030 8C91      		ld r24,X
 740 0032 90E0      		ldi r25,0
 741 0034 00C0      		rjmp .L64
 742               	.L63:
 743 0036 CF01      		movw r24,r30
 744 0038 0E94 0000 		call luaZ_fill
 745               	.L64:
 746 003c 9983      		std Y+1,r25
 747 003e 8883      		st Y,r24
 748 0040 8A30      		cpi r24,10
 749 0042 9105      		cpc r25,__zero_reg__
 750 0044 01F0      		breq .L65
 751 0046 8D30      		cpi r24,13
 752 0048 9105      		cpc r25,__zero_reg__
 753 004a 01F4      		brne .L66
 754               	.L65:
 755 004c 8017      		cp r24,r16
 756 004e 9107      		cpc r25,r17
 757 0050 01F0      		breq .L66
 758 0052 EE89      		ldd r30,Y+22
 759 0054 FF89      		ldd r31,Y+23
 760 0056 8081      		ld r24,Z
 761 0058 9181      		ldd r25,Z+1
 762 005a 9C01      		movw r18,r24
 763 005c 2150      		subi r18,1
 764 005e 3109      		sbc r19,__zero_reg__
 765 0060 3183      		std Z+1,r19
 766 0062 2083      		st Z,r18
 767 0064 892B      		or r24,r25
 768 0066 01F0      		breq .L67
 769 0068 A281      		ldd r26,Z+2
 770 006a B381      		ldd r27,Z+3
 771 006c CD01      		movw r24,r26
 772 006e 0196      		adiw r24,1
 773 0070 9383      		std Z+3,r25
 774 0072 8283      		std Z+2,r24
 775 0074 8C91      		ld r24,X
 776 0076 90E0      		ldi r25,0
 777 0078 00C0      		rjmp .L68
 778               	.L67:
 779 007a CF01      		movw r24,r30
 780 007c 0E94 0000 		call luaZ_fill
 781               	.L68:
 782 0080 9983      		std Y+1,r25
 783 0082 8883      		st Y,r24
GAS LISTING /tmp/cchWtc0N.s 			page 15


 784               	.L66:
 785 0084 8A81      		ldd r24,Y+2
 786 0086 9B81      		ldd r25,Y+3
 787 0088 0196      		adiw r24,1
 788 008a 9B83      		std Y+3,r25
 789 008c 8A83      		std Y+2,r24
 790 008e 8D3F      		cpi r24,-3
 791 0090 9F47      		sbci r25,127
 792 0092 04F0      		brlt .L62
 793 0094 60E0      		ldi r22,lo8(.LC7)
 794 0096 70E0      		ldi r23,hi8(.LC7)
 795 0098 CE01      		movw r24,r28
 796               	/* epilogue start */
 797 009a DF91      		pop r29
 798 009c CF91      		pop r28
 799 009e 1F91      		pop r17
 800 00a0 0F91      		pop r16
 801 00a2 0C94 0000 		jmp luaX_syntaxerror
 802               	.L62:
 803               	/* epilogue start */
 804 00a6 DF91      		pop r29
 805 00a8 CF91      		pop r28
 806 00aa 1F91      		pop r17
 807 00ac 0F91      		pop r16
 808 00ae 0895      		ret
 809               		.size	inclinenumber, .-inclinenumber
 810               		.section	.text.luaX_newstring,"ax",@progbits
 811               	.global	luaX_newstring
 812               		.hidden	luaX_newstring
 813               		.type	luaX_newstring, @function
 814               	luaX_newstring:
 815 0000 EF92      		push r14
 816 0002 FF92      		push r15
 817 0004 0F93      		push r16
 818 0006 1F93      		push r17
 819 0008 CF93      		push r28
 820 000a DF93      		push r29
 821               	/* prologue: function */
 822               	/* frame size = 0 */
 823               	/* stack size = 6 */
 824               	.L__stack_usage = 6
 825 000c 7C01      		movw r14,r24
 826 000e DC01      		movw r26,r24
 827 0010 5496      		adiw r26,20
 828 0012 0D91      		ld r16,X+
 829 0014 1C91      		ld r17,X
 830 0016 5597      		sbiw r26,20+1
 831 0018 C801      		movw r24,r16
 832 001a 0E94 0000 		call luaS_newlstr
 833 001e EC01      		movw r28,r24
 834 0020 D701      		movw r26,r14
 835 0022 5296      		adiw r26,18
 836 0024 ED91      		ld r30,X+
 837 0026 FC91      		ld r31,X
 838 0028 5397      		sbiw r26,18+1
 839 002a 6281      		ldd r22,Z+2
 840 002c 7381      		ldd r23,Z+3
GAS LISTING /tmp/cchWtc0N.s 			page 16


 841 002e AC01      		movw r20,r24
 842 0030 C801      		movw r24,r16
 843 0032 0E94 0000 		call luaH_setstr
 844 0036 FC01      		movw r30,r24
 845 0038 8481      		ldd r24,Z+4
 846 003a 9581      		ldd r25,Z+5
 847 003c 892B      		or r24,r25
 848 003e 01F4      		brne .L74
 849 0040 81E0      		ldi r24,lo8(1)
 850 0042 90E0      		ldi r25,0
 851 0044 9183      		std Z+1,r25
 852 0046 8083      		st Z,r24
 853 0048 9583      		std Z+5,r25
 854 004a 8483      		std Z+4,r24
 855               	.L74:
 856 004c CE01      		movw r24,r28
 857               	/* epilogue start */
 858 004e DF91      		pop r29
 859 0050 CF91      		pop r28
 860 0052 1F91      		pop r17
 861 0054 0F91      		pop r16
 862 0056 FF90      		pop r15
 863 0058 EF90      		pop r14
 864 005a 0895      		ret
 865               		.size	luaX_newstring, .-luaX_newstring
 866               		.section	.rodata.str1.1
 867               	.LC8:
 868 005b 756E 6669 		.string	"unfinished long string"
 868      6E69 7368 
 868      6564 206C 
 868      6F6E 6720 
 868      7374 7269 
 869               	.LC9:
 870 0072 756E 6669 		.string	"unfinished long comment"
 870      6E69 7368 
 870      6564 206C 
 870      6F6E 6720 
 870      636F 6D6D 
 871               	.LC10:
 872 008a 6E65 7374 		.string	"nesting of [[...]] is deprecated"
 872      696E 6720 
 872      6F66 205B 
 872      5B2E 2E2E 
 872      5D5D 2069 
 873               		.section	.text.read_long_string,"ax",@progbits
 874               		.type	read_long_string, @function
 875               	read_long_string:
 876 0000 CF92      		push r12
 877 0002 DF92      		push r13
 878 0004 EF92      		push r14
 879 0006 FF92      		push r15
 880 0008 0F93      		push r16
 881 000a 1F93      		push r17
 882 000c CF93      		push r28
 883 000e DF93      		push r29
 884               	/* prologue: function */
 885               	/* frame size = 0 */
GAS LISTING /tmp/cchWtc0N.s 			page 17


 886               	/* stack size = 8 */
 887               	.L__stack_usage = 8
 888 0010 EC01      		movw r28,r24
 889 0012 7B01      		movw r14,r22
 890 0014 8A01      		movw r16,r20
 891 0016 6881      		ld r22,Y
 892 0018 7981      		ldd r23,Y+1
 893 001a 0E94 0000 		call save
 894 001e EE89      		ldd r30,Y+22
 895 0020 FF89      		ldd r31,Y+23
 896 0022 8081      		ld r24,Z
 897 0024 9181      		ldd r25,Z+1
 898 0026 9C01      		movw r18,r24
 899 0028 2150      		subi r18,1
 900 002a 3109      		sbc r19,__zero_reg__
 901 002c 3183      		std Z+1,r19
 902 002e 2083      		st Z,r18
 903 0030 892B      		or r24,r25
 904 0032 01F0      		breq .L76
 905 0034 A281      		ldd r26,Z+2
 906 0036 B381      		ldd r27,Z+3
 907 0038 CD01      		movw r24,r26
 908 003a 0196      		adiw r24,1
 909 003c 9383      		std Z+3,r25
 910 003e 8283      		std Z+2,r24
 911 0040 8C91      		ld r24,X
 912 0042 90E0      		ldi r25,0
 913 0044 00C0      		rjmp .L77
 914               	.L76:
 915 0046 CF01      		movw r24,r30
 916 0048 0E94 0000 		call luaZ_fill
 917               	.L77:
 918 004c 9983      		std Y+1,r25
 919 004e 8883      		st Y,r24
 920 0050 8A30      		cpi r24,10
 921 0052 9105      		cpc r25,__zero_reg__
 922 0054 01F0      		breq .L78
 923 0056 0D97      		sbiw r24,13
 924 0058 01F4      		brne .L79
 925               	.L78:
 926 005a CE01      		movw r24,r28
 927 005c 0E94 0000 		call inclinenumber
 928               	.L79:
 929 0060 E114      		cp r14,__zero_reg__
 930 0062 F104      		cpc r15,__zero_reg__
 931 0064 01F0      		breq .L80
 932 0066 40E0      		ldi r20,lo8(.LC8)
 933 0068 C42E      		mov r12,r20
 934 006a 40E0      		ldi r20,hi8(.LC8)
 935 006c D42E      		mov r13,r20
 936 006e 00C0      		rjmp .L82
 937               	.L80:
 938 0070 30E0      		ldi r19,lo8(.LC9)
 939 0072 C32E      		mov r12,r19
 940 0074 30E0      		ldi r19,hi8(.LC9)
 941 0076 D32E      		mov r13,r19
 942               	.L82:
GAS LISTING /tmp/cchWtc0N.s 			page 18


 943 0078 6881      		ld r22,Y
 944 007a 7981      		ldd r23,Y+1
 945 007c 6D30      		cpi r22,13
 946 007e 7105      		cpc r23,__zero_reg__
 947 0080 01F4      		brne .+2
 948 0082 00C0      		rjmp .L84
 949 0084 04F4      		brge .L85
 950 0086 6F3F      		cpi r22,-1
 951 0088 8FEF      		ldi r24,-1
 952 008a 7807      		cpc r23,r24
 953 008c 01F0      		breq .L86
 954 008e 6A30      		cpi r22,10
 955 0090 7105      		cpc r23,__zero_reg__
 956 0092 01F4      		brne .+2
 957 0094 00C0      		rjmp .L84
 958 0096 00C0      		rjmp .L83
 959               	.L85:
 960 0098 6B35      		cpi r22,91
 961 009a 7105      		cpc r23,__zero_reg__
 962 009c 01F0      		breq .L87
 963 009e 6D35      		cpi r22,93
 964 00a0 7105      		cpc r23,__zero_reg__
 965 00a2 01F0      		breq .L88
 966 00a4 00C0      		rjmp .L83
 967               	.L86:
 968 00a6 4FE1      		ldi r20,lo8(31)
 969 00a8 51E0      		ldi r21,lo8(1)
 970 00aa B601      		movw r22,r12
 971 00ac 00C0      		rjmp .L111
 972               	.L87:
 973 00ae CE01      		movw r24,r28
 974 00b0 0E94 0000 		call skip_sep
 975 00b4 8017      		cp r24,r16
 976 00b6 9107      		cpc r25,r17
 977 00b8 01F4      		brne .L82
 978 00ba 6881      		ld r22,Y
 979 00bc 7981      		ldd r23,Y+1
 980 00be CE01      		movw r24,r28
 981 00c0 0E94 0000 		call save
 982 00c4 EE89      		ldd r30,Y+22
 983 00c6 FF89      		ldd r31,Y+23
 984 00c8 8081      		ld r24,Z
 985 00ca 9181      		ldd r25,Z+1
 986 00cc 9C01      		movw r18,r24
 987 00ce 2150      		subi r18,1
 988 00d0 3109      		sbc r19,__zero_reg__
 989 00d2 3183      		std Z+1,r19
 990 00d4 2083      		st Z,r18
 991 00d6 892B      		or r24,r25
 992 00d8 01F0      		breq .L91
 993 00da A281      		ldd r26,Z+2
 994 00dc B381      		ldd r27,Z+3
 995 00de CD01      		movw r24,r26
 996 00e0 0196      		adiw r24,1
 997 00e2 9383      		std Z+3,r25
 998 00e4 8283      		std Z+2,r24
 999 00e6 8C91      		ld r24,X
GAS LISTING /tmp/cchWtc0N.s 			page 19


 1000 00e8 90E0      		ldi r25,0
 1001 00ea 00C0      		rjmp .L92
 1002               	.L91:
 1003 00ec CF01      		movw r24,r30
 1004 00ee 0E94 0000 		call luaZ_fill
 1005               	.L92:
 1006 00f2 9983      		std Y+1,r25
 1007 00f4 8883      		st Y,r24
 1008 00f6 0115      		cp r16,__zero_reg__
 1009 00f8 1105      		cpc r17,__zero_reg__
 1010 00fa 01F0      		breq .+2
 1011 00fc 00C0      		rjmp .L82
 1012 00fe 4BE5      		ldi r20,lo8(91)
 1013 0100 50E0      		ldi r21,0
 1014 0102 60E0      		ldi r22,lo8(.LC10)
 1015 0104 70E0      		ldi r23,hi8(.LC10)
 1016               	.L111:
 1017 0106 CE01      		movw r24,r28
 1018 0108 0E94 0000 		call luaX_lexerror
 1019 010c 00C0      		rjmp .L82
 1020               	.L88:
 1021 010e CE01      		movw r24,r28
 1022 0110 0E94 0000 		call skip_sep
 1023 0114 0817      		cp r16,r24
 1024 0116 1907      		cpc r17,r25
 1025 0118 01F0      		breq .+2
 1026 011a 00C0      		rjmp .L82
 1027 011c 6881      		ld r22,Y
 1028 011e 7981      		ldd r23,Y+1
 1029 0120 CE01      		movw r24,r28
 1030 0122 0E94 0000 		call save
 1031 0126 EE89      		ldd r30,Y+22
 1032 0128 FF89      		ldd r31,Y+23
 1033 012a 8081      		ld r24,Z
 1034 012c 9181      		ldd r25,Z+1
 1035 012e 9C01      		movw r18,r24
 1036 0130 2150      		subi r18,1
 1037 0132 3109      		sbc r19,__zero_reg__
 1038 0134 3183      		std Z+1,r19
 1039 0136 2083      		st Z,r18
 1040 0138 892B      		or r24,r25
 1041 013a 01F0      		breq .L93
 1042 013c A281      		ldd r26,Z+2
 1043 013e B381      		ldd r27,Z+3
 1044 0140 CD01      		movw r24,r26
 1045 0142 0196      		adiw r24,1
 1046 0144 9383      		std Z+3,r25
 1047 0146 8283      		std Z+2,r24
 1048 0148 8C91      		ld r24,X
 1049 014a 90E0      		ldi r25,0
 1050 014c 00C0      		rjmp .L94
 1051               	.L93:
 1052 014e CF01      		movw r24,r30
 1053 0150 0E94 0000 		call luaZ_fill
 1054               	.L94:
 1055 0154 9983      		std Y+1,r25
 1056 0156 8883      		st Y,r24
GAS LISTING /tmp/cchWtc0N.s 			page 20


 1057 0158 E114      		cp r14,__zero_reg__
 1058 015a F104      		cpc r15,__zero_reg__
 1059 015c 01F4      		brne .+2
 1060 015e 00C0      		rjmp .L75
 1061 0160 E88D      		ldd r30,Y+24
 1062 0162 F98D      		ldd r31,Y+25
 1063 0164 0E5F      		subi r16,-2
 1064 0166 1F4F      		sbci r17,-1
 1065 0168 C801      		movw r24,r16
 1066 016a 880F      		lsl r24
 1067 016c 991F      		rol r25
 1068 016e 4281      		ldd r20,Z+2
 1069 0170 5381      		ldd r21,Z+3
 1070 0172 481B      		sub r20,r24
 1071 0174 590B      		sbc r21,r25
 1072 0176 6081      		ld r22,Z
 1073 0178 7181      		ldd r23,Z+1
 1074 017a 600F      		add r22,r16
 1075 017c 711F      		adc r23,r17
 1076 017e CE01      		movw r24,r28
 1077 0180 0E94 0000 		call luaX_newstring
 1078 0184 F701      		movw r30,r14
 1079 0186 9183      		std Z+1,r25
 1080 0188 8083      		st Z,r24
 1081 018a 00C0      		rjmp .L75
 1082               	.L84:
 1083 018c 6AE0      		ldi r22,lo8(10)
 1084 018e 70E0      		ldi r23,0
 1085 0190 CE01      		movw r24,r28
 1086 0192 0E94 0000 		call save
 1087 0196 CE01      		movw r24,r28
 1088 0198 0E94 0000 		call inclinenumber
 1089 019c E114      		cp r14,__zero_reg__
 1090 019e F104      		cpc r15,__zero_reg__
 1091 01a0 01F0      		breq .+2
 1092 01a2 00C0      		rjmp .L82
 1093 01a4 E88D      		ldd r30,Y+24
 1094 01a6 F98D      		ldd r31,Y+25
 1095 01a8 1382      		std Z+3,__zero_reg__
 1096 01aa 1282      		std Z+2,__zero_reg__
 1097 01ac 00C0      		rjmp .L82
 1098               	.L83:
 1099 01ae E114      		cp r14,__zero_reg__
 1100 01b0 F104      		cpc r15,__zero_reg__
 1101 01b2 01F0      		breq .L97
 1102 01b4 CE01      		movw r24,r28
 1103 01b6 0E94 0000 		call save
 1104               	.L97:
 1105 01ba EE89      		ldd r30,Y+22
 1106 01bc FF89      		ldd r31,Y+23
 1107 01be 8081      		ld r24,Z
 1108 01c0 9181      		ldd r25,Z+1
 1109 01c2 9C01      		movw r18,r24
 1110 01c4 2150      		subi r18,1
 1111 01c6 3109      		sbc r19,__zero_reg__
 1112 01c8 3183      		std Z+1,r19
 1113 01ca 2083      		st Z,r18
GAS LISTING /tmp/cchWtc0N.s 			page 21


 1114 01cc 892B      		or r24,r25
 1115 01ce 01F0      		breq .L100
 1116 01d0 A281      		ldd r26,Z+2
 1117 01d2 B381      		ldd r27,Z+3
 1118 01d4 CD01      		movw r24,r26
 1119 01d6 0196      		adiw r24,1
 1120 01d8 9383      		std Z+3,r25
 1121 01da 8283      		std Z+2,r24
 1122 01dc 8C91      		ld r24,X
 1123 01de 90E0      		ldi r25,0
 1124 01e0 00C0      		rjmp .L101
 1125               	.L100:
 1126 01e2 CF01      		movw r24,r30
 1127 01e4 0E94 0000 		call luaZ_fill
 1128               	.L101:
 1129 01e8 9983      		std Y+1,r25
 1130 01ea 8883      		st Y,r24
 1131 01ec 00C0      		rjmp .L82
 1132               	.L75:
 1133               	/* epilogue start */
 1134 01ee DF91      		pop r29
 1135 01f0 CF91      		pop r28
 1136 01f2 1F91      		pop r17
 1137 01f4 0F91      		pop r16
 1138 01f6 FF90      		pop r15
 1139 01f8 EF90      		pop r14
 1140 01fa DF90      		pop r13
 1141 01fc CF90      		pop r12
 1142 01fe 0895      		ret
 1143               		.size	read_long_string, .-read_long_string
 1144               		.section	.rodata.str1.1
 1145               	.LC11:
 1146 00ab 696E 7661 		.string	"invalid long string delimiter"
 1146      6C69 6420 
 1146      6C6F 6E67 
 1146      2073 7472 
 1146      696E 6720 
 1147               	.LC12:
 1148 00c9 756E 6669 		.string	"unfinished string"
 1148      6E69 7368 
 1148      6564 2073 
 1148      7472 696E 
 1148      6700 
 1149               	.LC13:
 1150 00db 6573 6361 		.string	"escape sequence too large"
 1150      7065 2073 
 1150      6571 7565 
 1150      6E63 6520 
 1150      746F 6F20 
 1151               	.LC14:
 1152 00f5 2E00      		.string	"."
 1153               		.section	.text.llex,"ax",@progbits
 1154               		.type	llex, @function
 1155               	llex:
 1156 0000 8F92      		push r8
 1157 0002 9F92      		push r9
 1158 0004 BF92      		push r11
GAS LISTING /tmp/cchWtc0N.s 			page 22


 1159 0006 CF92      		push r12
 1160 0008 DF92      		push r13
 1161 000a EF92      		push r14
 1162 000c FF92      		push r15
 1163 000e 0F93      		push r16
 1164 0010 1F93      		push r17
 1165 0012 CF93      		push r28
 1166 0014 DF93      		push r29
 1167               	/* prologue: function */
 1168               	/* frame size = 0 */
 1169               	/* stack size = 11 */
 1170               	.L__stack_usage = 11
 1171 0016 EC01      		movw r28,r24
 1172 0018 6B01      		movw r12,r22
 1173               	.L260:
 1174 001a E88D      		ldd r30,Y+24
 1175 001c F98D      		ldd r31,Y+25
 1176 001e 1382      		std Z+3,__zero_reg__
 1177 0020 1282      		std Z+2,__zero_reg__
 1178               	.L115:
 1179 0022 0881      		ld r16,Y
 1180 0024 1981      		ldd r17,Y+1
 1181 0026 0D32      		cpi r16,45
 1182 0028 1105      		cpc r17,__zero_reg__
 1183 002a 01F0      		breq .L117
 1184 002c 04F4      		brge .L118
 1185 002e 0D30      		cpi r16,13
 1186 0030 1105      		cpc r17,__zero_reg__
 1187 0032 01F0      		breq .L119
 1188 0034 04F4      		brge .L120
 1189 0036 0F3F      		cpi r16,-1
 1190 0038 2FEF      		ldi r18,-1
 1191 003a 1207      		cpc r17,r18
 1192 003c 01F4      		brne .+2
 1193 003e 00C0      		rjmp .L212
 1194 0040 0A30      		cpi r16,10
 1195 0042 1105      		cpc r17,__zero_reg__
 1196 0044 01F0      		breq .L119
 1197 0046 00C0      		rjmp .L116
 1198               	.L120:
 1199 0048 0232      		cpi r16,34
 1200 004a 1105      		cpc r17,__zero_reg__
 1201 004c 01F4      		brne .+2
 1202 004e 00C0      		rjmp .L122
 1203 0050 0732      		cpi r16,39
 1204 0052 1105      		cpc r17,__zero_reg__
 1205 0054 01F4      		brne .+2
 1206 0056 00C0      		rjmp .L122
 1207 0058 00C0      		rjmp .L116
 1208               	.L118:
 1209 005a 0D33      		cpi r16,61
 1210 005c 1105      		cpc r17,__zero_reg__
 1211 005e 01F4      		brne .+2
 1212 0060 00C0      		rjmp .L123
 1213 0062 04F4      		brge .L124
 1214 0064 0E32      		cpi r16,46
 1215 0066 1105      		cpc r17,__zero_reg__
GAS LISTING /tmp/cchWtc0N.s 			page 23


 1216 0068 01F4      		brne .+2
 1217 006a 00C0      		rjmp .L125
 1218 006c 0C33      		cpi r16,60
 1219 006e 1105      		cpc r17,__zero_reg__
 1220 0070 01F4      		brne .+2
 1221 0072 00C0      		rjmp .L126
 1222 0074 00C0      		rjmp .L116
 1223               	.L124:
 1224 0076 0B35      		cpi r16,91
 1225 0078 1105      		cpc r17,__zero_reg__
 1226 007a 01F4      		brne .+2
 1227 007c 00C0      		rjmp .L127
 1228 007e 0E37      		cpi r16,126
 1229 0080 1105      		cpc r17,__zero_reg__
 1230 0082 01F4      		brne .+2
 1231 0084 00C0      		rjmp .L128
 1232 0086 0E33      		cpi r16,62
 1233 0088 1105      		cpc r17,__zero_reg__
 1234 008a 01F0      		breq .+2
 1235 008c 00C0      		rjmp .L116
 1236 008e 00C0      		rjmp .L266
 1237               	.L119:
 1238 0090 CE01      		movw r24,r28
 1239 0092 0E94 0000 		call inclinenumber
 1240 0096 00C0      		rjmp .L115
 1241               	.L117:
 1242 0098 EE89      		ldd r30,Y+22
 1243 009a FF89      		ldd r31,Y+23
 1244 009c 8081      		ld r24,Z
 1245 009e 9181      		ldd r25,Z+1
 1246 00a0 9C01      		movw r18,r24
 1247 00a2 2150      		subi r18,1
 1248 00a4 3109      		sbc r19,__zero_reg__
 1249 00a6 3183      		std Z+1,r19
 1250 00a8 2083      		st Z,r18
 1251 00aa 892B      		or r24,r25
 1252 00ac 01F0      		breq .L131
 1253 00ae A281      		ldd r26,Z+2
 1254 00b0 B381      		ldd r27,Z+3
 1255 00b2 CD01      		movw r24,r26
 1256 00b4 0196      		adiw r24,1
 1257 00b6 9383      		std Z+3,r25
 1258 00b8 8283      		std Z+2,r24
 1259 00ba 8C91      		ld r24,X
 1260 00bc 90E0      		ldi r25,0
 1261 00be 00C0      		rjmp .L132
 1262               	.L131:
 1263 00c0 CF01      		movw r24,r30
 1264 00c2 0E94 0000 		call luaZ_fill
 1265               	.L132:
 1266 00c6 9983      		std Y+1,r25
 1267 00c8 8883      		st Y,r24
 1268 00ca 8D97      		sbiw r24,45
 1269 00cc 01F0      		breq .+2
 1270 00ce 00C0      		rjmp .L121
 1271 00d0 EE89      		ldd r30,Y+22
 1272 00d2 FF89      		ldd r31,Y+23
GAS LISTING /tmp/cchWtc0N.s 			page 24


 1273 00d4 8081      		ld r24,Z
 1274 00d6 9181      		ldd r25,Z+1
 1275 00d8 9C01      		movw r18,r24
 1276 00da 2150      		subi r18,1
 1277 00dc 3109      		sbc r19,__zero_reg__
 1278 00de 3183      		std Z+1,r19
 1279 00e0 2083      		st Z,r18
 1280 00e2 892B      		or r24,r25
 1281 00e4 01F0      		breq .L133
 1282 00e6 A281      		ldd r26,Z+2
 1283 00e8 B381      		ldd r27,Z+3
 1284 00ea CD01      		movw r24,r26
 1285 00ec 0196      		adiw r24,1
 1286 00ee 9383      		std Z+3,r25
 1287 00f0 8283      		std Z+2,r24
 1288 00f2 8C91      		ld r24,X
 1289 00f4 90E0      		ldi r25,0
 1290 00f6 00C0      		rjmp .L134
 1291               	.L133:
 1292 00f8 CF01      		movw r24,r30
 1293 00fa 0E94 0000 		call luaZ_fill
 1294               	.L134:
 1295 00fe 9983      		std Y+1,r25
 1296 0100 8883      		st Y,r24
 1297 0102 8B35      		cpi r24,91
 1298 0104 9105      		cpc r25,__zero_reg__
 1299 0106 01F4      		brne .L136
 1300 0108 CE01      		movw r24,r28
 1301 010a 0E94 0000 		call skip_sep
 1302 010e E88D      		ldd r30,Y+24
 1303 0110 F98D      		ldd r31,Y+25
 1304 0112 1382      		std Z+3,__zero_reg__
 1305 0114 1282      		std Z+2,__zero_reg__
 1306 0116 97FD      		sbrc r25,7
 1307 0118 00C0      		rjmp .L136
 1308 011a AC01      		movw r20,r24
 1309 011c 60E0      		ldi r22,0
 1310 011e 70E0      		ldi r23,0
 1311 0120 CE01      		movw r24,r28
 1312 0122 0E94 0000 		call read_long_string
 1313 0126 00C0      		rjmp .L260
 1314               	.L267:
 1315 0128 8D30      		cpi r24,13
 1316 012a 9105      		cpc r25,__zero_reg__
 1317 012c 01F4      		brne .+2
 1318 012e 00C0      		rjmp .L115
 1319 0130 0196      		adiw r24,1
 1320 0132 01F4      		brne .+2
 1321 0134 00C0      		rjmp .L115
 1322 0136 EE89      		ldd r30,Y+22
 1323 0138 FF89      		ldd r31,Y+23
 1324 013a 8081      		ld r24,Z
 1325 013c 9181      		ldd r25,Z+1
 1326 013e 9C01      		movw r18,r24
 1327 0140 2150      		subi r18,1
 1328 0142 3109      		sbc r19,__zero_reg__
 1329 0144 3183      		std Z+1,r19
GAS LISTING /tmp/cchWtc0N.s 			page 25


 1330 0146 2083      		st Z,r18
 1331 0148 892B      		or r24,r25
 1332 014a 01F0      		breq .L138
 1333 014c A281      		ldd r26,Z+2
 1334 014e B381      		ldd r27,Z+3
 1335 0150 CD01      		movw r24,r26
 1336 0152 0196      		adiw r24,1
 1337 0154 9383      		std Z+3,r25
 1338 0156 8283      		std Z+2,r24
 1339 0158 8C91      		ld r24,X
 1340 015a 90E0      		ldi r25,0
 1341               	.L139:
 1342 015c 9983      		std Y+1,r25
 1343 015e 8883      		st Y,r24
 1344               	.L136:
 1345 0160 8881      		ld r24,Y
 1346 0162 9981      		ldd r25,Y+1
 1347 0164 8A30      		cpi r24,10
 1348 0166 9105      		cpc r25,__zero_reg__
 1349 0168 01F4      		brne .L267
 1350 016a 00C0      		rjmp .L115
 1351               	.L138:
 1352 016c CF01      		movw r24,r30
 1353 016e 0E94 0000 		call luaZ_fill
 1354 0172 00C0      		rjmp .L139
 1355               	.L127:
 1356 0174 CE01      		movw r24,r28
 1357 0176 0E94 0000 		call skip_sep
 1358 017a 97FD      		sbrc r25,7
 1359 017c 00C0      		rjmp .L141
 1360 017e AC01      		movw r20,r24
 1361 0180 B601      		movw r22,r12
 1362 0182 CE01      		movw r24,r28
 1363 0184 0E94 0000 		call read_long_string
 1364 0188 00C0      		rjmp .L262
 1365               	.L141:
 1366 018a 0196      		adiw r24,1
 1367 018c 01F4      		brne .+2
 1368 018e 00C0      		rjmp .L121
 1369 0190 4EE1      		ldi r20,lo8(30)
 1370 0192 51E0      		ldi r21,lo8(1)
 1371 0194 60E0      		ldi r22,lo8(.LC11)
 1372 0196 70E0      		ldi r23,hi8(.LC11)
 1373 0198 CE01      		movw r24,r28
 1374 019a 0E94 0000 		call luaX_lexerror
 1375               	.L123:
 1376 019e EE89      		ldd r30,Y+22
 1377 01a0 FF89      		ldd r31,Y+23
 1378 01a2 8081      		ld r24,Z
 1379 01a4 9181      		ldd r25,Z+1
 1380 01a6 9C01      		movw r18,r24
 1381 01a8 2150      		subi r18,1
 1382 01aa 3109      		sbc r19,__zero_reg__
 1383 01ac 3183      		std Z+1,r19
 1384 01ae 2083      		st Z,r18
 1385 01b0 892B      		or r24,r25
 1386 01b2 01F0      		breq .L142
GAS LISTING /tmp/cchWtc0N.s 			page 26


 1387 01b4 A281      		ldd r26,Z+2
 1388 01b6 B381      		ldd r27,Z+3
 1389 01b8 CD01      		movw r24,r26
 1390 01ba 0196      		adiw r24,1
 1391 01bc 9383      		std Z+3,r25
 1392 01be 8283      		std Z+2,r24
 1393 01c0 8C91      		ld r24,X
 1394 01c2 90E0      		ldi r25,0
 1395 01c4 00C0      		rjmp .L143
 1396               	.L142:
 1397 01c6 CF01      		movw r24,r30
 1398 01c8 0E94 0000 		call luaZ_fill
 1399               	.L143:
 1400 01cc 9983      		std Y+1,r25
 1401 01ce 8883      		st Y,r24
 1402 01d0 CD97      		sbiw r24,61
 1403 01d2 01F0      		breq .+2
 1404 01d4 00C0      		rjmp .L213
 1405 01d6 EE89      		ldd r30,Y+22
 1406 01d8 FF89      		ldd r31,Y+23
 1407 01da 8081      		ld r24,Z
 1408 01dc 9181      		ldd r25,Z+1
 1409 01de 9C01      		movw r18,r24
 1410 01e0 2150      		subi r18,1
 1411 01e2 3109      		sbc r19,__zero_reg__
 1412 01e4 3183      		std Z+1,r19
 1413 01e6 2083      		st Z,r18
 1414 01e8 892B      		or r24,r25
 1415 01ea 01F0      		breq .L144
 1416 01ec A281      		ldd r26,Z+2
 1417 01ee B381      		ldd r27,Z+3
 1418 01f0 CD01      		movw r24,r26
 1419 01f2 0196      		adiw r24,1
 1420 01f4 9383      		std Z+3,r25
 1421 01f6 8283      		std Z+2,r24
 1422 01f8 8C91      		ld r24,X
 1423 01fa 90E0      		ldi r25,0
 1424 01fc 00C0      		rjmp .L145
 1425               	.L144:
 1426 01fe CF01      		movw r24,r30
 1427 0200 0E94 0000 		call luaZ_fill
 1428               	.L145:
 1429 0204 9983      		std Y+1,r25
 1430 0206 8883      		st Y,r24
 1431 0208 08E1      		ldi r16,lo8(24)
 1432 020a 11E0      		ldi r17,lo8(1)
 1433 020c 00C0      		rjmp .L121
 1434               	.L126:
 1435 020e EE89      		ldd r30,Y+22
 1436 0210 FF89      		ldd r31,Y+23
 1437 0212 8081      		ld r24,Z
 1438 0214 9181      		ldd r25,Z+1
 1439 0216 9C01      		movw r18,r24
 1440 0218 2150      		subi r18,1
 1441 021a 3109      		sbc r19,__zero_reg__
 1442 021c 3183      		std Z+1,r19
 1443 021e 2083      		st Z,r18
GAS LISTING /tmp/cchWtc0N.s 			page 27


 1444 0220 892B      		or r24,r25
 1445 0222 01F0      		breq .L146
 1446 0224 A281      		ldd r26,Z+2
 1447 0226 B381      		ldd r27,Z+3
 1448 0228 CD01      		movw r24,r26
 1449 022a 0196      		adiw r24,1
 1450 022c 9383      		std Z+3,r25
 1451 022e 8283      		std Z+2,r24
 1452 0230 8C91      		ld r24,X
 1453 0232 90E0      		ldi r25,0
 1454 0234 00C0      		rjmp .L147
 1455               	.L146:
 1456 0236 CF01      		movw r24,r30
 1457 0238 0E94 0000 		call luaZ_fill
 1458               	.L147:
 1459 023c 9983      		std Y+1,r25
 1460 023e 8883      		st Y,r24
 1461 0240 CD97      		sbiw r24,61
 1462 0242 01F0      		breq .+2
 1463 0244 00C0      		rjmp .L121
 1464 0246 EE89      		ldd r30,Y+22
 1465 0248 FF89      		ldd r31,Y+23
 1466 024a 8081      		ld r24,Z
 1467 024c 9181      		ldd r25,Z+1
 1468 024e 9C01      		movw r18,r24
 1469 0250 2150      		subi r18,1
 1470 0252 3109      		sbc r19,__zero_reg__
 1471 0254 3183      		std Z+1,r19
 1472 0256 2083      		st Z,r18
 1473 0258 892B      		or r24,r25
 1474 025a 01F0      		breq .L148
 1475 025c A281      		ldd r26,Z+2
 1476 025e B381      		ldd r27,Z+3
 1477 0260 CD01      		movw r24,r26
 1478 0262 0196      		adiw r24,1
 1479 0264 9383      		std Z+3,r25
 1480 0266 8283      		std Z+2,r24
 1481 0268 8C91      		ld r24,X
 1482 026a 90E0      		ldi r25,0
 1483 026c 00C0      		rjmp .L149
 1484               	.L148:
 1485 026e CF01      		movw r24,r30
 1486 0270 0E94 0000 		call luaZ_fill
 1487               	.L149:
 1488 0274 9983      		std Y+1,r25
 1489 0276 8883      		st Y,r24
 1490 0278 0AE1      		ldi r16,lo8(26)
 1491 027a 11E0      		ldi r17,lo8(1)
 1492 027c 00C0      		rjmp .L121
 1493               	.L266:
 1494 027e EE89      		ldd r30,Y+22
 1495 0280 FF89      		ldd r31,Y+23
 1496 0282 8081      		ld r24,Z
 1497 0284 9181      		ldd r25,Z+1
 1498 0286 9C01      		movw r18,r24
 1499 0288 2150      		subi r18,1
 1500 028a 3109      		sbc r19,__zero_reg__
GAS LISTING /tmp/cchWtc0N.s 			page 28


 1501 028c 3183      		std Z+1,r19
 1502 028e 2083      		st Z,r18
 1503 0290 892B      		or r24,r25
 1504 0292 01F0      		breq .L150
 1505 0294 A281      		ldd r26,Z+2
 1506 0296 B381      		ldd r27,Z+3
 1507 0298 CD01      		movw r24,r26
 1508 029a 0196      		adiw r24,1
 1509 029c 9383      		std Z+3,r25
 1510 029e 8283      		std Z+2,r24
 1511 02a0 8C91      		ld r24,X
 1512 02a2 90E0      		ldi r25,0
 1513 02a4 00C0      		rjmp .L151
 1514               	.L150:
 1515 02a6 CF01      		movw r24,r30
 1516 02a8 0E94 0000 		call luaZ_fill
 1517               	.L151:
 1518 02ac 9983      		std Y+1,r25
 1519 02ae 8883      		st Y,r24
 1520 02b0 CD97      		sbiw r24,61
 1521 02b2 01F0      		breq .+2
 1522 02b4 00C0      		rjmp .L121
 1523 02b6 EE89      		ldd r30,Y+22
 1524 02b8 FF89      		ldd r31,Y+23
 1525 02ba 8081      		ld r24,Z
 1526 02bc 9181      		ldd r25,Z+1
 1527 02be 9C01      		movw r18,r24
 1528 02c0 2150      		subi r18,1
 1529 02c2 3109      		sbc r19,__zero_reg__
 1530 02c4 3183      		std Z+1,r19
 1531 02c6 2083      		st Z,r18
 1532 02c8 892B      		or r24,r25
 1533 02ca 01F0      		breq .L152
 1534 02cc A281      		ldd r26,Z+2
 1535 02ce B381      		ldd r27,Z+3
 1536 02d0 CD01      		movw r24,r26
 1537 02d2 0196      		adiw r24,1
 1538 02d4 9383      		std Z+3,r25
 1539 02d6 8283      		std Z+2,r24
 1540 02d8 8C91      		ld r24,X
 1541 02da 90E0      		ldi r25,0
 1542 02dc 00C0      		rjmp .L153
 1543               	.L152:
 1544 02de CF01      		movw r24,r30
 1545 02e0 0E94 0000 		call luaZ_fill
 1546               	.L153:
 1547 02e4 9983      		std Y+1,r25
 1548 02e6 8883      		st Y,r24
 1549 02e8 09E1      		ldi r16,lo8(25)
 1550 02ea 11E0      		ldi r17,lo8(1)
 1551 02ec 00C0      		rjmp .L121
 1552               	.L128:
 1553 02ee EE89      		ldd r30,Y+22
 1554 02f0 FF89      		ldd r31,Y+23
 1555 02f2 8081      		ld r24,Z
 1556 02f4 9181      		ldd r25,Z+1
 1557 02f6 9C01      		movw r18,r24
GAS LISTING /tmp/cchWtc0N.s 			page 29


 1558 02f8 2150      		subi r18,1
 1559 02fa 3109      		sbc r19,__zero_reg__
 1560 02fc 3183      		std Z+1,r19
 1561 02fe 2083      		st Z,r18
 1562 0300 892B      		or r24,r25
 1563 0302 01F0      		breq .L154
 1564 0304 A281      		ldd r26,Z+2
 1565 0306 B381      		ldd r27,Z+3
 1566 0308 CD01      		movw r24,r26
 1567 030a 0196      		adiw r24,1
 1568 030c 9383      		std Z+3,r25
 1569 030e 8283      		std Z+2,r24
 1570 0310 8C91      		ld r24,X
 1571 0312 90E0      		ldi r25,0
 1572 0314 00C0      		rjmp .L155
 1573               	.L154:
 1574 0316 CF01      		movw r24,r30
 1575 0318 0E94 0000 		call luaZ_fill
 1576               	.L155:
 1577 031c 9983      		std Y+1,r25
 1578 031e 8883      		st Y,r24
 1579 0320 CD97      		sbiw r24,61
 1580 0322 01F0      		breq .+2
 1581 0324 00C0      		rjmp .L121
 1582 0326 EE89      		ldd r30,Y+22
 1583 0328 FF89      		ldd r31,Y+23
 1584 032a 8081      		ld r24,Z
 1585 032c 9181      		ldd r25,Z+1
 1586 032e 9C01      		movw r18,r24
 1587 0330 2150      		subi r18,1
 1588 0332 3109      		sbc r19,__zero_reg__
 1589 0334 3183      		std Z+1,r19
 1590 0336 2083      		st Z,r18
 1591 0338 892B      		or r24,r25
 1592 033a 01F0      		breq .L156
 1593 033c A281      		ldd r26,Z+2
 1594 033e B381      		ldd r27,Z+3
 1595 0340 CD01      		movw r24,r26
 1596 0342 0196      		adiw r24,1
 1597 0344 9383      		std Z+3,r25
 1598 0346 8283      		std Z+2,r24
 1599 0348 8C91      		ld r24,X
 1600 034a 90E0      		ldi r25,0
 1601 034c 00C0      		rjmp .L157
 1602               	.L156:
 1603 034e CF01      		movw r24,r30
 1604 0350 0E94 0000 		call luaZ_fill
 1605               	.L157:
 1606 0354 9983      		std Y+1,r25
 1607 0356 8883      		st Y,r24
 1608 0358 0BE1      		ldi r16,lo8(27)
 1609 035a 11E0      		ldi r17,lo8(1)
 1610 035c 00C0      		rjmp .L121
 1611               	.L122:
 1612 035e B801      		movw r22,r16
 1613 0360 CE01      		movw r24,r28
 1614 0362 0E94 0000 		call save
GAS LISTING /tmp/cchWtc0N.s 			page 30


 1615 0366 EE89      		ldd r30,Y+22
 1616 0368 FF89      		ldd r31,Y+23
 1617 036a 8081      		ld r24,Z
 1618 036c 9181      		ldd r25,Z+1
 1619 036e 9C01      		movw r18,r24
 1620 0370 2150      		subi r18,1
 1621 0372 3109      		sbc r19,__zero_reg__
 1622 0374 3183      		std Z+1,r19
 1623 0376 2083      		st Z,r18
 1624 0378 892B      		or r24,r25
 1625 037a 01F0      		breq .L158
 1626 037c A281      		ldd r26,Z+2
 1627 037e B381      		ldd r27,Z+3
 1628 0380 CD01      		movw r24,r26
 1629 0382 0196      		adiw r24,1
 1630 0384 9383      		std Z+3,r25
 1631 0386 8283      		std Z+2,r24
 1632 0388 8C91      		ld r24,X
 1633 038a 90E0      		ldi r25,0
 1634 038c 00C0      		rjmp .L159
 1635               	.L158:
 1636 038e CF01      		movw r24,r30
 1637 0390 0E94 0000 		call luaZ_fill
 1638               	.L159:
 1639 0394 9983      		std Y+1,r25
 1640 0396 8883      		st Y,r24
 1641 0398 9AE0      		ldi r25,lo8(10)
 1642 039a B92E      		mov r11,r25
 1643               	.L160:
 1644 039c 6881      		ld r22,Y
 1645 039e 7981      		ldd r23,Y+1
 1646 03a0 0617      		cp r16,r22
 1647 03a2 1707      		cpc r17,r23
 1648 03a4 01F4      		brne .+2
 1649 03a6 00C0      		rjmp .L268
 1650 03a8 6A30      		cpi r22,10
 1651 03aa 7105      		cpc r23,__zero_reg__
 1652 03ac 01F0      		breq .L162
 1653 03ae 04F4      		brge .L163
 1654 03b0 6F3F      		cpi r22,-1
 1655 03b2 2FEF      		ldi r18,-1
 1656 03b4 7207      		cpc r23,r18
 1657 03b6 01F0      		breq .+2
 1658 03b8 00C0      		rjmp .L161
 1659 03ba 4FE1      		ldi r20,lo8(31)
 1660 03bc 51E0      		ldi r21,lo8(1)
 1661 03be 00C0      		rjmp .L261
 1662               	.L163:
 1663 03c0 6D30      		cpi r22,13
 1664 03c2 7105      		cpc r23,__zero_reg__
 1665 03c4 01F0      		breq .L162
 1666 03c6 6C35      		cpi r22,92
 1667 03c8 7105      		cpc r23,__zero_reg__
 1668 03ca 01F0      		breq .L165
 1669 03cc 00C0      		rjmp .L161
 1670               	.L162:
 1671 03ce 4EE1      		ldi r20,lo8(30)
GAS LISTING /tmp/cchWtc0N.s 			page 31


 1672 03d0 51E0      		ldi r21,lo8(1)
 1673               	.L261:
 1674 03d2 60E0      		ldi r22,lo8(.LC12)
 1675 03d4 70E0      		ldi r23,hi8(.LC12)
 1676 03d6 CE01      		movw r24,r28
 1677 03d8 0E94 0000 		call luaX_lexerror
 1678 03dc 00C0      		rjmp .L160
 1679               	.L165:
 1680 03de EE89      		ldd r30,Y+22
 1681 03e0 FF89      		ldd r31,Y+23
 1682 03e2 8081      		ld r24,Z
 1683 03e4 9181      		ldd r25,Z+1
 1684 03e6 9C01      		movw r18,r24
 1685 03e8 2150      		subi r18,1
 1686 03ea 3109      		sbc r19,__zero_reg__
 1687 03ec 3183      		std Z+1,r19
 1688 03ee 2083      		st Z,r18
 1689 03f0 892B      		or r24,r25
 1690 03f2 01F0      		breq .L167
 1691 03f4 A281      		ldd r26,Z+2
 1692 03f6 B381      		ldd r27,Z+3
 1693 03f8 CD01      		movw r24,r26
 1694 03fa 0196      		adiw r24,1
 1695 03fc 9383      		std Z+3,r25
 1696 03fe 8283      		std Z+2,r24
 1697 0400 8C91      		ld r24,X
 1698 0402 90E0      		ldi r25,0
 1699 0404 00C0      		rjmp .L168
 1700               	.L167:
 1701 0406 CF01      		movw r24,r30
 1702 0408 0E94 0000 		call luaZ_fill
 1703               	.L168:
 1704 040c 9983      		std Y+1,r25
 1705 040e 8883      		st Y,r24
 1706 0410 8236      		cpi r24,98
 1707 0412 9105      		cpc r25,__zero_reg__
 1708 0414 01F0      		breq .L170
 1709 0416 04F4      		brge .L171
 1710 0418 8A30      		cpi r24,10
 1711 041a 9105      		cpc r25,__zero_reg__
 1712 041c 01F0      		breq .L172
 1713 041e 04F4      		brge .L173
 1714 0420 8F3F      		cpi r24,-1
 1715 0422 EFEF      		ldi r30,-1
 1716 0424 9E07      		cpc r25,r30
 1717 0426 01F4      		brne .+2
 1718 0428 00C0      		rjmp .L160
 1719 042a 00C0      		rjmp .L169
 1720               	.L173:
 1721 042c 8D30      		cpi r24,13
 1722 042e 9105      		cpc r25,__zero_reg__
 1723 0430 01F0      		breq .L172
 1724 0432 8136      		cpi r24,97
 1725 0434 9105      		cpc r25,__zero_reg__
 1726 0436 01F4      		brne .+2
 1727 0438 00C0      		rjmp .L174
 1728 043a 00C0      		rjmp .L169
GAS LISTING /tmp/cchWtc0N.s 			page 32


 1729               	.L171:
 1730 043c 8237      		cpi r24,114
 1731 043e 9105      		cpc r25,__zero_reg__
 1732 0440 01F0      		breq .L175
 1733 0442 04F4      		brge .L176
 1734 0444 8636      		cpi r24,102
 1735 0446 9105      		cpc r25,__zero_reg__
 1736 0448 01F4      		brne .+2
 1737 044a 00C0      		rjmp .L214
 1738 044c 8E36      		cpi r24,110
 1739 044e 9105      		cpc r25,__zero_reg__
 1740 0450 01F4      		brne .L169
 1741 0452 6AE0      		ldi r22,lo8(10)
 1742 0454 70E0      		ldi r23,0
 1743 0456 00C0      		rjmp .L161
 1744               	.L176:
 1745 0458 8437      		cpi r24,116
 1746 045a 9105      		cpc r25,__zero_reg__
 1747 045c 01F0      		breq .L179
 1748 045e 8637      		cpi r24,118
 1749 0460 9105      		cpc r25,__zero_reg__
 1750 0462 01F4      		brne .L169
 1751 0464 6BE0      		ldi r22,lo8(11)
 1752 0466 70E0      		ldi r23,0
 1753 0468 00C0      		rjmp .L161
 1754               	.L170:
 1755 046a 68E0      		ldi r22,lo8(8)
 1756 046c 70E0      		ldi r23,0
 1757 046e 00C0      		rjmp .L161
 1758               	.L175:
 1759 0470 6DE0      		ldi r22,lo8(13)
 1760 0472 70E0      		ldi r23,0
 1761 0474 00C0      		rjmp .L161
 1762               	.L179:
 1763 0476 69E0      		ldi r22,lo8(9)
 1764 0478 70E0      		ldi r23,0
 1765 047a 00C0      		rjmp .L161
 1766               	.L172:
 1767 047c 6AE0      		ldi r22,lo8(10)
 1768 047e 70E0      		ldi r23,0
 1769 0480 CE01      		movw r24,r28
 1770 0482 0E94 0000 		call save
 1771 0486 CE01      		movw r24,r28
 1772 0488 0E94 0000 		call inclinenumber
 1773 048c 00C0      		rjmp .L160
 1774               	.L169:
 1775 048e 9C01      		movw r18,r24
 1776 0490 2053      		subi r18,48
 1777 0492 3109      		sbc r19,__zero_reg__
 1778 0494 2A30      		cpi r18,10
 1779 0496 3105      		cpc r19,__zero_reg__
 1780 0498 00F0      		brlo .L181
 1781 049a BC01      		movw r22,r24
 1782 049c 00C0      		rjmp .L161
 1783               	.L181:
 1784 049e 83E0      		ldi r24,lo8(3)
 1785 04a0 882E      		mov r8,r24
GAS LISTING /tmp/cchWtc0N.s 			page 33


 1786 04a2 912C      		mov r9,__zero_reg__
 1787 04a4 E12C      		mov r14,__zero_reg__
 1788 04a6 F12C      		mov r15,__zero_reg__
 1789               	.L189:
 1790 04a8 BE9C      		mul r11,r14
 1791 04aa C001      		movw r24,r0
 1792 04ac BF9C      		mul r11,r15
 1793 04ae 900D      		add r25,r0
 1794 04b0 1124      		clr __zero_reg__
 1795 04b2 E880      		ld r14,Y
 1796 04b4 F980      		ldd r15,Y+1
 1797 04b6 F0E3      		ldi r31,48
 1798 04b8 EF1A      		sub r14,r31
 1799 04ba F108      		sbc r15,__zero_reg__
 1800 04bc E80E      		add r14,r24
 1801 04be F91E      		adc r15,r25
 1802 04c0 EE89      		ldd r30,Y+22
 1803 04c2 FF89      		ldd r31,Y+23
 1804 04c4 8081      		ld r24,Z
 1805 04c6 9181      		ldd r25,Z+1
 1806 04c8 9C01      		movw r18,r24
 1807 04ca 2150      		subi r18,1
 1808 04cc 3109      		sbc r19,__zero_reg__
 1809 04ce 3183      		std Z+1,r19
 1810 04d0 2083      		st Z,r18
 1811 04d2 892B      		or r24,r25
 1812 04d4 01F0      		breq .L184
 1813 04d6 A281      		ldd r26,Z+2
 1814 04d8 B381      		ldd r27,Z+3
 1815 04da CD01      		movw r24,r26
 1816 04dc 0196      		adiw r24,1
 1817 04de 9383      		std Z+3,r25
 1818 04e0 8283      		std Z+2,r24
 1819 04e2 8C91      		ld r24,X
 1820 04e4 90E0      		ldi r25,0
 1821 04e6 00C0      		rjmp .L185
 1822               	.L184:
 1823 04e8 CF01      		movw r24,r30
 1824 04ea 0E94 0000 		call luaZ_fill
 1825               	.L185:
 1826 04ee 9983      		std Y+1,r25
 1827 04f0 8883      		st Y,r24
 1828 04f2 21E0      		ldi r18,1
 1829 04f4 821A      		sub r8,r18
 1830 04f6 9108      		sbc r9,__zero_reg__
 1831 04f8 01F4      		brne .L186
 1832               	.L190:
 1833 04fa 8FEF      		ldi r24,-1
 1834 04fc E816      		cp r14,r24
 1835 04fe F104      		cpc r15,__zero_reg__
 1836 0500 01F0      		breq .L188
 1837 0502 04F0      		brlt .L188
 1838 0504 4EE1      		ldi r20,lo8(30)
 1839 0506 51E0      		ldi r21,lo8(1)
 1840 0508 60E0      		ldi r22,lo8(.LC13)
 1841 050a 70E0      		ldi r23,hi8(.LC13)
 1842 050c CE01      		movw r24,r28
GAS LISTING /tmp/cchWtc0N.s 			page 34


 1843 050e 0E94 0000 		call luaX_lexerror
 1844 0512 00C0      		rjmp .L188
 1845               	.L186:
 1846 0514 C097      		sbiw r24,48
 1847 0516 0A97      		sbiw r24,10
 1848 0518 00F0      		brlo .L189
 1849 051a 00C0      		rjmp .L190
 1850               	.L188:
 1851 051c B701      		movw r22,r14
 1852 051e CE01      		movw r24,r28
 1853 0520 0E94 0000 		call save
 1854 0524 00C0      		rjmp .L160
 1855               	.L174:
 1856 0526 67E0      		ldi r22,lo8(7)
 1857 0528 70E0      		ldi r23,0
 1858 052a 00C0      		rjmp .L161
 1859               	.L214:
 1860 052c 6CE0      		ldi r22,lo8(12)
 1861 052e 70E0      		ldi r23,0
 1862               	.L161:
 1863 0530 CE01      		movw r24,r28
 1864 0532 0E94 0000 		call save
 1865 0536 EE89      		ldd r30,Y+22
 1866 0538 FF89      		ldd r31,Y+23
 1867 053a 8081      		ld r24,Z
 1868 053c 9181      		ldd r25,Z+1
 1869 053e 9C01      		movw r18,r24
 1870 0540 2150      		subi r18,1
 1871 0542 3109      		sbc r19,__zero_reg__
 1872 0544 3183      		std Z+1,r19
 1873 0546 2083      		st Z,r18
 1874 0548 892B      		or r24,r25
 1875 054a 01F0      		breq .L193
 1876 054c A281      		ldd r26,Z+2
 1877 054e B381      		ldd r27,Z+3
 1878 0550 CD01      		movw r24,r26
 1879 0552 0196      		adiw r24,1
 1880 0554 9383      		std Z+3,r25
 1881 0556 8283      		std Z+2,r24
 1882 0558 8C91      		ld r24,X
 1883 055a 90E0      		ldi r25,0
 1884 055c 00C0      		rjmp .L194
 1885               	.L193:
 1886 055e CF01      		movw r24,r30
 1887 0560 0E94 0000 		call luaZ_fill
 1888               	.L194:
 1889 0564 9983      		std Y+1,r25
 1890 0566 8883      		st Y,r24
 1891 0568 00C0      		rjmp .L160
 1892               	.L268:
 1893 056a B801      		movw r22,r16
 1894 056c CE01      		movw r24,r28
 1895 056e 0E94 0000 		call save
 1896 0572 EE89      		ldd r30,Y+22
 1897 0574 FF89      		ldd r31,Y+23
 1898 0576 8081      		ld r24,Z
 1899 0578 9181      		ldd r25,Z+1
GAS LISTING /tmp/cchWtc0N.s 			page 35


 1900 057a 9C01      		movw r18,r24
 1901 057c 2150      		subi r18,1
 1902 057e 3109      		sbc r19,__zero_reg__
 1903 0580 3183      		std Z+1,r19
 1904 0582 2083      		st Z,r18
 1905 0584 892B      		or r24,r25
 1906 0586 01F0      		breq .L196
 1907 0588 A281      		ldd r26,Z+2
 1908 058a B381      		ldd r27,Z+3
 1909 058c CD01      		movw r24,r26
 1910 058e 0196      		adiw r24,1
 1911 0590 9383      		std Z+3,r25
 1912 0592 8283      		std Z+2,r24
 1913 0594 8C91      		ld r24,X
 1914 0596 90E0      		ldi r25,0
 1915 0598 00C0      		rjmp .L197
 1916               	.L196:
 1917 059a CF01      		movw r24,r30
 1918 059c 0E94 0000 		call luaZ_fill
 1919               	.L197:
 1920 05a0 9983      		std Y+1,r25
 1921 05a2 8883      		st Y,r24
 1922 05a4 E88D      		ldd r30,Y+24
 1923 05a6 F98D      		ldd r31,Y+25
 1924 05a8 4281      		ldd r20,Z+2
 1925 05aa 5381      		ldd r21,Z+3
 1926 05ac 4250      		subi r20,2
 1927 05ae 5109      		sbc r21,__zero_reg__
 1928 05b0 6081      		ld r22,Z
 1929 05b2 7181      		ldd r23,Z+1
 1930 05b4 6F5F      		subi r22,-1
 1931 05b6 7F4F      		sbci r23,-1
 1932 05b8 CE01      		movw r24,r28
 1933 05ba 0E94 0000 		call luaX_newstring
 1934 05be F601      		movw r30,r12
 1935 05c0 9183      		std Z+1,r25
 1936 05c2 8083      		st Z,r24
 1937               	.L262:
 1938 05c4 0EE1      		ldi r16,lo8(30)
 1939 05c6 11E0      		ldi r17,lo8(1)
 1940 05c8 00C0      		rjmp .L121
 1941               	.L125:
 1942 05ca 6EE2      		ldi r22,lo8(46)
 1943 05cc 70E0      		ldi r23,0
 1944 05ce CE01      		movw r24,r28
 1945 05d0 0E94 0000 		call save
 1946 05d4 EE89      		ldd r30,Y+22
 1947 05d6 FF89      		ldd r31,Y+23
 1948 05d8 8081      		ld r24,Z
 1949 05da 9181      		ldd r25,Z+1
 1950 05dc 9C01      		movw r18,r24
 1951 05de 2150      		subi r18,1
 1952 05e0 3109      		sbc r19,__zero_reg__
 1953 05e2 3183      		std Z+1,r19
 1954 05e4 2083      		st Z,r18
 1955 05e6 892B      		or r24,r25
 1956 05e8 01F0      		breq .L198
GAS LISTING /tmp/cchWtc0N.s 			page 36


 1957 05ea A281      		ldd r26,Z+2
 1958 05ec B381      		ldd r27,Z+3
 1959 05ee CD01      		movw r24,r26
 1960 05f0 0196      		adiw r24,1
 1961 05f2 9383      		std Z+3,r25
 1962 05f4 8283      		std Z+2,r24
 1963 05f6 8C91      		ld r24,X
 1964 05f8 90E0      		ldi r25,0
 1965 05fa 00C0      		rjmp .L199
 1966               	.L198:
 1967 05fc CF01      		movw r24,r30
 1968 05fe 0E94 0000 		call luaZ_fill
 1969               	.L199:
 1970 0602 9983      		std Y+1,r25
 1971 0604 8883      		st Y,r24
 1972 0606 60E0      		ldi r22,lo8(.LC14)
 1973 0608 70E0      		ldi r23,hi8(.LC14)
 1974 060a CE01      		movw r24,r28
 1975 060c 0E94 0000 		call check_next
 1976 0610 892B      		or r24,r25
 1977 0612 01F0      		breq .L200
 1978 0614 60E0      		ldi r22,lo8(.LC14)
 1979 0616 70E0      		ldi r23,hi8(.LC14)
 1980 0618 CE01      		movw r24,r28
 1981 061a 0E94 0000 		call check_next
 1982 061e 892B      		or r24,r25
 1983 0620 01F0      		breq .+2
 1984 0622 00C0      		rjmp .L215
 1985 0624 06E1      		ldi r16,lo8(22)
 1986 0626 11E0      		ldi r17,lo8(1)
 1987 0628 00C0      		rjmp .L121
 1988               	.L200:
 1989 062a 8881      		ld r24,Y
 1990 062c 9981      		ldd r25,Y+1
 1991 062e C097      		sbiw r24,48
 1992 0630 0A97      		sbiw r24,10
 1993 0632 00F0      		brlo .+2
 1994 0634 00C0      		rjmp .L121
 1995               	.L204:
 1996 0636 B601      		movw r22,r12
 1997 0638 CE01      		movw r24,r28
 1998 063a 0E94 0000 		call read_numeral
 1999 063e 0CE1      		ldi r16,lo8(28)
 2000 0640 11E0      		ldi r17,lo8(1)
 2001 0642 00C0      		rjmp .L121
 2002               	.L116:
 2003 0644 C801      		movw r24,r16
 2004 0646 0E94 0000 		call isspace
 2005 064a 892B      		or r24,r25
 2006 064c 01F0      		breq .L201
 2007 064e EE89      		ldd r30,Y+22
 2008 0650 FF89      		ldd r31,Y+23
 2009 0652 8081      		ld r24,Z
 2010 0654 9181      		ldd r25,Z+1
 2011 0656 9C01      		movw r18,r24
 2012 0658 2150      		subi r18,1
 2013 065a 3109      		sbc r19,__zero_reg__
GAS LISTING /tmp/cchWtc0N.s 			page 37


 2014 065c 3183      		std Z+1,r19
 2015 065e 2083      		st Z,r18
 2016 0660 892B      		or r24,r25
 2017 0662 01F0      		breq .L202
 2018 0664 A281      		ldd r26,Z+2
 2019 0666 B381      		ldd r27,Z+3
 2020 0668 CD01      		movw r24,r26
 2021 066a 0196      		adiw r24,1
 2022 066c 9383      		std Z+3,r25
 2023 066e 8283      		std Z+2,r24
 2024 0670 8C91      		ld r24,X
 2025 0672 90E0      		ldi r25,0
 2026 0674 00C0      		rjmp .L203
 2027               	.L202:
 2028 0676 CF01      		movw r24,r30
 2029 0678 0E94 0000 		call luaZ_fill
 2030               	.L203:
 2031 067c 9983      		std Y+1,r25
 2032 067e 8883      		st Y,r24
 2033 0680 00C0      		rjmp .L115
 2034               	.L201:
 2035 0682 C801      		movw r24,r16
 2036 0684 C097      		sbiw r24,48
 2037 0686 0A97      		sbiw r24,10
 2038 0688 00F0      		brlo .L204
 2039 068a C801      		movw r24,r16
 2040 068c 0E94 0000 		call isalpha
 2041 0690 892B      		or r24,r25
 2042 0692 01F4      		brne .L245
 2043 0694 0F35      		cpi r16,95
 2044 0696 1105      		cpc r17,__zero_reg__
 2045 0698 01F4      		brne .L206
 2046               	.L245:
 2047 069a 6881      		ld r22,Y
 2048 069c 7981      		ldd r23,Y+1
 2049 069e CE01      		movw r24,r28
 2050 06a0 0E94 0000 		call save
 2051 06a4 EE89      		ldd r30,Y+22
 2052 06a6 FF89      		ldd r31,Y+23
 2053 06a8 8081      		ld r24,Z
 2054 06aa 9181      		ldd r25,Z+1
 2055 06ac 9C01      		movw r18,r24
 2056 06ae 2150      		subi r18,1
 2057 06b0 3109      		sbc r19,__zero_reg__
 2058 06b2 3183      		std Z+1,r19
 2059 06b4 2083      		st Z,r18
 2060 06b6 892B      		or r24,r25
 2061 06b8 01F0      		breq .L207
 2062 06ba A281      		ldd r26,Z+2
 2063 06bc B381      		ldd r27,Z+3
 2064 06be CD01      		movw r24,r26
 2065 06c0 0196      		adiw r24,1
 2066 06c2 9383      		std Z+3,r25
 2067 06c4 8283      		std Z+2,r24
 2068 06c6 0C91      		ld r16,X
 2069 06c8 10E0      		ldi r17,0
 2070 06ca 00C0      		rjmp .L208
GAS LISTING /tmp/cchWtc0N.s 			page 38


 2071               	.L207:
 2072 06cc CF01      		movw r24,r30
 2073 06ce 0E94 0000 		call luaZ_fill
 2074 06d2 8C01      		movw r16,r24
 2075               	.L208:
 2076 06d4 1983      		std Y+1,r17
 2077 06d6 0883      		st Y,r16
 2078 06d8 C801      		movw r24,r16
 2079 06da 0E94 0000 		call isalnum
 2080 06de 892B      		or r24,r25
 2081 06e0 01F4      		brne .L245
 2082 06e2 0F35      		cpi r16,95
 2083 06e4 1105      		cpc r17,__zero_reg__
 2084 06e6 01F0      		breq .L245
 2085 06e8 E88D      		ldd r30,Y+24
 2086 06ea F98D      		ldd r31,Y+25
 2087 06ec 4281      		ldd r20,Z+2
 2088 06ee 5381      		ldd r21,Z+3
 2089 06f0 6081      		ld r22,Z
 2090 06f2 7181      		ldd r23,Z+1
 2091 06f4 CE01      		movw r24,r28
 2092 06f6 0E94 0000 		call luaX_newstring
 2093 06fa FC01      		movw r30,r24
 2094 06fc 0481      		ldd r16,Z+4
 2095 06fe 0023      		tst r16
 2096 0700 01F0      		breq .L209
 2097 0702 10E0      		ldi r17,0
 2098 0704 1395      		inc r17
 2099 0706 00C0      		rjmp .L121
 2100               	.L209:
 2101 0708 F601      		movw r30,r12
 2102 070a 9183      		std Z+1,r25
 2103 070c 8083      		st Z,r24
 2104 070e 0DE1      		ldi r16,lo8(29)
 2105 0710 11E0      		ldi r17,lo8(1)
 2106 0712 00C0      		rjmp .L121
 2107               	.L206:
 2108 0714 EE89      		ldd r30,Y+22
 2109 0716 FF89      		ldd r31,Y+23
 2110 0718 8081      		ld r24,Z
 2111 071a 9181      		ldd r25,Z+1
 2112 071c 9C01      		movw r18,r24
 2113 071e 2150      		subi r18,1
 2114 0720 3109      		sbc r19,__zero_reg__
 2115 0722 3183      		std Z+1,r19
 2116 0724 2083      		st Z,r18
 2117 0726 892B      		or r24,r25
 2118 0728 01F0      		breq .L210
 2119 072a A281      		ldd r26,Z+2
 2120 072c B381      		ldd r27,Z+3
 2121 072e CD01      		movw r24,r26
 2122 0730 0196      		adiw r24,1
 2123 0732 9383      		std Z+3,r25
 2124 0734 8283      		std Z+2,r24
 2125 0736 8C91      		ld r24,X
 2126 0738 90E0      		ldi r25,0
 2127 073a 00C0      		rjmp .L211
GAS LISTING /tmp/cchWtc0N.s 			page 39


 2128               	.L210:
 2129 073c CF01      		movw r24,r30
 2130 073e 0E94 0000 		call luaZ_fill
 2131               	.L211:
 2132 0742 9983      		std Y+1,r25
 2133 0744 8883      		st Y,r24
 2134 0746 00C0      		rjmp .L121
 2135               	.L212:
 2136 0748 0FE1      		ldi r16,lo8(31)
 2137 074a 11E0      		ldi r17,lo8(1)
 2138 074c 00C0      		rjmp .L121
 2139               	.L213:
 2140 074e 0DE3      		ldi r16,lo8(61)
 2141 0750 10E0      		ldi r17,0
 2142 0752 00C0      		rjmp .L121
 2143               	.L215:
 2144 0754 07E1      		ldi r16,lo8(23)
 2145 0756 11E0      		ldi r17,lo8(1)
 2146               	.L121:
 2147 0758 C801      		movw r24,r16
 2148               	/* epilogue start */
 2149 075a DF91      		pop r29
 2150 075c CF91      		pop r28
 2151 075e 1F91      		pop r17
 2152 0760 0F91      		pop r16
 2153 0762 FF90      		pop r15
 2154 0764 EF90      		pop r14
 2155 0766 DF90      		pop r13
 2156 0768 CF90      		pop r12
 2157 076a BF90      		pop r11
 2158 076c 9F90      		pop r9
 2159 076e 8F90      		pop r8
 2160 0770 0895      		ret
 2161               		.size	llex, .-llex
 2162               		.section	.text.luaX_setinput,"ax",@progbits
 2163               	.global	luaX_setinput
 2164               		.hidden	luaX_setinput
 2165               		.type	luaX_setinput, @function
 2166               	luaX_setinput:
 2167 0000 0F93      		push r16
 2168 0002 1F93      		push r17
 2169 0004 CF93      		push r28
 2170 0006 DF93      		push r29
 2171               	/* prologue: function */
 2172               	/* frame size = 0 */
 2173               	/* stack size = 4 */
 2174               	.L__stack_usage = 4
 2175 0008 EB01      		movw r28,r22
 2176 000a 6EE2      		ldi r22,lo8(46)
 2177 000c 6C8F      		std Y+28,r22
 2178 000e 9D8B      		std Y+21,r25
 2179 0010 8C8B      		std Y+20,r24
 2180 0012 6FE1      		ldi r22,lo8(31)
 2181 0014 71E0      		ldi r23,lo8(1)
 2182 0016 7D87      		std Y+13,r23
 2183 0018 6C87      		std Y+12,r22
 2184 001a 5F8B      		std Y+23,r21
GAS LISTING /tmp/cchWtc0N.s 			page 40


 2185 001c 4E8B      		std Y+22,r20
 2186 001e 1B8A      		std Y+19,__zero_reg__
 2187 0020 1A8A      		std Y+18,__zero_reg__
 2188 0022 41E0      		ldi r20,lo8(1)
 2189 0024 50E0      		ldi r21,0
 2190 0026 5B83      		std Y+3,r21
 2191 0028 4A83      		std Y+2,r20
 2192 002a 5D83      		std Y+5,r21
 2193 002c 4C83      		std Y+4,r20
 2194 002e 3B8F      		std Y+27,r19
 2195 0030 2A8F      		std Y+26,r18
 2196 0032 088D      		ldd r16,Y+24
 2197 0034 198D      		ldd r17,Y+25
 2198 0036 F801      		movw r30,r16
 2199 0038 4481      		ldd r20,Z+4
 2200 003a 5581      		ldd r21,Z+5
 2201 003c 6081      		ld r22,Z
 2202 003e 7181      		ldd r23,Z+1
 2203 0040 20E2      		ldi r18,lo8(32)
 2204 0042 30E0      		ldi r19,0
 2205 0044 0E94 0000 		call luaM_realloc_
 2206 0048 F801      		movw r30,r16
 2207 004a 9183      		std Z+1,r25
 2208 004c 8083      		st Z,r24
 2209 004e E88D      		ldd r30,Y+24
 2210 0050 F98D      		ldd r31,Y+25
 2211 0052 80E2      		ldi r24,lo8(32)
 2212 0054 90E0      		ldi r25,0
 2213 0056 9583      		std Z+5,r25
 2214 0058 8483      		std Z+4,r24
 2215 005a EE89      		ldd r30,Y+22
 2216 005c FF89      		ldd r31,Y+23
 2217 005e 8081      		ld r24,Z
 2218 0060 9181      		ldd r25,Z+1
 2219 0062 9C01      		movw r18,r24
 2220 0064 2150      		subi r18,1
 2221 0066 3109      		sbc r19,__zero_reg__
 2222 0068 3183      		std Z+1,r19
 2223 006a 2083      		st Z,r18
 2224 006c 892B      		or r24,r25
 2225 006e 01F0      		breq .L270
 2226 0070 A281      		ldd r26,Z+2
 2227 0072 B381      		ldd r27,Z+3
 2228 0074 CD01      		movw r24,r26
 2229 0076 0196      		adiw r24,1
 2230 0078 9383      		std Z+3,r25
 2231 007a 8283      		std Z+2,r24
 2232 007c 8C91      		ld r24,X
 2233 007e 90E0      		ldi r25,0
 2234 0080 00C0      		rjmp .L271
 2235               	.L270:
 2236 0082 CF01      		movw r24,r30
 2237 0084 0E94 0000 		call luaZ_fill
 2238               	.L271:
 2239 0088 9983      		std Y+1,r25
 2240 008a 8883      		st Y,r24
 2241               	/* epilogue start */
GAS LISTING /tmp/cchWtc0N.s 			page 41


 2242 008c DF91      		pop r29
 2243 008e CF91      		pop r28
 2244 0090 1F91      		pop r17
 2245 0092 0F91      		pop r16
 2246 0094 0895      		ret
 2247               		.size	luaX_setinput, .-luaX_setinput
 2248               		.section	.text.luaX_next,"ax",@progbits
 2249               	.global	luaX_next
 2250               		.hidden	luaX_next
 2251               		.type	luaX_next, @function
 2252               	luaX_next:
 2253 0000 CF93      		push r28
 2254 0002 DF93      		push r29
 2255               	/* prologue: function */
 2256               	/* frame size = 0 */
 2257               	/* stack size = 2 */
 2258               	.L__stack_usage = 2
 2259 0004 EC01      		movw r28,r24
 2260 0006 8A81      		ldd r24,Y+2
 2261 0008 9B81      		ldd r25,Y+3
 2262 000a 9D83      		std Y+5,r25
 2263 000c 8C83      		std Y+4,r24
 2264 000e 8C85      		ldd r24,Y+12
 2265 0010 9D85      		ldd r25,Y+13
 2266 0012 8F31      		cpi r24,31
 2267 0014 9140      		sbci r25,1
 2268 0016 01F0      		breq .L273
 2269 0018 86E0      		ldi r24,lo8(6)
 2270 001a FE01      		movw r30,r28
 2271 001c 3C96      		adiw r30,12
 2272 001e DE01      		movw r26,r28
 2273 0020 1696      		adiw r26,6
 2274               		0:
 2275 0022 0190      		ld r0,Z+
 2276 0024 0D92      		st X+,r0
 2277 0026 8A95      		dec r24
 2278 0028 01F4      		brne 0b
 2279 002a 8FE1      		ldi r24,lo8(31)
 2280 002c 91E0      		ldi r25,lo8(1)
 2281 002e 9D87      		std Y+13,r25
 2282 0030 8C87      		std Y+12,r24
 2283 0032 00C0      		rjmp .L272
 2284               	.L273:
 2285 0034 BE01      		movw r22,r28
 2286 0036 685F      		subi r22,-8
 2287 0038 7F4F      		sbci r23,-1
 2288 003a CE01      		movw r24,r28
 2289 003c 0E94 0000 		call llex
 2290 0040 9F83      		std Y+7,r25
 2291 0042 8E83      		std Y+6,r24
 2292               	.L272:
 2293               	/* epilogue start */
 2294 0044 DF91      		pop r29
 2295 0046 CF91      		pop r28
 2296 0048 0895      		ret
 2297               		.size	luaX_next, .-luaX_next
 2298               		.section	.text.luaX_lookahead,"ax",@progbits
GAS LISTING /tmp/cchWtc0N.s 			page 42


 2299               	.global	luaX_lookahead
 2300               		.hidden	luaX_lookahead
 2301               		.type	luaX_lookahead, @function
 2302               	luaX_lookahead:
 2303 0000 CF93      		push r28
 2304 0002 DF93      		push r29
 2305               	/* prologue: function */
 2306               	/* frame size = 0 */
 2307               	/* stack size = 2 */
 2308               	.L__stack_usage = 2
 2309 0004 EC01      		movw r28,r24
 2310 0006 BC01      		movw r22,r24
 2311 0008 625F      		subi r22,-14
 2312 000a 7F4F      		sbci r23,-1
 2313 000c 0E94 0000 		call llex
 2314 0010 9D87      		std Y+13,r25
 2315 0012 8C87      		std Y+12,r24
 2316               	/* epilogue start */
 2317 0014 DF91      		pop r29
 2318 0016 CF91      		pop r28
 2319 0018 0895      		ret
 2320               		.size	luaX_lookahead, .-luaX_lookahead
 2321               		.hidden	luaX_tokens
 2322               	.global	luaX_tokens
 2323               		.section	.rodata.str1.1
 2324               	.LC15:
 2325 00f7 616E 6400 		.string	"and"
 2326               	.LC16:
 2327 00fb 6272 6561 		.string	"break"
 2327      6B00 
 2328               	.LC17:
 2329 0101 646F 00   		.string	"do"
 2330               	.LC18:
 2331 0104 656C 7365 		.string	"else"
 2331      00
 2332               	.LC19:
 2333 0109 656C 7365 		.string	"elseif"
 2333      6966 00
 2334               	.LC20:
 2335 0110 656E 6400 		.string	"end"
 2336               	.LC21:
 2337 0114 6661 6C73 		.string	"false"
 2337      6500 
 2338               	.LC22:
 2339 011a 666F 7200 		.string	"for"
 2340               	.LC23:
 2341 011e 6675 6E63 		.string	"function"
 2341      7469 6F6E 
 2341      00
 2342               	.LC24:
 2343 0127 6966 00   		.string	"if"
 2344               	.LC25:
 2345 012a 696E 00   		.string	"in"
 2346               	.LC26:
 2347 012d 6C6F 6361 		.string	"local"
 2347      6C00 
 2348               	.LC27:
GAS LISTING /tmp/cchWtc0N.s 			page 43


 2349 0133 6E69 6C00 		.string	"nil"
 2350               	.LC28:
 2351 0137 6E6F 7400 		.string	"not"
 2352               	.LC29:
 2353 013b 6F72 00   		.string	"or"
 2354               	.LC30:
 2355 013e 7265 7065 		.string	"repeat"
 2355      6174 00
 2356               	.LC31:
 2357 0145 7265 7475 		.string	"return"
 2357      726E 00
 2358               	.LC32:
 2359 014c 7468 656E 		.string	"then"
 2359      00
 2360               	.LC33:
 2361 0151 7472 7565 		.string	"true"
 2361      00
 2362               	.LC34:
 2363 0156 756E 7469 		.string	"until"
 2363      6C00 
 2364               	.LC35:
 2365 015c 7768 696C 		.string	"while"
 2365      6500 
 2366               	.LC36:
 2367 0162 2E2E 00   		.string	".."
 2368               	.LC37:
 2369 0165 2E2E 2E00 		.string	"..."
 2370               	.LC38:
 2371 0169 3D3D 00   		.string	"=="
 2372               	.LC39:
 2373 016c 3E3D 00   		.string	">="
 2374               	.LC40:
 2375 016f 3C3D 00   		.string	"<="
 2376               	.LC41:
 2377 0172 7E3D 00   		.string	"~="
 2378               	.LC42:
 2379 0175 3C6E 756D 		.string	"<number>"
 2379      6265 723E 
 2379      00
 2380               	.LC43:
 2381 017e 3C6E 616D 		.string	"<name>"
 2381      653E 00
 2382               	.LC44:
 2383 0185 3C73 7472 		.string	"<string>"
 2383      696E 673E 
 2383      00
 2384               	.LC45:
 2385 018e 3C65 6F66 		.string	"<eof>"
 2385      3E00 
 2386               		.section	.rodata
 2387               		.type	luaX_tokens, @object
 2388               		.size	luaX_tokens, 64
 2389               	luaX_tokens:
 2390 0000 0000      		.word	.LC15
 2391 0002 0000      		.word	.LC16
 2392 0004 0000      		.word	.LC17
 2393 0006 0000      		.word	.LC18
GAS LISTING /tmp/cchWtc0N.s 			page 44


 2394 0008 0000      		.word	.LC19
 2395 000a 0000      		.word	.LC20
 2396 000c 0000      		.word	.LC21
 2397 000e 0000      		.word	.LC22
 2398 0010 0000      		.word	.LC23
 2399 0012 0000      		.word	.LC24
 2400 0014 0000      		.word	.LC25
 2401 0016 0000      		.word	.LC26
 2402 0018 0000      		.word	.LC27
 2403 001a 0000      		.word	.LC28
 2404 001c 0000      		.word	.LC29
 2405 001e 0000      		.word	.LC30
 2406 0020 0000      		.word	.LC31
 2407 0022 0000      		.word	.LC32
 2408 0024 0000      		.word	.LC33
 2409 0026 0000      		.word	.LC34
 2410 0028 0000      		.word	.LC35
 2411 002a 0000      		.word	.LC36
 2412 002c 0000      		.word	.LC37
 2413 002e 0000      		.word	.LC38
 2414 0030 0000      		.word	.LC39
 2415 0032 0000      		.word	.LC40
 2416 0034 0000      		.word	.LC41
 2417 0036 0000      		.word	.LC42
 2418 0038 0000      		.word	.LC43
 2419 003a 0000      		.word	.LC44
 2420 003c 0000      		.word	.LC45
 2421 003e 0000      		.word	0
 2422               		.hidden	luaH_setstr
 2423               		.hidden	luaO_str2d
 2424               		.hidden	luaZ_fill
 2425               		.hidden	luaM_toobig
 2426               		.hidden	luaM_realloc_
 2427               		.hidden	luaD_throw
 2428               		.hidden	luaO_chunkid
 2429               		.hidden	luaO_pushfstring
 2430               		.hidden	luaS_newlstr
 2431               		.ident	"GCC: (GNU) 5.3.0"
 2432               	.global __do_copy_data
GAS LISTING /tmp/cchWtc0N.s 			page 45


DEFINED SYMBOLS
                            *ABS*:0000000000000000 llex.c
     /tmp/cchWtc0N.s:2      *ABS*:000000000000003e __SP_H__
     /tmp/cchWtc0N.s:3      *ABS*:000000000000003d __SP_L__
     /tmp/cchWtc0N.s:4      *ABS*:000000000000003f __SREG__
     /tmp/cchWtc0N.s:5      *ABS*:000000000000003b __RAMPZ__
     /tmp/cchWtc0N.s:6      *ABS*:0000000000000000 __tmp_reg__
     /tmp/cchWtc0N.s:7      *ABS*:0000000000000001 __zero_reg__
     /tmp/cchWtc0N.s:12     .text.luaX_init:0000000000000000 luaX_init
     /tmp/cchWtc0N.s:2389   .rodata:0000000000000000 luaX_tokens
     /tmp/cchWtc0N.s:67     .text.luaX_token2str:0000000000000000 luaX_token2str
     /tmp/cchWtc0N.s:136    .text.luaX_lexerror:0000000000000000 luaX_lexerror
     /tmp/cchWtc0N.s:288    .text.save:0000000000000000 save
     /tmp/cchWtc0N.s:375    .text.skip_sep:0000000000000000 skip_sep
     /tmp/cchWtc0N.s:480    .text.check_next:0000000000000000 check_next
     /tmp/cchWtc0N.s:547    .text.read_numeral:0000000000000000 read_numeral
     /tmp/cchWtc0N.s:695    .text.luaX_syntaxerror:0000000000000000 luaX_syntaxerror
     /tmp/cchWtc0N.s:710    .text.inclinenumber:0000000000000000 inclinenumber
     /tmp/cchWtc0N.s:814    .text.luaX_newstring:0000000000000000 luaX_newstring
     /tmp/cchWtc0N.s:875    .text.read_long_string:0000000000000000 read_long_string
     /tmp/cchWtc0N.s:1155   .text.llex:0000000000000000 llex
     /tmp/cchWtc0N.s:2166   .text.luaX_setinput:0000000000000000 luaX_setinput
     /tmp/cchWtc0N.s:2252   .text.luaX_next:0000000000000000 luaX_next
     /tmp/cchWtc0N.s:2302   .text.luaX_lookahead:0000000000000000 luaX_lookahead

UNDEFINED SYMBOLS
luaS_newlstr
iscntrl
luaO_pushfstring
luaO_chunkid
luaD_throw
luaM_realloc_
luaM_toobig
luaZ_fill
strchr
isalnum
luaO_str2d
luaH_setstr
isspace
isalpha
__do_copy_data
