GAS LISTING /tmp/cc7gxAeg.s 			page 1


   1               		.file	"lobject.c"
   2               	__SP_H__ = 0x3e
   3               	__SP_L__ = 0x3d
   4               	__SREG__ = 0x3f
   5               	__RAMPZ__ = 0x3b
   6               	__tmp_reg__ = 0
   7               	__zero_reg__ = 1
   8               		.section	.text.pushstr,"ax",@progbits
   9               		.type	pushstr, @function
  10               	pushstr:
  11 0000 0F93      		push r16
  12 0002 1F93      		push r17
  13 0004 CF93      		push r28
  14 0006 DF93      		push r29
  15               	/* prologue: function */
  16               	/* frame size = 0 */
  17               	/* stack size = 4 */
  18               	.L__stack_usage = 4
  19 0008 EC01      		movw r28,r24
  20 000a 0D81      		ldd r16,Y+5
  21 000c 1E81      		ldd r17,Y+6
  22 000e FB01      		movw r30,r22
  23               		0:
  24 0010 0190      		ld __tmp_reg__,Z+
  25 0012 0020      		tst __tmp_reg__
  26 0014 01F4      		brne 0b
  27 0016 3197      		sbiw r30,1
  28 0018 AF01      		movw r20,r30
  29 001a 461B      		sub r20,r22
  30 001c 570B      		sbc r21,r23
  31 001e 0E94 0000 		call luaS_newlstr
  32 0022 F801      		movw r30,r16
  33 0024 9183      		std Z+1,r25
  34 0026 8083      		st Z,r24
  35 0028 86E0      		ldi r24,lo8(6)
  36 002a 90E0      		ldi r25,0
  37 002c 9583      		std Z+5,r25
  38 002e 8483      		std Z+4,r24
  39 0030 8F85      		ldd r24,Y+15
  40 0032 9889      		ldd r25,Y+16
  41 0034 2D81      		ldd r18,Y+5
  42 0036 3E81      		ldd r19,Y+6
  43 0038 821B      		sub r24,r18
  44 003a 930B      		sbc r25,r19
  45 003c 0797      		sbiw r24,7
  46 003e 04F4      		brge .L2
  47 0040 61E0      		ldi r22,lo8(1)
  48 0042 70E0      		ldi r23,0
  49 0044 CE01      		movw r24,r28
  50 0046 0E94 0000 		call luaD_growstack
  51               	.L2:
  52 004a 8D81      		ldd r24,Y+5
  53 004c 9E81      		ldd r25,Y+6
  54 004e 0696      		adiw r24,6
  55 0050 9E83      		std Y+6,r25
  56 0052 8D83      		std Y+5,r24
  57               	/* epilogue start */
GAS LISTING /tmp/cc7gxAeg.s 			page 2


  58 0054 DF91      		pop r29
  59 0056 CF91      		pop r28
  60 0058 1F91      		pop r17
  61 005a 0F91      		pop r16
  62 005c 0895      		ret
  63               		.size	pushstr, .-pushstr
  64               		.section	.text.luaO_int2fb,"ax",@progbits
  65               	.global	luaO_int2fb
  66               		.hidden	luaO_int2fb
  67               		.type	luaO_int2fb, @function
  68               	luaO_int2fb:
  69               	/* prologue: function */
  70               	/* frame size = 0 */
  71               	/* stack size = 0 */
  72               	.L__stack_usage = 0
  73 0000 20E0      		ldi r18,0
  74 0002 30E0      		ldi r19,0
  75               	.L5:
  76 0004 8031      		cpi r24,16
  77 0006 9105      		cpc r25,__zero_reg__
  78 0008 00F0      		brlo .L9
  79 000a 0196      		adiw r24,1
  80 000c 9695      		lsr r25
  81 000e 8795      		ror r24
  82 0010 2F5F      		subi r18,-1
  83 0012 3F4F      		sbci r19,-1
  84 0014 00C0      		rjmp .L5
  85               	.L9:
  86 0016 8830      		cpi r24,8
  87 0018 9105      		cpc r25,__zero_reg__
  88 001a 00F0      		brlo .L8
  89 001c 2F5F      		subi r18,-1
  90 001e 3F4F      		sbci r19,-1
  91 0020 43E0      		ldi r20,3
  92               		1:
  93 0022 220F      		lsl r18
  94 0024 331F      		rol r19
  95 0026 4A95      		dec r20
  96 0028 01F4      		brne 1b
  97 002a 0897      		sbiw r24,8
  98 002c 822B      		or r24,r18
  99 002e 932B      		or r25,r19
 100               	.L8:
 101 0030 0895      		ret
 102               		.size	luaO_int2fb, .-luaO_int2fb
 103               		.section	.text.luaO_fb2int,"ax",@progbits
 104               	.global	luaO_fb2int
 105               		.hidden	luaO_fb2int
 106               		.type	luaO_fb2int, @function
 107               	luaO_fb2int:
 108               	/* prologue: function */
 109               	/* frame size = 0 */
 110               	/* stack size = 0 */
 111               	.L__stack_usage = 0
 112 0000 9C01      		movw r18,r24
 113 0002 43E0      		ldi r20,3
 114               		1:
GAS LISTING /tmp/cc7gxAeg.s 			page 3


 115 0004 3595      		asr r19
 116 0006 2795      		ror r18
 117 0008 4A95      		dec r20
 118 000a 01F4      		brne 1b
 119 000c 2F71      		andi r18,31
 120 000e 3327      		clr r19
 121 0010 2115      		cp r18,__zero_reg__
 122 0012 3105      		cpc r19,__zero_reg__
 123 0014 01F0      		breq .L11
 124 0016 8770      		andi r24,7
 125 0018 9927      		clr r25
 126 001a 0896      		adiw r24,8
 127 001c 2150      		subi r18,1
 128 001e 3109      		sbc r19,__zero_reg__
 129 0020 00C0      		rjmp 2f
 130               		1:
 131 0022 880F      		lsl r24
 132 0024 991F      		rol r25
 133               		2:
 134 0026 2A95      		dec r18
 135 0028 02F4      		brpl 1b
 136               	.L11:
 137 002a 0895      		ret
 138               		.size	luaO_fb2int, .-luaO_fb2int
 139               		.section	.text.luaO_log2,"ax",@progbits
 140               	.global	luaO_log2
 141               		.hidden	luaO_log2
 142               		.type	luaO_log2, @function
 143               	luaO_log2:
 144               	/* prologue: function */
 145               	/* frame size = 0 */
 146               	/* stack size = 0 */
 147               	.L__stack_usage = 0
 148 0000 2FEF      		ldi r18,lo8(-1)
 149 0002 3FEF      		ldi r19,lo8(-1)
 150               	.L14:
 151 0004 8F3F      		cpi r24,-1
 152 0006 9105      		cpc r25,__zero_reg__
 153 0008 01F0      		breq .L16
 154 000a 00F0      		brlo .L16
 155 000c 285F      		subi r18,-8
 156 000e 3F4F      		sbci r19,-1
 157 0010 892F      		mov r24,r25
 158 0012 9927      		clr r25
 159 0014 00C0      		rjmp .L14
 160               	.L16:
 161 0016 FC01      		movw r30,r24
 162 0018 E050      		subi r30,lo8(-(log_2.3280))
 163 001a F040      		sbci r31,hi8(-(log_2.3280))
 164 001c 8081      		ld r24,Z
 165 001e A901      		movw r20,r18
 166 0020 480F      		add r20,r24
 167 0022 511D      		adc r21,__zero_reg__
 168 0024 CA01      		movw r24,r20
 169 0026 0895      		ret
 170               		.size	luaO_log2, .-luaO_log2
 171               		.section	.text.luaO_rawequalObj,"ax",@progbits
GAS LISTING /tmp/cc7gxAeg.s 			page 4


 172               	.global	luaO_rawequalObj
 173               		.hidden	luaO_rawequalObj
 174               		.type	luaO_rawequalObj, @function
 175               	luaO_rawequalObj:
 176 0000 CF92      		push r12
 177 0002 DF92      		push r13
 178 0004 EF92      		push r14
 179 0006 FF92      		push r15
 180               	/* prologue: function */
 181               	/* frame size = 0 */
 182               	/* stack size = 4 */
 183               	.L__stack_usage = 4
 184 0008 DC01      		movw r26,r24
 185 000a FB01      		movw r30,r22
 186 000c 1496      		adiw r26,4
 187 000e 2D91      		ld r18,X+
 188 0010 3C91      		ld r19,X
 189 0012 1597      		sbiw r26,4+1
 190 0014 8481      		ldd r24,Z+4
 191 0016 9581      		ldd r25,Z+5
 192 0018 2817      		cp r18,r24
 193 001a 3907      		cpc r19,r25
 194 001c 01F4      		brne .L28
 195 001e 2530      		cpi r18,5
 196 0020 3105      		cpc r19,__zero_reg__
 197 0022 04F4      		brge .L20
 198 0024 2230      		cpi r18,2
 199 0026 3105      		cpc r19,__zero_reg__
 200 0028 04F4      		brge .L19
 201 002a 232B      		or r18,r19
 202 002c 01F4      		brne .L19
 203 002e 00C0      		rjmp .L29
 204               	.L20:
 205 0030 2530      		cpi r18,5
 206 0032 3105      		cpc r19,__zero_reg__
 207 0034 01F4      		brne .L19
 208 0036 21E0      		ldi r18,lo8(1)
 209 0038 90E0      		ldi r25,0
 210 003a CD90      		ld r12,X+
 211 003c DD90      		ld r13,X+
 212 003e ED90      		ld r14,X+
 213 0040 FC90      		ld r15,X
 214 0042 4081      		ld r20,Z
 215 0044 5181      		ldd r21,Z+1
 216 0046 6281      		ldd r22,Z+2
 217 0048 7381      		ldd r23,Z+3
 218 004a C416      		cp r12,r20
 219 004c D506      		cpc r13,r21
 220 004e E606      		cpc r14,r22
 221 0050 F706      		cpc r15,r23
 222 0052 01F4      		brne .L31
 223 0054 00C0      		rjmp .L27
 224               	.L19:
 225 0056 21E0      		ldi r18,lo8(1)
 226 0058 90E0      		ldi r25,0
 227 005a 6D91      		ld r22,X+
 228 005c 7C91      		ld r23,X
GAS LISTING /tmp/cc7gxAeg.s 			page 5


 229 005e 4081      		ld r20,Z
 230 0060 5181      		ldd r21,Z+1
 231 0062 6417      		cp r22,r20
 232 0064 7507      		cpc r23,r21
 233 0066 01F0      		breq .L27
 234               	.L31:
 235 0068 20E0      		ldi r18,0
 236               	.L27:
 237 006a 822F      		mov r24,r18
 238 006c 00C0      		rjmp .L18
 239               	.L28:
 240 006e 80E0      		ldi r24,0
 241 0070 00C0      		rjmp .L30
 242               	.L29:
 243 0072 81E0      		ldi r24,lo8(1)
 244               	.L30:
 245 0074 90E0      		ldi r25,0
 246               	.L18:
 247               	/* epilogue start */
 248 0076 FF90      		pop r15
 249 0078 EF90      		pop r14
 250 007a DF90      		pop r13
 251 007c CF90      		pop r12
 252 007e 0895      		ret
 253               		.size	luaO_rawequalObj, .-luaO_rawequalObj
 254               		.section	.text.luaO_str2d,"ax",@progbits
 255               	.global	luaO_str2d
 256               		.hidden	luaO_str2d
 257               		.type	luaO_str2d, @function
 258               	luaO_str2d:
 259 0000 EF92      		push r14
 260 0002 FF92      		push r15
 261 0004 0F93      		push r16
 262 0006 1F93      		push r17
 263 0008 CF93      		push r28
 264 000a DF93      		push r29
 265 000c 1F92      		push __zero_reg__
 266 000e 1F92      		push __zero_reg__
 267 0010 CDB7      		in r28,__SP_L__
 268 0012 DEB7      		in r29,__SP_H__
 269               	/* prologue: function */
 270               	/* frame size = 2 */
 271               	/* stack size = 8 */
 272               	.L__stack_usage = 8
 273 0014 8C01      		movw r16,r24
 274 0016 7B01      		movw r14,r22
 275 0018 4AE0      		ldi r20,lo8(10)
 276 001a 50E0      		ldi r21,0
 277 001c BE01      		movw r22,r28
 278 001e 6F5F      		subi r22,-1
 279 0020 7F4F      		sbci r23,-1
 280 0022 0E94 0000 		call strtol
 281 0026 F701      		movw r30,r14
 282 0028 6083      		st Z,r22
 283 002a 7183      		std Z+1,r23
 284 002c 8283      		std Z+2,r24
 285 002e 9383      		std Z+3,r25
GAS LISTING /tmp/cc7gxAeg.s 			page 6


 286 0030 E981      		ldd r30,Y+1
 287 0032 FA81      		ldd r31,Y+2
 288 0034 0E17      		cp r16,r30
 289 0036 1F07      		cpc r17,r31
 290 0038 01F0      		breq .L38
 291 003a 8081      		ld r24,Z
 292 003c 8F7D      		andi r24,lo8(-33)
 293 003e 8835      		cpi r24,lo8(88)
 294 0040 01F4      		brne .L34
 295 0042 40E1      		ldi r20,lo8(16)
 296 0044 50E0      		ldi r21,0
 297 0046 BE01      		movw r22,r28
 298 0048 6F5F      		subi r22,-1
 299 004a 7F4F      		sbci r23,-1
 300 004c C801      		movw r24,r16
 301 004e 0E94 0000 		call strtoul
 302 0052 F701      		movw r30,r14
 303 0054 6083      		st Z,r22
 304 0056 7183      		std Z+1,r23
 305 0058 8283      		std Z+2,r24
 306 005a 9383      		std Z+3,r25
 307               	.L34:
 308 005c E981      		ldd r30,Y+1
 309 005e FA81      		ldd r31,Y+2
 310 0060 8081      		ld r24,Z
 311 0062 8823      		tst r24
 312 0064 01F0      		breq .L44
 313               	.L35:
 314 0066 0981      		ldd r16,Y+1
 315 0068 1A81      		ldd r17,Y+2
 316 006a F801      		movw r30,r16
 317 006c F080      		ld r15,Z
 318 006e 8F2D      		mov r24,r15
 319 0070 90E0      		ldi r25,0
 320 0072 0E94 0000 		call isspace
 321 0076 892B      		or r24,r25
 322 0078 01F0      		breq .L45
 323 007a 0F5F      		subi r16,-1
 324 007c 1F4F      		sbci r17,-1
 325 007e 1A83      		std Y+2,r17
 326 0080 0983      		std Y+1,r16
 327 0082 00C0      		rjmp .L35
 328               	.L45:
 329 0084 81E0      		ldi r24,lo8(1)
 330 0086 90E0      		ldi r25,0
 331 0088 FF20      		tst r15
 332 008a 01F0      		breq .L33
 333 008c 80E0      		ldi r24,0
 334 008e 00C0      		rjmp .L33
 335               	.L38:
 336 0090 80E0      		ldi r24,0
 337 0092 00C0      		rjmp .L43
 338               	.L44:
 339 0094 81E0      		ldi r24,lo8(1)
 340               	.L43:
 341 0096 90E0      		ldi r25,0
 342               	.L33:
GAS LISTING /tmp/cc7gxAeg.s 			page 7


 343               	/* epilogue start */
 344 0098 0F90      		pop __tmp_reg__
 345 009a 0F90      		pop __tmp_reg__
 346 009c DF91      		pop r29
 347 009e CF91      		pop r28
 348 00a0 1F91      		pop r17
 349 00a2 0F91      		pop r16
 350 00a4 FF90      		pop r15
 351 00a6 EF90      		pop r14
 352 00a8 0895      		ret
 353               		.size	luaO_str2d, .-luaO_str2d
 354               		.section	.rodata.str1.1,"aMS",@progbits,1
 355               	.LC0:
 356 0000 286E 756C 		.string	"(null)"
 356      6C29 00
 357               	.LC1:
 358 0007 00        		.string	""
 359               	.LC2:
 360 0008 2570 00   		.string	"%p"
 361               	.LC3:
 362 000b 2500      		.string	"%"
 363               		.section	.text.luaO_pushvfstring,"ax",@progbits
 364               	.global	luaO_pushvfstring
 365               		.hidden	luaO_pushvfstring
 366               		.type	luaO_pushvfstring, @function
 367               	luaO_pushvfstring:
 368 0000 2F92      		push r2
 369 0002 3F92      		push r3
 370 0004 4F92      		push r4
 371 0006 5F92      		push r5
 372 0008 6F92      		push r6
 373 000a 7F92      		push r7
 374 000c 8F92      		push r8
 375 000e 9F92      		push r9
 376 0010 AF92      		push r10
 377 0012 BF92      		push r11
 378 0014 CF92      		push r12
 379 0016 DF92      		push r13
 380 0018 EF92      		push r14
 381 001a FF92      		push r15
 382 001c 0F93      		push r16
 383 001e 1F93      		push r17
 384 0020 CF93      		push r28
 385 0022 DF93      		push r29
 386 0024 CDB7      		in r28,__SP_L__
 387 0026 DEB7      		in r29,__SP_H__
 388 0028 6097      		sbiw r28,16
 389 002a 0FB6      		in __tmp_reg__,__SREG__
 390 002c F894      		cli
 391 002e DEBF      		out __SP_H__,r29
 392 0030 0FBE      		out __SREG__,__tmp_reg__
 393 0032 CDBF      		out __SP_L__,r28
 394               	/* prologue: function */
 395               	/* frame size = 16 */
 396               	/* stack size = 34 */
 397               	.L__stack_usage = 34
 398 0034 8C01      		movw r16,r24
GAS LISTING /tmp/cc7gxAeg.s 			page 8


 399 0036 6B01      		movw r12,r22
 400 0038 7A01      		movw r14,r20
 401 003a 60E0      		ldi r22,lo8(.LC1)
 402 003c 70E0      		ldi r23,hi8(.LC1)
 403 003e 0E94 0000 		call pushstr
 404 0042 4424      		clr r4
 405 0044 4394      		inc r4
 406 0046 512C      		mov r5,__zero_reg__
 407 0048 45E0      		ldi r20,lo8(5)
 408 004a 242E      		mov r2,r20
 409 004c 312C      		mov r3,__zero_reg__
 410 004e CE01      		movw r24,r28
 411 0050 0196      		adiw r24,1
 412 0052 4C01      		movw r8,r24
 413               	.L61:
 414 0054 65E2      		ldi r22,lo8(37)
 415 0056 70E0      		ldi r23,0
 416 0058 C601      		movw r24,r12
 417 005a 0E94 0000 		call strchr
 418 005e 5C01      		movw r10,r24
 419 0060 0097      		sbiw r24,0
 420 0062 01F4      		brne .+2
 421 0064 00C0      		rjmp .L47
 422 0066 D801      		movw r26,r16
 423 0068 1596      		adiw r26,5
 424 006a 6D90      		ld r6,X+
 425 006c 7C90      		ld r7,X
 426 006e 1697      		sbiw r26,5+1
 427 0070 AC01      		movw r20,r24
 428 0072 4C19      		sub r20,r12
 429 0074 5D09      		sbc r21,r13
 430 0076 B601      		movw r22,r12
 431 0078 C801      		movw r24,r16
 432 007a 0E94 0000 		call luaS_newlstr
 433 007e F301      		movw r30,r6
 434 0080 9183      		std Z+1,r25
 435 0082 8083      		st Z,r24
 436 0084 86E0      		ldi r24,lo8(6)
 437 0086 90E0      		ldi r25,0
 438 0088 9583      		std Z+5,r25
 439 008a 8483      		std Z+4,r24
 440 008c D801      		movw r26,r16
 441 008e 1F96      		adiw r26,15
 442 0090 8D91      		ld r24,X+
 443 0092 9C91      		ld r25,X
 444 0094 5097      		sbiw r26,15+1
 445 0096 1596      		adiw r26,5
 446 0098 2D91      		ld r18,X+
 447 009a 3C91      		ld r19,X
 448 009c 1697      		sbiw r26,5+1
 449 009e 821B      		sub r24,r18
 450 00a0 930B      		sbc r25,r19
 451 00a2 0797      		sbiw r24,7
 452 00a4 04F4      		brge .L48
 453 00a6 61E0      		ldi r22,lo8(1)
 454 00a8 70E0      		ldi r23,0
 455 00aa C801      		movw r24,r16
GAS LISTING /tmp/cc7gxAeg.s 			page 9


 456 00ac 0E94 0000 		call luaD_growstack
 457               	.L48:
 458 00b0 D801      		movw r26,r16
 459 00b2 1596      		adiw r26,5
 460 00b4 ED91      		ld r30,X+
 461 00b6 FC91      		ld r31,X
 462 00b8 1697      		sbiw r26,5+1
 463 00ba CF01      		movw r24,r30
 464 00bc 0696      		adiw r24,6
 465 00be 1696      		adiw r26,5+1
 466 00c0 9C93      		st X,r25
 467 00c2 8E93      		st -X,r24
 468 00c4 1597      		sbiw r26,5
 469 00c6 D501      		movw r26,r10
 470 00c8 1196      		adiw r26,1
 471 00ca 8C91      		ld r24,X
 472 00cc 8436      		cpi r24,lo8(100)
 473 00ce 01F0      		breq .L56
 474 00d0 04F4      		brge .L51
 475 00d2 8532      		cpi r24,lo8(37)
 476 00d4 01F4      		brne .+2
 477 00d6 00C0      		rjmp .L52
 478 00d8 8336      		cpi r24,lo8(99)
 479 00da 01F0      		breq .+2
 480 00dc 00C0      		rjmp .L49
 481 00de 6701      		movw r12,r14
 482 00e0 F2E0      		ldi r31,2
 483 00e2 CF0E      		add r12,r31
 484 00e4 D11C      		adc r13,__zero_reg__
 485 00e6 D701      		movw r26,r14
 486 00e8 8C91      		ld r24,X
 487 00ea 8983      		std Y+1,r24
 488 00ec 1A82      		std Y+2,__zero_reg__
 489 00ee B401      		movw r22,r8
 490 00f0 00C0      		rjmp .L62
 491               	.L51:
 492 00f2 8037      		cpi r24,lo8(112)
 493 00f4 01F4      		brne .+2
 494 00f6 00C0      		rjmp .L54
 495 00f8 8337      		cpi r24,lo8(115)
 496 00fa 01F0      		breq .L55
 497 00fc 8636      		cpi r24,lo8(102)
 498 00fe 01F0      		breq .+2
 499 0100 00C0      		rjmp .L49
 500 0102 00C0      		rjmp .L56
 501               	.L55:
 502 0104 6701      		movw r12,r14
 503 0106 B2E0      		ldi r27,2
 504 0108 CB0E      		add r12,r27
 505 010a D11C      		adc r13,__zero_reg__
 506 010c F701      		movw r30,r14
 507 010e 6081      		ld r22,Z
 508 0110 7181      		ldd r23,Z+1
 509 0112 6115      		cp r22,__zero_reg__
 510 0114 7105      		cpc r23,__zero_reg__
 511 0116 01F4      		brne .L62
 512 0118 60E0      		ldi r22,lo8(.LC0)
GAS LISTING /tmp/cc7gxAeg.s 			page 10


 513 011a 70E0      		ldi r23,hi8(.LC0)
 514               	.L62:
 515 011c C801      		movw r24,r16
 516 011e 0E94 0000 		call pushstr
 517               	.L64:
 518 0122 7601      		movw r14,r12
 519 0124 00C0      		rjmp .L58
 520               	.L56:
 521 0126 6701      		movw r12,r14
 522 0128 B2E0      		ldi r27,2
 523 012a CB0E      		add r12,r27
 524 012c D11C      		adc r13,__zero_reg__
 525 012e D701      		movw r26,r14
 526 0130 8D91      		ld r24,X+
 527 0132 9C91      		ld r25,X
 528 0134 092E      		mov __tmp_reg__,r25
 529 0136 000C      		lsl r0
 530 0138 AA0B      		sbc r26,r26
 531 013a BB0B      		sbc r27,r27
 532 013c 8683      		std Z+6,r24
 533 013e 9783      		std Z+7,r25
 534 0140 A087      		std Z+8,r26
 535 0142 B187      		std Z+9,r27
 536 0144 3386      		std Z+11,r3
 537 0146 2286      		std Z+10,r2
 538 0148 F801      		movw r30,r16
 539 014a 8785      		ldd r24,Z+15
 540 014c 9089      		ldd r25,Z+16
 541 014e 2581      		ldd r18,Z+5
 542 0150 3681      		ldd r19,Z+6
 543 0152 821B      		sub r24,r18
 544 0154 930B      		sbc r25,r19
 545 0156 0797      		sbiw r24,7
 546 0158 04F4      		brge .L60
 547 015a 61E0      		ldi r22,lo8(1)
 548 015c 70E0      		ldi r23,0
 549 015e C801      		movw r24,r16
 550 0160 0E94 0000 		call luaD_growstack
 551               	.L60:
 552 0164 D801      		movw r26,r16
 553 0166 1596      		adiw r26,5
 554 0168 8D91      		ld r24,X+
 555 016a 9C91      		ld r25,X
 556 016c 1697      		sbiw r26,5+1
 557 016e 0696      		adiw r24,6
 558 0170 1696      		adiw r26,5+1
 559 0172 9C93      		st X,r25
 560 0174 8E93      		st -X,r24
 561 0176 1597      		sbiw r26,5
 562 0178 00C0      		rjmp .L64
 563               	.L54:
 564 017a 6701      		movw r12,r14
 565 017c B2E0      		ldi r27,2
 566 017e CB0E      		add r12,r27
 567 0180 D11C      		adc r13,__zero_reg__
 568 0182 F701      		movw r30,r14
 569 0184 8181      		ldd r24,Z+1
GAS LISTING /tmp/cc7gxAeg.s 			page 11


 570 0186 8F93      		push r24
 571 0188 8081      		ld r24,Z
 572 018a 8F93      		push r24
 573 018c A0E0      		ldi r26,lo8(.LC2)
 574 018e B0E0      		ldi r27,hi8(.LC2)
 575 0190 BF93      		push r27
 576 0192 AF93      		push r26
 577 0194 9F92      		push r9
 578 0196 8F92      		push r8
 579 0198 0E94 0000 		call sprintf
 580 019c B401      		movw r22,r8
 581 019e C801      		movw r24,r16
 582 01a0 0E94 0000 		call pushstr
 583 01a4 0F90      		pop __tmp_reg__
 584 01a6 0F90      		pop __tmp_reg__
 585 01a8 0F90      		pop __tmp_reg__
 586 01aa 0F90      		pop __tmp_reg__
 587 01ac 0F90      		pop __tmp_reg__
 588 01ae 0F90      		pop __tmp_reg__
 589 01b0 00C0      		rjmp .L64
 590               	.L52:
 591 01b2 60E0      		ldi r22,lo8(.LC3)
 592 01b4 70E0      		ldi r23,hi8(.LC3)
 593 01b6 00C0      		rjmp .L63
 594               	.L49:
 595 01b8 F5E2      		ldi r31,lo8(37)
 596 01ba F983      		std Y+1,r31
 597 01bc 8A83      		std Y+2,r24
 598 01be 1B82      		std Y+3,__zero_reg__
 599 01c0 B401      		movw r22,r8
 600               	.L63:
 601 01c2 C801      		movw r24,r16
 602 01c4 0E94 0000 		call pushstr
 603               	.L58:
 604 01c8 82E0      		ldi r24,2
 605 01ca 480E      		add r4,r24
 606 01cc 511C      		adc r5,__zero_reg__
 607 01ce 6501      		movw r12,r10
 608 01d0 92E0      		ldi r25,2
 609 01d2 C90E      		add r12,r25
 610 01d4 D11C      		adc r13,__zero_reg__
 611 01d6 00C0      		rjmp .L61
 612               	.L47:
 613 01d8 B601      		movw r22,r12
 614 01da C801      		movw r24,r16
 615 01dc 0E94 0000 		call pushstr
 616 01e0 D801      		movw r26,r16
 617 01e2 1596      		adiw r26,5
 618 01e4 8D91      		ld r24,X+
 619 01e6 9C91      		ld r25,X
 620 01e8 1697      		sbiw r26,5+1
 621 01ea 1796      		adiw r26,7
 622 01ec 2D91      		ld r18,X+
 623 01ee 3C91      		ld r19,X
 624 01f0 1897      		sbiw r26,7+1
 625 01f2 821B      		sub r24,r18
 626 01f4 930B      		sbc r25,r19
GAS LISTING /tmp/cc7gxAeg.s 			page 12


 627 01f6 9595      		asr r25
 628 01f8 8795      		ror r24
 629 01fa 2BEA      		ldi r18,lo8(-85)
 630 01fc 3AEA      		ldi r19,lo8(-86)
 631 01fe 829F      		mul r24,r18
 632 0200 A001      		movw r20,r0
 633 0202 839F      		mul r24,r19
 634 0204 500D      		add r21,r0
 635 0206 929F      		mul r25,r18
 636 0208 500D      		add r21,r0
 637 020a 1124      		clr r1
 638 020c 4150      		subi r20,1
 639 020e 5109      		sbc r21,__zero_reg__
 640 0210 B201      		movw r22,r4
 641 0212 6F5F      		subi r22,-1
 642 0214 7F4F      		sbci r23,-1
 643 0216 C801      		movw r24,r16
 644 0218 0E94 0000 		call luaV_concat
 645 021c 86E0      		ldi r24,lo8(6)
 646 021e 849D      		mul r24,r4
 647 0220 9001      		movw r18,r0
 648 0222 859D      		mul r24,r5
 649 0224 300D      		add r19,r0
 650 0226 1124      		clr __zero_reg__
 651 0228 F801      		movw r30,r16
 652 022a 8581      		ldd r24,Z+5
 653 022c 9681      		ldd r25,Z+6
 654 022e 821B      		sub r24,r18
 655 0230 930B      		sbc r25,r19
 656 0232 9683      		std Z+6,r25
 657 0234 8583      		std Z+5,r24
 658 0236 FC01      		movw r30,r24
 659 0238 3697      		sbiw r30,6
 660 023a 8081      		ld r24,Z
 661 023c 9181      		ldd r25,Z+1
 662 023e 0996      		adiw r24,9
 663               	/* epilogue start */
 664 0240 6096      		adiw r28,16
 665 0242 0FB6      		in __tmp_reg__,__SREG__
 666 0244 F894      		cli
 667 0246 DEBF      		out __SP_H__,r29
 668 0248 0FBE      		out __SREG__,__tmp_reg__
 669 024a CDBF      		out __SP_L__,r28
 670 024c DF91      		pop r29
 671 024e CF91      		pop r28
 672 0250 1F91      		pop r17
 673 0252 0F91      		pop r16
 674 0254 FF90      		pop r15
 675 0256 EF90      		pop r14
 676 0258 DF90      		pop r13
 677 025a CF90      		pop r12
 678 025c BF90      		pop r11
 679 025e AF90      		pop r10
 680 0260 9F90      		pop r9
 681 0262 8F90      		pop r8
 682 0264 7F90      		pop r7
 683 0266 6F90      		pop r6
GAS LISTING /tmp/cc7gxAeg.s 			page 13


 684 0268 5F90      		pop r5
 685 026a 4F90      		pop r4
 686 026c 3F90      		pop r3
 687 026e 2F90      		pop r2
 688 0270 0895      		ret
 689               		.size	luaO_pushvfstring, .-luaO_pushvfstring
 690               		.section	.text.luaO_pushfstring,"ax",@progbits
 691               	.global	luaO_pushfstring
 692               		.hidden	luaO_pushfstring
 693               		.type	luaO_pushfstring, @function
 694               	luaO_pushfstring:
 695 0000 CF93      		push r28
 696 0002 DF93      		push r29
 697 0004 CDB7      		in r28,__SP_L__
 698 0006 DEB7      		in r29,__SP_H__
 699               	/* prologue: function */
 700               	/* frame size = 0 */
 701               	/* stack size = 2 */
 702               	.L__stack_usage = 2
 703 0008 AE01      		movw r20,r28
 704 000a 465F      		subi r20,-10
 705 000c 5F4F      		sbci r21,-1
 706 000e 6885      		ldd r22,Y+8
 707 0010 7985      		ldd r23,Y+9
 708 0012 8E81      		ldd r24,Y+6
 709 0014 9F81      		ldd r25,Y+7
 710 0016 0E94 0000 		call luaO_pushvfstring
 711               	/* epilogue start */
 712 001a DF91      		pop r29
 713 001c CF91      		pop r28
 714 001e 0895      		ret
 715               		.size	luaO_pushfstring, .-luaO_pushfstring
 716               		.section	.rodata.str1.1
 717               	.LC4:
 718 000d 2E2E 2E00 		.string	"..."
 719               	.LC5:
 720 0011 0A0D 00   		.string	"\n\r"
 721               	.LC6:
 722 0014 5B73 7472 		.string	"[string \""
 722      696E 6720 
 722      2200 
 723               	.LC7:
 724 001e 225D 00   		.string	"\"]"
 725               		.section	.text.luaO_chunkid,"ax",@progbits
 726               	.global	luaO_chunkid
 727               		.hidden	luaO_chunkid
 728               		.type	luaO_chunkid, @function
 729               	luaO_chunkid:
 730 0000 CF92      		push r12
 731 0002 DF92      		push r13
 732 0004 EF92      		push r14
 733 0006 FF92      		push r15
 734 0008 0F93      		push r16
 735 000a 1F93      		push r17
 736 000c CF93      		push r28
 737 000e DF93      		push r29
 738               	/* prologue: function */
GAS LISTING /tmp/cc7gxAeg.s 			page 14


 739               	/* frame size = 0 */
 740               	/* stack size = 8 */
 741               	.L__stack_usage = 8
 742 0010 7C01      		movw r14,r24
 743 0012 EB01      		movw r28,r22
 744 0014 8A01      		movw r16,r20
 745 0016 8881      		ld r24,Y
 746 0018 8D33      		cpi r24,lo8(61)
 747 001a 01F4      		brne .L69
 748 001c 6F5F      		subi r22,-1
 749 001e 7F4F      		sbci r23,-1
 750 0020 C701      		movw r24,r14
 751 0022 0E94 0000 		call strncpy
 752 0026 0E0D      		add r16,r14
 753 0028 1F1D      		adc r17,r15
 754 002a F801      		movw r30,r16
 755 002c 3197      		sbiw r30,1
 756 002e 1082      		st Z,__zero_reg__
 757               	/* epilogue start */
 758 0030 DF91      		pop r29
 759 0032 CF91      		pop r28
 760 0034 1F91      		pop r17
 761 0036 0F91      		pop r16
 762 0038 FF90      		pop r15
 763 003a EF90      		pop r14
 764 003c DF90      		pop r13
 765 003e CF90      		pop r12
 766 0040 0895      		ret
 767               	.L69:
 768 0042 8034      		cpi r24,lo8(64)
 769 0044 01F4      		brne .L71
 770 0046 2196      		adiw r28,1
 771 0048 0850      		subi r16,8
 772 004a 1109      		sbc r17,__zero_reg__
 773 004c FE01      		movw r30,r28
 774               		0:
 775 004e 0190      		ld __tmp_reg__,Z+
 776 0050 0020      		tst __tmp_reg__
 777 0052 01F4      		brne 0b
 778 0054 3197      		sbiw r30,1
 779 0056 6F01      		movw r12,r30
 780 0058 CC1A      		sub r12,r28
 781 005a DD0A      		sbc r13,r29
 782 005c 60E0      		ldi r22,lo8(.LC1)
 783 005e 70E0      		ldi r23,hi8(.LC1)
 784 0060 C701      		movw r24,r14
 785 0062 0E94 0000 		call strcpy
 786 0066 0C15      		cp r16,r12
 787 0068 1D05      		cpc r17,r13
 788 006a 00F4      		brsh .L72
 789 006c F601      		movw r30,r12
 790 006e E01B      		sub r30,r16
 791 0070 F10B      		sbc r31,r17
 792 0072 CE0F      		add r28,r30
 793 0074 DF1F      		adc r29,r31
 794 0076 60E0      		ldi r22,lo8(.LC4)
 795 0078 70E0      		ldi r23,hi8(.LC4)
GAS LISTING /tmp/cc7gxAeg.s 			page 15


 796 007a C701      		movw r24,r14
 797 007c 0E94 0000 		call strcat
 798               	.L72:
 799 0080 BE01      		movw r22,r28
 800 0082 00C0      		rjmp .L78
 801               	.L71:
 802 0084 60E0      		ldi r22,lo8(.LC5)
 803 0086 70E0      		ldi r23,hi8(.LC5)
 804 0088 CE01      		movw r24,r28
 805 008a 0E94 0000 		call strcspn
 806 008e 0151      		subi r16,17
 807 0090 1109      		sbc r17,__zero_reg__
 808 0092 6C01      		movw r12,r24
 809 0094 0817      		cp r16,r24
 810 0096 1907      		cpc r17,r25
 811 0098 00F4      		brsh .L73
 812 009a 6801      		movw r12,r16
 813               	.L73:
 814 009c 60E0      		ldi r22,lo8(.LC6)
 815 009e 70E0      		ldi r23,hi8(.LC6)
 816 00a0 C701      		movw r24,r14
 817 00a2 0E94 0000 		call strcpy
 818 00a6 FE01      		movw r30,r28
 819 00a8 EC0D      		add r30,r12
 820 00aa FD1D      		adc r31,r13
 821 00ac 8081      		ld r24,Z
 822 00ae 8823      		tst r24
 823 00b0 01F0      		breq .L74
 824 00b2 A601      		movw r20,r12
 825 00b4 BE01      		movw r22,r28
 826 00b6 C701      		movw r24,r14
 827 00b8 0E94 0000 		call strncat
 828 00bc 60E0      		ldi r22,lo8(.LC4)
 829 00be 70E0      		ldi r23,hi8(.LC4)
 830 00c0 00C0      		rjmp .L77
 831               	.L74:
 832 00c2 BE01      		movw r22,r28
 833               	.L77:
 834 00c4 C701      		movw r24,r14
 835 00c6 0E94 0000 		call strcat
 836 00ca 60E0      		ldi r22,lo8(.LC7)
 837 00cc 70E0      		ldi r23,hi8(.LC7)
 838               	.L78:
 839 00ce C701      		movw r24,r14
 840               	/* epilogue start */
 841 00d0 DF91      		pop r29
 842 00d2 CF91      		pop r28
 843 00d4 1F91      		pop r17
 844 00d6 0F91      		pop r16
 845 00d8 FF90      		pop r15
 846 00da EF90      		pop r14
 847 00dc DF90      		pop r13
 848 00de CF90      		pop r12
 849 00e0 0C94 0000 		jmp strcat
 850               		.size	luaO_chunkid, .-luaO_chunkid
 851               		.section	.rodata
 852               		.type	log_2.3280, @object
GAS LISTING /tmp/cc7gxAeg.s 			page 16


 853               		.size	log_2.3280, 256
 854               	log_2.3280:
 855 0000 00        		.byte	0
 856 0001 01        		.byte	1
 857 0002 02        		.byte	2
 858 0003 02        		.byte	2
 859 0004 03        		.byte	3
 860 0005 03        		.byte	3
 861 0006 03        		.byte	3
 862 0007 03        		.byte	3
 863 0008 04        		.byte	4
 864 0009 04        		.byte	4
 865 000a 04        		.byte	4
 866 000b 04        		.byte	4
 867 000c 04        		.byte	4
 868 000d 04        		.byte	4
 869 000e 04        		.byte	4
 870 000f 04        		.byte	4
 871 0010 05        		.byte	5
 872 0011 05        		.byte	5
 873 0012 05        		.byte	5
 874 0013 05        		.byte	5
 875 0014 05        		.byte	5
 876 0015 05        		.byte	5
 877 0016 05        		.byte	5
 878 0017 05        		.byte	5
 879 0018 05        		.byte	5
 880 0019 05        		.byte	5
 881 001a 05        		.byte	5
 882 001b 05        		.byte	5
 883 001c 05        		.byte	5
 884 001d 05        		.byte	5
 885 001e 05        		.byte	5
 886 001f 05        		.byte	5
 887 0020 06        		.byte	6
 888 0021 06        		.byte	6
 889 0022 06        		.byte	6
 890 0023 06        		.byte	6
 891 0024 06        		.byte	6
 892 0025 06        		.byte	6
 893 0026 06        		.byte	6
 894 0027 06        		.byte	6
 895 0028 06        		.byte	6
 896 0029 06        		.byte	6
 897 002a 06        		.byte	6
 898 002b 06        		.byte	6
 899 002c 06        		.byte	6
 900 002d 06        		.byte	6
 901 002e 06        		.byte	6
 902 002f 06        		.byte	6
 903 0030 06        		.byte	6
 904 0031 06        		.byte	6
 905 0032 06        		.byte	6
 906 0033 06        		.byte	6
 907 0034 06        		.byte	6
 908 0035 06        		.byte	6
 909 0036 06        		.byte	6
GAS LISTING /tmp/cc7gxAeg.s 			page 17


 910 0037 06        		.byte	6
 911 0038 06        		.byte	6
 912 0039 06        		.byte	6
 913 003a 06        		.byte	6
 914 003b 06        		.byte	6
 915 003c 06        		.byte	6
 916 003d 06        		.byte	6
 917 003e 06        		.byte	6
 918 003f 06        		.byte	6
 919 0040 07        		.byte	7
 920 0041 07        		.byte	7
 921 0042 07        		.byte	7
 922 0043 07        		.byte	7
 923 0044 07        		.byte	7
 924 0045 07        		.byte	7
 925 0046 07        		.byte	7
 926 0047 07        		.byte	7
 927 0048 07        		.byte	7
 928 0049 07        		.byte	7
 929 004a 07        		.byte	7
 930 004b 07        		.byte	7
 931 004c 07        		.byte	7
 932 004d 07        		.byte	7
 933 004e 07        		.byte	7
 934 004f 07        		.byte	7
 935 0050 07        		.byte	7
 936 0051 07        		.byte	7
 937 0052 07        		.byte	7
 938 0053 07        		.byte	7
 939 0054 07        		.byte	7
 940 0055 07        		.byte	7
 941 0056 07        		.byte	7
 942 0057 07        		.byte	7
 943 0058 07        		.byte	7
 944 0059 07        		.byte	7
 945 005a 07        		.byte	7
 946 005b 07        		.byte	7
 947 005c 07        		.byte	7
 948 005d 07        		.byte	7
 949 005e 07        		.byte	7
 950 005f 07        		.byte	7
 951 0060 07        		.byte	7
 952 0061 07        		.byte	7
 953 0062 07        		.byte	7
 954 0063 07        		.byte	7
 955 0064 07        		.byte	7
 956 0065 07        		.byte	7
 957 0066 07        		.byte	7
 958 0067 07        		.byte	7
 959 0068 07        		.byte	7
 960 0069 07        		.byte	7
 961 006a 07        		.byte	7
 962 006b 07        		.byte	7
 963 006c 07        		.byte	7
 964 006d 07        		.byte	7
 965 006e 07        		.byte	7
 966 006f 07        		.byte	7
GAS LISTING /tmp/cc7gxAeg.s 			page 18


 967 0070 07        		.byte	7
 968 0071 07        		.byte	7
 969 0072 07        		.byte	7
 970 0073 07        		.byte	7
 971 0074 07        		.byte	7
 972 0075 07        		.byte	7
 973 0076 07        		.byte	7
 974 0077 07        		.byte	7
 975 0078 07        		.byte	7
 976 0079 07        		.byte	7
 977 007a 07        		.byte	7
 978 007b 07        		.byte	7
 979 007c 07        		.byte	7
 980 007d 07        		.byte	7
 981 007e 07        		.byte	7
 982 007f 07        		.byte	7
 983 0080 08        		.byte	8
 984 0081 08        		.byte	8
 985 0082 08        		.byte	8
 986 0083 08        		.byte	8
 987 0084 08        		.byte	8
 988 0085 08        		.byte	8
 989 0086 08        		.byte	8
 990 0087 08        		.byte	8
 991 0088 08        		.byte	8
 992 0089 08        		.byte	8
 993 008a 08        		.byte	8
 994 008b 08        		.byte	8
 995 008c 08        		.byte	8
 996 008d 08        		.byte	8
 997 008e 08        		.byte	8
 998 008f 08        		.byte	8
 999 0090 08        		.byte	8
 1000 0091 08        		.byte	8
 1001 0092 08        		.byte	8
 1002 0093 08        		.byte	8
 1003 0094 08        		.byte	8
 1004 0095 08        		.byte	8
 1005 0096 08        		.byte	8
 1006 0097 08        		.byte	8
 1007 0098 08        		.byte	8
 1008 0099 08        		.byte	8
 1009 009a 08        		.byte	8
 1010 009b 08        		.byte	8
 1011 009c 08        		.byte	8
 1012 009d 08        		.byte	8
 1013 009e 08        		.byte	8
 1014 009f 08        		.byte	8
 1015 00a0 08        		.byte	8
 1016 00a1 08        		.byte	8
 1017 00a2 08        		.byte	8
 1018 00a3 08        		.byte	8
 1019 00a4 08        		.byte	8
 1020 00a5 08        		.byte	8
 1021 00a6 08        		.byte	8
 1022 00a7 08        		.byte	8
 1023 00a8 08        		.byte	8
GAS LISTING /tmp/cc7gxAeg.s 			page 19


 1024 00a9 08        		.byte	8
 1025 00aa 08        		.byte	8
 1026 00ab 08        		.byte	8
 1027 00ac 08        		.byte	8
 1028 00ad 08        		.byte	8
 1029 00ae 08        		.byte	8
 1030 00af 08        		.byte	8
 1031 00b0 08        		.byte	8
 1032 00b1 08        		.byte	8
 1033 00b2 08        		.byte	8
 1034 00b3 08        		.byte	8
 1035 00b4 08        		.byte	8
 1036 00b5 08        		.byte	8
 1037 00b6 08        		.byte	8
 1038 00b7 08        		.byte	8
 1039 00b8 08        		.byte	8
 1040 00b9 08        		.byte	8
 1041 00ba 08        		.byte	8
 1042 00bb 08        		.byte	8
 1043 00bc 08        		.byte	8
 1044 00bd 08        		.byte	8
 1045 00be 08        		.byte	8
 1046 00bf 08        		.byte	8
 1047 00c0 08        		.byte	8
 1048 00c1 08        		.byte	8
 1049 00c2 08        		.byte	8
 1050 00c3 08        		.byte	8
 1051 00c4 08        		.byte	8
 1052 00c5 08        		.byte	8
 1053 00c6 08        		.byte	8
 1054 00c7 08        		.byte	8
 1055 00c8 08        		.byte	8
 1056 00c9 08        		.byte	8
 1057 00ca 08        		.byte	8
 1058 00cb 08        		.byte	8
 1059 00cc 08        		.byte	8
 1060 00cd 08        		.byte	8
 1061 00ce 08        		.byte	8
 1062 00cf 08        		.byte	8
 1063 00d0 08        		.byte	8
 1064 00d1 08        		.byte	8
 1065 00d2 08        		.byte	8
 1066 00d3 08        		.byte	8
 1067 00d4 08        		.byte	8
 1068 00d5 08        		.byte	8
 1069 00d6 08        		.byte	8
 1070 00d7 08        		.byte	8
 1071 00d8 08        		.byte	8
 1072 00d9 08        		.byte	8
 1073 00da 08        		.byte	8
 1074 00db 08        		.byte	8
 1075 00dc 08        		.byte	8
 1076 00dd 08        		.byte	8
 1077 00de 08        		.byte	8
 1078 00df 08        		.byte	8
 1079 00e0 08        		.byte	8
 1080 00e1 08        		.byte	8
GAS LISTING /tmp/cc7gxAeg.s 			page 20


 1081 00e2 08        		.byte	8
 1082 00e3 08        		.byte	8
 1083 00e4 08        		.byte	8
 1084 00e5 08        		.byte	8
 1085 00e6 08        		.byte	8
 1086 00e7 08        		.byte	8
 1087 00e8 08        		.byte	8
 1088 00e9 08        		.byte	8
 1089 00ea 08        		.byte	8
 1090 00eb 08        		.byte	8
 1091 00ec 08        		.byte	8
 1092 00ed 08        		.byte	8
 1093 00ee 08        		.byte	8
 1094 00ef 08        		.byte	8
 1095 00f0 08        		.byte	8
 1096 00f1 08        		.byte	8
 1097 00f2 08        		.byte	8
 1098 00f3 08        		.byte	8
 1099 00f4 08        		.byte	8
 1100 00f5 08        		.byte	8
 1101 00f6 08        		.byte	8
 1102 00f7 08        		.byte	8
 1103 00f8 08        		.byte	8
 1104 00f9 08        		.byte	8
 1105 00fa 08        		.byte	8
 1106 00fb 08        		.byte	8
 1107 00fc 08        		.byte	8
 1108 00fd 08        		.byte	8
 1109 00fe 08        		.byte	8
 1110 00ff 08        		.byte	8
 1111               		.hidden	luaO_nilobject_
 1112               	.global	luaO_nilobject_
 1113               		.type	luaO_nilobject_, @object
 1114               		.size	luaO_nilobject_, 6
 1115               	luaO_nilobject_:
 1116 0100 0000 0000 		.zero	6
 1116      0000 
 1117               		.hidden	luaV_concat
 1118               		.hidden	luaD_growstack
 1119               		.hidden	luaS_newlstr
 1120               		.ident	"GCC: (GNU) 5.3.0"
 1121               	.global __do_copy_data
GAS LISTING /tmp/cc7gxAeg.s 			page 21


DEFINED SYMBOLS
                            *ABS*:0000000000000000 lobject.c
     /tmp/cc7gxAeg.s:2      *ABS*:000000000000003e __SP_H__
     /tmp/cc7gxAeg.s:3      *ABS*:000000000000003d __SP_L__
     /tmp/cc7gxAeg.s:4      *ABS*:000000000000003f __SREG__
     /tmp/cc7gxAeg.s:5      *ABS*:000000000000003b __RAMPZ__
     /tmp/cc7gxAeg.s:6      *ABS*:0000000000000000 __tmp_reg__
     /tmp/cc7gxAeg.s:7      *ABS*:0000000000000001 __zero_reg__
     /tmp/cc7gxAeg.s:10     .text.pushstr:0000000000000000 pushstr
     /tmp/cc7gxAeg.s:68     .text.luaO_int2fb:0000000000000000 luaO_int2fb
     /tmp/cc7gxAeg.s:107    .text.luaO_fb2int:0000000000000000 luaO_fb2int
     /tmp/cc7gxAeg.s:143    .text.luaO_log2:0000000000000000 luaO_log2
     /tmp/cc7gxAeg.s:854    .rodata:0000000000000000 log_2.3280
     /tmp/cc7gxAeg.s:175    .text.luaO_rawequalObj:0000000000000000 luaO_rawequalObj
     /tmp/cc7gxAeg.s:258    .text.luaO_str2d:0000000000000000 luaO_str2d
     /tmp/cc7gxAeg.s:367    .text.luaO_pushvfstring:0000000000000000 luaO_pushvfstring
     /tmp/cc7gxAeg.s:694    .text.luaO_pushfstring:0000000000000000 luaO_pushfstring
     /tmp/cc7gxAeg.s:729    .text.luaO_chunkid:0000000000000000 luaO_chunkid
     /tmp/cc7gxAeg.s:1115   .rodata:0000000000000100 luaO_nilobject_

UNDEFINED SYMBOLS
luaS_newlstr
luaD_growstack
strtol
strtoul
isspace
strchr
sprintf
luaV_concat
strncpy
strcpy
strcat
strcspn
strncat
__do_copy_data
