GAS LISTING /tmp/ccmVMAVm.s 			page 1


   1               		.file	"lrotable.c"
   2               	__SP_H__ = 0x3e
   3               	__SP_L__ = 0x3d
   4               	__SREG__ = 0x3f
   5               	__RAMPZ__ = 0x3b
   6               	__tmp_reg__ = 0
   7               	__zero_reg__ = 1
   8               		.section	.text.luaR_findkey,"ax",@progbits
   9               		.type	luaR_findkey, @function
  10               	luaR_findkey:
  11 0000 AF92      		push r10
  12 0002 BF92      		push r11
  13 0004 CF92      		push r12
  14 0006 DF92      		push r13
  15 0008 EF92      		push r14
  16 000a FF92      		push r15
  17 000c 0F93      		push r16
  18 000e 1F93      		push r17
  19 0010 CF93      		push r28
  20 0012 DF93      		push r29
  21               	/* prologue: function */
  22               	/* frame size = 0 */
  23               	/* stack size = 10 */
  24               	.L__stack_usage = 10
  25 0014 EC01      		movw r28,r24
  26 0016 5B01      		movw r10,r22
  27 0018 7A01      		movw r14,r20
  28 001a 6901      		movw r12,r18
  29 001c F901      		movw r30,r18
  30 001e 1182      		std Z+1,__zero_reg__
  31 0020 1082      		st Z,__zero_reg__
  32 0022 0097      		sbiw r24,0
  33 0024 01F0      		breq .L9
  34 0026 8C01      		movw r16,r24
  35               	.L7:
  36 0028 E114      		cp r14,__zero_reg__
  37 002a F104      		cpc r15,__zero_reg__
  38 002c 01F4      		brne .L3
  39 002e F801      		movw r30,r16
  40 0030 8081      		ld r24,Z
  41 0032 9181      		ldd r25,Z+1
  42 0034 00C0      		rjmp .L4
  43               	.L3:
  44 0036 8881      		ld r24,Y
  45 0038 9981      		ldd r25,Y+1
  46               	.L4:
  47 003a 0097      		sbiw r24,0
  48 003c 01F0      		breq .L9
  49 003e B501      		movw r22,r10
  50 0040 0E94 0000 		call strcmp
  51 0044 892B      		or r24,r25
  52 0046 01F4      		brne .L5
  53 0048 81E0      		ldi r24,lo8(1)
  54 004a 90E0      		ldi r25,0
  55 004c F601      		movw r30,r12
  56 004e 9183      		std Z+1,r25
  57 0050 8083      		st Z,r24
GAS LISTING /tmp/ccmVMAVm.s 			page 2


  58 0052 EF28      		or r14,r15
  59 0054 01F4      		brne .L6
  60 0056 F801      		movw r30,r16
  61 0058 6281      		ldd r22,Z+2
  62 005a 7381      		ldd r23,Z+3
  63 005c 80E0      		ldi r24,0
  64 005e 90E0      		ldi r25,0
  65 0060 00C0      		rjmp .L2
  66               	.L6:
  67 0062 6A81      		ldd r22,Y+2
  68 0064 7B81      		ldd r23,Y+3
  69 0066 8C81      		ldd r24,Y+4
  70 0068 9D81      		ldd r25,Y+5
  71 006a 00C0      		rjmp .L2
  72               	.L5:
  73 006c 0C5F      		subi r16,-4
  74 006e 1F4F      		sbci r17,-1
  75 0070 2696      		adiw r28,6
  76 0072 00C0      		rjmp .L7
  77               	.L9:
  78 0074 60E0      		ldi r22,0
  79 0076 70E0      		ldi r23,0
  80 0078 CB01      		movw r24,r22
  81               	.L2:
  82               	/* epilogue start */
  83 007a DF91      		pop r29
  84 007c CF91      		pop r28
  85 007e 1F91      		pop r17
  86 0080 0F91      		pop r16
  87 0082 FF90      		pop r15
  88 0084 EF90      		pop r14
  89 0086 DF90      		pop r13
  90 0088 CF90      		pop r12
  91 008a BF90      		pop r11
  92 008c AF90      		pop r10
  93 008e 0895      		ret
  94               		.size	luaR_findkey, .-luaR_findkey
  95               		.section	.text.luaR_findglobal,"ax",@progbits
  96               	.global	luaR_findglobal
  97               		.type	luaR_findglobal, @function
  98               	luaR_findglobal:
  99 0000 CF92      		push r12
 100 0002 DF92      		push r13
 101 0004 EF92      		push r14
 102 0006 FF92      		push r15
 103 0008 0F93      		push r16
 104 000a 1F93      		push r17
 105 000c CF93      		push r28
 106 000e DF93      		push r29
 107               	/* prologue: function */
 108               	/* frame size = 0 */
 109               	/* stack size = 8 */
 110               	.L__stack_usage = 8
 111 0010 7C01      		movw r14,r24
 112 0012 6B01      		movw r12,r22
 113 0014 FB01      		movw r30,r22
 114 0016 1082      		st Z,__zero_reg__
GAS LISTING /tmp/ccmVMAVm.s 			page 3


 115 0018 FC01      		movw r30,r24
 116               		0:
 117 001a 0190      		ld __tmp_reg__,Z+
 118 001c 0020      		tst __tmp_reg__
 119 001e 01F4      		brne 0b
 120 0020 3197      		sbiw r30,1
 121 0022 E81B      		sub r30,r24
 122 0024 F90B      		sbc r31,r25
 123 0026 7197      		sbiw r30,17
 124 0028 00F4      		brsh .L16
 125 002a 00E0      		ldi r16,lo8(lua_rotable)
 126 002c 10E0      		ldi r17,hi8(lua_rotable)
 127 002e C0E0      		ldi r28,0
 128 0030 D0E0      		ldi r29,0
 129               	.L13:
 130 0032 F801      		movw r30,r16
 131 0034 8081      		ld r24,Z
 132 0036 9181      		ldd r25,Z+1
 133 0038 0097      		sbiw r24,0
 134 003a 01F0      		breq .L16
 135 003c B701      		movw r22,r14
 136 003e 0E94 0000 		call strcmp
 137 0042 0A5F      		subi r16,-6
 138 0044 1F4F      		sbci r17,-1
 139 0046 BE01      		movw r22,r28
 140 0048 6F5F      		subi r22,-1
 141 004a 7F4F      		sbci r23,-1
 142 004c 892B      		or r24,r25
 143 004e 01F4      		brne .L14
 144 0050 82E0      		ldi r24,lo8(2)
 145 0052 F601      		movw r30,r12
 146 0054 8083      		st Z,r24
 147 0056 80E0      		ldi r24,0
 148 0058 90E0      		ldi r25,0
 149 005a 00C0      		rjmp .L12
 150               	.L14:
 151 005c EB01      		movw r28,r22
 152 005e 00C0      		rjmp .L13
 153               	.L16:
 154 0060 60E0      		ldi r22,0
 155 0062 70E0      		ldi r23,0
 156 0064 CB01      		movw r24,r22
 157               	.L12:
 158               	/* epilogue start */
 159 0066 DF91      		pop r29
 160 0068 CF91      		pop r28
 161 006a 1F91      		pop r17
 162 006c 0F91      		pop r16
 163 006e FF90      		pop r15
 164 0070 EF90      		pop r14
 165 0072 DF90      		pop r13
 166 0074 CF90      		pop r12
 167 0076 0895      		ret
 168               		.size	luaR_findglobal, .-luaR_findglobal
 169               		.section	.text.luaR_findfunction,"ax",@progbits
 170               	.global	luaR_findfunction
 171               		.type	luaR_findfunction, @function
GAS LISTING /tmp/ccmVMAVm.s 			page 4


 172               	luaR_findfunction:
 173 0000 EF92      		push r14
 174 0002 FF92      		push r15
 175 0004 0F93      		push r16
 176 0006 1F93      		push r17
 177 0008 CF93      		push r28
 178 000a DF93      		push r29
 179 000c 1F92      		push __zero_reg__
 180 000e 1F92      		push __zero_reg__
 181 0010 CDB7      		in r28,__SP_L__
 182 0012 DEB7      		in r29,__SP_H__
 183               	/* prologue: function */
 184               	/* frame size = 2 */
 185               	/* stack size = 8 */
 186               	.L__stack_usage = 8
 187 0014 8C01      		movw r16,r24
 188 0016 7B01      		movw r14,r22
 189 0018 40E0      		ldi r20,0
 190 001a 50E0      		ldi r21,0
 191 001c 62E0      		ldi r22,lo8(2)
 192 001e 70E0      		ldi r23,0
 193 0020 0E94 0000 		call luaL_checklstring
 194 0024 9E01      		movw r18,r28
 195 0026 2F5F      		subi r18,-1
 196 0028 3F4F      		sbci r19,-1
 197 002a 40E0      		ldi r20,0
 198 002c 50E0      		ldi r21,0
 199 002e BC01      		movw r22,r24
 200 0030 C701      		movw r24,r14
 201 0032 0E94 0000 		call luaR_findkey
 202 0036 2981      		ldd r18,Y+1
 203 0038 3A81      		ldd r19,Y+2
 204 003a C801      		movw r24,r16
 205 003c 232B      		or r18,r19
 206 003e 01F0      		breq .L18
 207 0040 0E94 0000 		call lua_pushlightfunction
 208 0044 00C0      		rjmp .L19
 209               	.L18:
 210 0046 0E94 0000 		call lua_pushnil
 211               	.L19:
 212 004a 81E0      		ldi r24,lo8(1)
 213 004c 90E0      		ldi r25,0
 214               	/* epilogue start */
 215 004e 0F90      		pop __tmp_reg__
 216 0050 0F90      		pop __tmp_reg__
 217 0052 DF91      		pop r29
 218 0054 CF91      		pop r28
 219 0056 1F91      		pop r17
 220 0058 0F91      		pop r16
 221 005a FF90      		pop r15
 222 005c EF90      		pop r14
 223 005e 0895      		ret
 224               		.size	luaR_findfunction, .-luaR_findfunction
 225               		.section	.text.luaR_findentry,"ax",@progbits
 226               	.global	luaR_findentry
 227               		.type	luaR_findentry, @function
 228               	luaR_findentry:
GAS LISTING /tmp/ccmVMAVm.s 			page 5


 229 0000 CF92      		push r12
 230 0002 DF92      		push r13
 231 0004 EF92      		push r14
 232 0006 FF92      		push r15
 233 0008 0F93      		push r16
 234 000a 1F93      		push r17
 235 000c CF93      		push r28
 236 000e DF93      		push r29
 237 0010 1F92      		push __zero_reg__
 238 0012 1F92      		push __zero_reg__
 239 0014 CDB7      		in r28,__SP_L__
 240 0016 DEB7      		in r29,__SP_H__
 241               	/* prologue: function */
 242               	/* frame size = 2 */
 243               	/* stack size = 10 */
 244               	.L__stack_usage = 10
 245 0018 6B01      		movw r12,r22
 246 001a 8A01      		movw r16,r20
 247 001c 0197      		sbiw r24,1
 248 001e FA01      		movw r30,r20
 249 0020 1082      		st Z,__zero_reg__
 250 0022 46E0      		ldi r20,lo8(6)
 251 0024 489F      		mul r20,r24
 252 0026 9001      		movw r18,r0
 253 0028 499F      		mul r20,r25
 254 002a 300D      		add r19,r0
 255 002c 1124      		clr __zero_reg__
 256 002e C901      		movw r24,r18
 257 0030 8050      		subi r24,lo8(-(lua_rotable))
 258 0032 9040      		sbci r25,hi8(-(lua_rotable))
 259 0034 7C01      		movw r14,r24
 260 0036 9E01      		movw r18,r28
 261 0038 2F5F      		subi r18,-1
 262 003a 3F4F      		sbci r19,-1
 263 003c 40E0      		ldi r20,0
 264 003e 50E0      		ldi r21,0
 265 0040 FC01      		movw r30,r24
 266 0042 8281      		ldd r24,Z+2
 267 0044 9381      		ldd r25,Z+3
 268 0046 0E94 0000 		call luaR_findkey
 269 004a 2981      		ldd r18,Y+1
 270 004c 3A81      		ldd r19,Y+2
 271 004e 232B      		or r18,r19
 272 0050 01F0      		breq .L21
 273 0052 23E0      		ldi r18,lo8(3)
 274 0054 00C0      		rjmp .L24
 275               	.L21:
 276 0056 9E01      		movw r18,r28
 277 0058 2F5F      		subi r18,-1
 278 005a 3F4F      		sbci r19,-1
 279 005c 41E0      		ldi r20,lo8(1)
 280 005e 50E0      		ldi r21,0
 281 0060 B601      		movw r22,r12
 282 0062 F701      		movw r30,r14
 283 0064 8481      		ldd r24,Z+4
 284 0066 9581      		ldd r25,Z+5
 285 0068 0E94 0000 		call luaR_findkey
GAS LISTING /tmp/ccmVMAVm.s 			page 6


 286 006c 2981      		ldd r18,Y+1
 287 006e 3A81      		ldd r19,Y+2
 288 0070 232B      		or r18,r19
 289 0072 01F0      		breq .L23
 290 0074 25E0      		ldi r18,lo8(5)
 291               	.L24:
 292 0076 F801      		movw r30,r16
 293 0078 2083      		st Z,r18
 294 007a 00C0      		rjmp .L22
 295               	.L23:
 296 007c 60E0      		ldi r22,0
 297 007e 70E0      		ldi r23,0
 298 0080 80E0      		ldi r24,0
 299 0082 90E0      		ldi r25,0
 300               	.L22:
 301               	/* epilogue start */
 302 0084 0F90      		pop __tmp_reg__
 303 0086 0F90      		pop __tmp_reg__
 304 0088 DF91      		pop r29
 305 008a CF91      		pop r28
 306 008c 1F91      		pop r17
 307 008e 0F91      		pop r16
 308 0090 FF90      		pop r15
 309 0092 EF90      		pop r14
 310 0094 DF90      		pop r13
 311 0096 CF90      		pop r12
 312 0098 0895      		ret
 313               		.size	luaR_findentry, .-luaR_findentry
 314               		.ident	"GCC: (GNU) 5.3.0"
GAS LISTING /tmp/ccmVMAVm.s 			page 7


DEFINED SYMBOLS
                            *ABS*:0000000000000000 lrotable.c
     /tmp/ccmVMAVm.s:2      *ABS*:000000000000003e __SP_H__
     /tmp/ccmVMAVm.s:3      *ABS*:000000000000003d __SP_L__
     /tmp/ccmVMAVm.s:4      *ABS*:000000000000003f __SREG__
     /tmp/ccmVMAVm.s:5      *ABS*:000000000000003b __RAMPZ__
     /tmp/ccmVMAVm.s:6      *ABS*:0000000000000000 __tmp_reg__
     /tmp/ccmVMAVm.s:7      *ABS*:0000000000000001 __zero_reg__
     /tmp/ccmVMAVm.s:10     .text.luaR_findkey:0000000000000000 luaR_findkey
     /tmp/ccmVMAVm.s:98     .text.luaR_findglobal:0000000000000000 luaR_findglobal
     /tmp/ccmVMAVm.s:172    .text.luaR_findfunction:0000000000000000 luaR_findfunction
     /tmp/ccmVMAVm.s:228    .text.luaR_findentry:0000000000000000 luaR_findentry

UNDEFINED SYMBOLS
strcmp
lua_rotable
luaL_checklstring
lua_pushlightfunction
lua_pushnil
