GAS LISTING /tmp/cckNJFLm.s 			page 1


   1               		.file	"lstrlib.c"
   2               	__SP_H__ = 0x3e
   3               	__SP_L__ = 0x3d
   4               	__SREG__ = 0x3f
   5               	__RAMPZ__ = 0x3b
   6               	__tmp_reg__ = 0
   7               	__zero_reg__ = 1
   8               		.section	.text.str_upper,"ax",@progbits
   9               		.type	str_upper, @function
  10               	str_upper:
  11 0000 AF92      		push r10
  12 0002 BF92      		push r11
  13 0004 CF92      		push r12
  14 0006 DF92      		push r13
  15 0008 EF92      		push r14
  16 000a FF92      		push r15
  17 000c 0F93      		push r16
  18 000e 1F93      		push r17
  19 0010 CF93      		push r28
  20 0012 DF93      		push r29
  21 0014 CDB7      		in r28,__SP_L__
  22 0016 DEB7      		in r29,__SP_H__
  23 0018 C850      		subi r28,8
  24 001a D440      		sbci r29,4
  25 001c 0FB6      		in __tmp_reg__,__SREG__
  26 001e F894      		cli
  27 0020 DEBF      		out __SP_H__,r29
  28 0022 0FBE      		out __SREG__,__tmp_reg__
  29 0024 CDBF      		out __SP_L__,r28
  30               	/* prologue: function */
  31               	/* frame size = 1032 */
  32               	/* stack size = 1042 */
  33               	.L__stack_usage = 1042
  34 0026 7C01      		movw r14,r24
  35 0028 8E01      		movw r16,r28
  36 002a 095F      		subi r16,-7
  37 002c 1B4F      		sbci r17,-5
  38 002e A801      		movw r20,r16
  39 0030 61E0      		ldi r22,lo8(1)
  40 0032 70E0      		ldi r23,0
  41 0034 0E94 0000 		call luaL_checklstring
  42 0038 6C01      		movw r12,r24
  43 003a BE01      		movw r22,r28
  44 003c 6F5F      		subi r22,-1
  45 003e 7F4F      		sbci r23,-1
  46 0040 C701      		movw r24,r14
  47 0042 0E94 0000 		call luaL_buffinit
  48 0046 7601      		movw r14,r12
  49               	.L2:
  50 0048 F801      		movw r30,r16
  51 004a 2081      		ld r18,Z
  52 004c 3181      		ldd r19,Z+1
  53 004e C701      		movw r24,r14
  54 0050 8C19      		sub r24,r12
  55 0052 9D09      		sbc r25,r13
  56 0054 8217      		cp r24,r18
  57 0056 9307      		cpc r25,r19
GAS LISTING /tmp/cckNJFLm.s 			page 2


  58 0058 00F4      		brsh .L6
  59 005a 8981      		ldd r24,Y+1
  60 005c 9A81      		ldd r25,Y+2
  61 005e 8017      		cp r24,r16
  62 0060 9107      		cpc r25,r17
  63 0062 00F0      		brlo .L3
  64 0064 CE01      		movw r24,r28
  65 0066 0196      		adiw r24,1
  66 0068 0E94 0000 		call luaL_prepbuffer
  67               	.L3:
  68 006c A980      		ldd r10,Y+1
  69 006e BA80      		ldd r11,Y+2
  70 0070 C501      		movw r24,r10
  71 0072 0196      		adiw r24,1
  72 0074 9A83      		std Y+2,r25
  73 0076 8983      		std Y+1,r24
  74 0078 F701      		movw r30,r14
  75 007a 8191      		ld r24,Z+
  76 007c 7F01      		movw r14,r30
  77 007e 90E0      		ldi r25,0
  78 0080 0E94 0000 		call toupper
  79 0084 F501      		movw r30,r10
  80 0086 8083      		st Z,r24
  81 0088 00C0      		rjmp .L2
  82               	.L6:
  83 008a CE01      		movw r24,r28
  84 008c 0196      		adiw r24,1
  85 008e 0E94 0000 		call luaL_pushresult
  86 0092 81E0      		ldi r24,lo8(1)
  87 0094 90E0      		ldi r25,0
  88               	/* epilogue start */
  89 0096 C85F      		subi r28,-8
  90 0098 DB4F      		sbci r29,-5
  91 009a 0FB6      		in __tmp_reg__,__SREG__
  92 009c F894      		cli
  93 009e DEBF      		out __SP_H__,r29
  94 00a0 0FBE      		out __SREG__,__tmp_reg__
  95 00a2 CDBF      		out __SP_L__,r28
  96 00a4 DF91      		pop r29
  97 00a6 CF91      		pop r28
  98 00a8 1F91      		pop r17
  99 00aa 0F91      		pop r16
 100 00ac FF90      		pop r15
 101 00ae EF90      		pop r14
 102 00b0 DF90      		pop r13
 103 00b2 CF90      		pop r12
 104 00b4 BF90      		pop r11
 105 00b6 AF90      		pop r10
 106 00b8 0895      		ret
 107               		.size	str_upper, .-str_upper
 108               		.section	.text.str_reverse,"ax",@progbits
 109               		.type	str_reverse, @function
 110               	str_reverse:
 111 0000 CF92      		push r12
 112 0002 DF92      		push r13
 113 0004 EF92      		push r14
 114 0006 FF92      		push r15
GAS LISTING /tmp/cckNJFLm.s 			page 3


 115 0008 0F93      		push r16
 116 000a 1F93      		push r17
 117 000c CF93      		push r28
 118 000e DF93      		push r29
 119 0010 CDB7      		in r28,__SP_L__
 120 0012 DEB7      		in r29,__SP_H__
 121 0014 C850      		subi r28,8
 122 0016 D440      		sbci r29,4
 123 0018 0FB6      		in __tmp_reg__,__SREG__
 124 001a F894      		cli
 125 001c DEBF      		out __SP_H__,r29
 126 001e 0FBE      		out __SREG__,__tmp_reg__
 127 0020 CDBF      		out __SP_L__,r28
 128               	/* prologue: function */
 129               	/* frame size = 1032 */
 130               	/* stack size = 1040 */
 131               	.L__stack_usage = 1040
 132 0022 6C01      		movw r12,r24
 133 0024 8E01      		movw r16,r28
 134 0026 095F      		subi r16,-7
 135 0028 1B4F      		sbci r17,-5
 136 002a A801      		movw r20,r16
 137 002c 61E0      		ldi r22,lo8(1)
 138 002e 70E0      		ldi r23,0
 139 0030 0E94 0000 		call luaL_checklstring
 140 0034 7C01      		movw r14,r24
 141 0036 BE01      		movw r22,r28
 142 0038 6F5F      		subi r22,-1
 143 003a 7F4F      		sbci r23,-1
 144 003c C601      		movw r24,r12
 145 003e 0E94 0000 		call luaL_buffinit
 146               	.L8:
 147 0042 F801      		movw r30,r16
 148 0044 8081      		ld r24,Z
 149 0046 9181      		ldd r25,Z+1
 150 0048 9C01      		movw r18,r24
 151 004a 2150      		subi r18,1
 152 004c 3109      		sbc r19,__zero_reg__
 153 004e 3183      		std Z+1,r19
 154 0050 2083      		st Z,r18
 155 0052 892B      		or r24,r25
 156 0054 01F0      		breq .L11
 157 0056 8981      		ldd r24,Y+1
 158 0058 9A81      		ldd r25,Y+2
 159 005a 8017      		cp r24,r16
 160 005c 9107      		cpc r25,r17
 161 005e 00F0      		brlo .L9
 162 0060 CE01      		movw r24,r28
 163 0062 0196      		adiw r24,1
 164 0064 0E94 0000 		call luaL_prepbuffer
 165               	.L9:
 166 0068 A981      		ldd r26,Y+1
 167 006a BA81      		ldd r27,Y+2
 168 006c CD01      		movw r24,r26
 169 006e 0196      		adiw r24,1
 170 0070 9A83      		std Y+2,r25
 171 0072 8983      		std Y+1,r24
GAS LISTING /tmp/cckNJFLm.s 			page 4


 172 0074 F801      		movw r30,r16
 173 0076 8081      		ld r24,Z
 174 0078 9181      		ldd r25,Z+1
 175 007a FC01      		movw r30,r24
 176 007c EE0D      		add r30,r14
 177 007e FF1D      		adc r31,r15
 178 0080 8081      		ld r24,Z
 179 0082 8C93      		st X,r24
 180 0084 00C0      		rjmp .L8
 181               	.L11:
 182 0086 CE01      		movw r24,r28
 183 0088 0196      		adiw r24,1
 184 008a 0E94 0000 		call luaL_pushresult
 185 008e 81E0      		ldi r24,lo8(1)
 186 0090 90E0      		ldi r25,0
 187               	/* epilogue start */
 188 0092 C85F      		subi r28,-8
 189 0094 DB4F      		sbci r29,-5
 190 0096 0FB6      		in __tmp_reg__,__SREG__
 191 0098 F894      		cli
 192 009a DEBF      		out __SP_H__,r29
 193 009c 0FBE      		out __SREG__,__tmp_reg__
 194 009e CDBF      		out __SP_L__,r28
 195 00a0 DF91      		pop r29
 196 00a2 CF91      		pop r28
 197 00a4 1F91      		pop r17
 198 00a6 0F91      		pop r16
 199 00a8 FF90      		pop r15
 200 00aa EF90      		pop r14
 201 00ac DF90      		pop r13
 202 00ae CF90      		pop r12
 203 00b0 0895      		ret
 204               		.size	str_reverse, .-str_reverse
 205               		.section	.text.str_rep,"ax",@progbits
 206               		.type	str_rep, @function
 207               	str_rep:
 208 0000 CF92      		push r12
 209 0002 DF92      		push r13
 210 0004 EF92      		push r14
 211 0006 FF92      		push r15
 212 0008 0F93      		push r16
 213 000a 1F93      		push r17
 214 000c CF93      		push r28
 215 000e DF93      		push r29
 216 0010 CDB7      		in r28,__SP_L__
 217 0012 DEB7      		in r29,__SP_H__
 218 0014 C850      		subi r28,8
 219 0016 D440      		sbci r29,4
 220 0018 0FB6      		in __tmp_reg__,__SREG__
 221 001a F894      		cli
 222 001c DEBF      		out __SP_H__,r29
 223 001e 0FBE      		out __SREG__,__tmp_reg__
 224 0020 CDBF      		out __SP_L__,r28
 225               	/* prologue: function */
 226               	/* frame size = 1032 */
 227               	/* stack size = 1040 */
 228               	.L__stack_usage = 1040
GAS LISTING /tmp/cckNJFLm.s 			page 5


 229 0022 8C01      		movw r16,r24
 230 0024 AE01      		movw r20,r28
 231 0026 495F      		subi r20,-7
 232 0028 5B4F      		sbci r21,-5
 233 002a 61E0      		ldi r22,lo8(1)
 234 002c 70E0      		ldi r23,0
 235 002e 0E94 0000 		call luaL_checklstring
 236 0032 7C01      		movw r14,r24
 237 0034 62E0      		ldi r22,lo8(2)
 238 0036 70E0      		ldi r23,0
 239 0038 C801      		movw r24,r16
 240 003a 0E94 0000 		call luaL_checkinteger
 241 003e 6C01      		movw r12,r24
 242 0040 BE01      		movw r22,r28
 243 0042 6F5F      		subi r22,-1
 244 0044 7F4F      		sbci r23,-1
 245 0046 C801      		movw r24,r16
 246 0048 0E94 0000 		call luaL_buffinit
 247 004c 8601      		movw r16,r12
 248               	.L13:
 249 004e 1016      		cp __zero_reg__,r16
 250 0050 1106      		cpc __zero_reg__,r17
 251 0052 04F4      		brge .L15
 252 0054 C95F      		subi r28,lo8(-1031)
 253 0056 DB4F      		sbci r29,hi8(-1031)
 254 0058 4881      		ld r20,Y
 255 005a 5981      		ldd r21,Y+1
 256 005c C750      		subi r28,lo8(1031)
 257 005e D440      		sbci r29,hi8(1031)
 258 0060 B701      		movw r22,r14
 259 0062 CE01      		movw r24,r28
 260 0064 0196      		adiw r24,1
 261 0066 0E94 0000 		call luaL_addlstring
 262 006a 0150      		subi r16,1
 263 006c 1109      		sbc r17,__zero_reg__
 264 006e 00C0      		rjmp .L13
 265               	.L15:
 266 0070 CE01      		movw r24,r28
 267 0072 0196      		adiw r24,1
 268 0074 0E94 0000 		call luaL_pushresult
 269 0078 81E0      		ldi r24,lo8(1)
 270 007a 90E0      		ldi r25,0
 271               	/* epilogue start */
 272 007c C85F      		subi r28,-8
 273 007e DB4F      		sbci r29,-5
 274 0080 0FB6      		in __tmp_reg__,__SREG__
 275 0082 F894      		cli
 276 0084 DEBF      		out __SP_H__,r29
 277 0086 0FBE      		out __SREG__,__tmp_reg__
 278 0088 CDBF      		out __SP_L__,r28
 279 008a DF91      		pop r29
 280 008c CF91      		pop r28
 281 008e 1F91      		pop r17
 282 0090 0F91      		pop r16
 283 0092 FF90      		pop r15
 284 0094 EF90      		pop r14
 285 0096 DF90      		pop r13
GAS LISTING /tmp/cckNJFLm.s 			page 6


 286 0098 CF90      		pop r12
 287 009a 0895      		ret
 288               		.size	str_rep, .-str_rep
 289               		.section	.text.writer,"ax",@progbits
 290               		.type	writer, @function
 291               	writer:
 292               	/* prologue: function */
 293               	/* frame size = 0 */
 294               	/* stack size = 0 */
 295               	.L__stack_usage = 0
 296 0000 C901      		movw r24,r18
 297 0002 0E94 0000 		call luaL_addlstring
 298 0006 80E0      		ldi r24,0
 299 0008 90E0      		ldi r25,0
 300 000a 0895      		ret
 301               		.size	writer, .-writer
 302               		.section	.text.str_len,"ax",@progbits
 303               		.type	str_len, @function
 304               	str_len:
 305 0000 0F93      		push r16
 306 0002 1F93      		push r17
 307 0004 CF93      		push r28
 308 0006 DF93      		push r29
 309 0008 1F92      		push __zero_reg__
 310 000a 1F92      		push __zero_reg__
 311 000c CDB7      		in r28,__SP_L__
 312 000e DEB7      		in r29,__SP_H__
 313               	/* prologue: function */
 314               	/* frame size = 2 */
 315               	/* stack size = 6 */
 316               	.L__stack_usage = 6
 317 0010 8C01      		movw r16,r24
 318 0012 AE01      		movw r20,r28
 319 0014 4F5F      		subi r20,-1
 320 0016 5F4F      		sbci r21,-1
 321 0018 61E0      		ldi r22,lo8(1)
 322 001a 70E0      		ldi r23,0
 323 001c 0E94 0000 		call luaL_checklstring
 324 0020 6981      		ldd r22,Y+1
 325 0022 7A81      		ldd r23,Y+2
 326 0024 C801      		movw r24,r16
 327 0026 0E94 0000 		call lua_pushinteger
 328 002a 81E0      		ldi r24,lo8(1)
 329 002c 90E0      		ldi r25,0
 330               	/* epilogue start */
 331 002e 0F90      		pop __tmp_reg__
 332 0030 0F90      		pop __tmp_reg__
 333 0032 DF91      		pop r29
 334 0034 CF91      		pop r28
 335 0036 1F91      		pop r17
 336 0038 0F91      		pop r16
 337 003a 0895      		ret
 338               		.size	str_len, .-str_len
 339               		.section	.rodata.str1.1,"aMS",@progbits,1
 340               	.LC0:
 341 0000 2773 7472 		.string	"'string.gfind' was renamed to 'string.gmatch'"
 341      696E 672E 
GAS LISTING /tmp/cckNJFLm.s 			page 7


 341      6766 696E 
 341      6427 2077 
 341      6173 2072 
 342               		.section	.text.gfind_nodef,"ax",@progbits
 343               		.type	gfind_nodef, @function
 344               	gfind_nodef:
 345               	/* prologue: function */
 346               	/* frame size = 0 */
 347               	/* stack size = 0 */
 348               	.L__stack_usage = 0
 349 0000 20E0      		ldi r18,lo8(.LC0)
 350 0002 30E0      		ldi r19,hi8(.LC0)
 351 0004 3F93      		push r19
 352 0006 2F93      		push r18
 353 0008 9F93      		push r25
 354 000a 8F93      		push r24
 355 000c 0E94 0000 		call luaL_error
 356 0010 0F90      		pop __tmp_reg__
 357 0012 0F90      		pop __tmp_reg__
 358 0014 0F90      		pop __tmp_reg__
 359 0016 0F90      		pop __tmp_reg__
 360 0018 0895      		ret
 361               		.size	gfind_nodef, .-gfind_nodef
 362               		.section	.text.str_lower,"ax",@progbits
 363               		.type	str_lower, @function
 364               	str_lower:
 365 0000 AF92      		push r10
 366 0002 BF92      		push r11
 367 0004 CF92      		push r12
 368 0006 DF92      		push r13
 369 0008 EF92      		push r14
 370 000a FF92      		push r15
 371 000c 0F93      		push r16
 372 000e 1F93      		push r17
 373 0010 CF93      		push r28
 374 0012 DF93      		push r29
 375 0014 CDB7      		in r28,__SP_L__
 376 0016 DEB7      		in r29,__SP_H__
 377 0018 C850      		subi r28,8
 378 001a D440      		sbci r29,4
 379 001c 0FB6      		in __tmp_reg__,__SREG__
 380 001e F894      		cli
 381 0020 DEBF      		out __SP_H__,r29
 382 0022 0FBE      		out __SREG__,__tmp_reg__
 383 0024 CDBF      		out __SP_L__,r28
 384               	/* prologue: function */
 385               	/* frame size = 1032 */
 386               	/* stack size = 1042 */
 387               	.L__stack_usage = 1042
 388 0026 7C01      		movw r14,r24
 389 0028 8E01      		movw r16,r28
 390 002a 095F      		subi r16,-7
 391 002c 1B4F      		sbci r17,-5
 392 002e A801      		movw r20,r16
 393 0030 61E0      		ldi r22,lo8(1)
 394 0032 70E0      		ldi r23,0
 395 0034 0E94 0000 		call luaL_checklstring
GAS LISTING /tmp/cckNJFLm.s 			page 8


 396 0038 6C01      		movw r12,r24
 397 003a BE01      		movw r22,r28
 398 003c 6F5F      		subi r22,-1
 399 003e 7F4F      		sbci r23,-1
 400 0040 C701      		movw r24,r14
 401 0042 0E94 0000 		call luaL_buffinit
 402 0046 7601      		movw r14,r12
 403               	.L20:
 404 0048 F801      		movw r30,r16
 405 004a 2081      		ld r18,Z
 406 004c 3181      		ldd r19,Z+1
 407 004e C701      		movw r24,r14
 408 0050 8C19      		sub r24,r12
 409 0052 9D09      		sbc r25,r13
 410 0054 8217      		cp r24,r18
 411 0056 9307      		cpc r25,r19
 412 0058 00F4      		brsh .L23
 413 005a 8981      		ldd r24,Y+1
 414 005c 9A81      		ldd r25,Y+2
 415 005e 8017      		cp r24,r16
 416 0060 9107      		cpc r25,r17
 417 0062 00F0      		brlo .L21
 418 0064 CE01      		movw r24,r28
 419 0066 0196      		adiw r24,1
 420 0068 0E94 0000 		call luaL_prepbuffer
 421               	.L21:
 422 006c A980      		ldd r10,Y+1
 423 006e BA80      		ldd r11,Y+2
 424 0070 C501      		movw r24,r10
 425 0072 0196      		adiw r24,1
 426 0074 9A83      		std Y+2,r25
 427 0076 8983      		std Y+1,r24
 428 0078 F701      		movw r30,r14
 429 007a 8191      		ld r24,Z+
 430 007c 7F01      		movw r14,r30
 431 007e 90E0      		ldi r25,0
 432 0080 0E94 0000 		call tolower
 433 0084 F501      		movw r30,r10
 434 0086 8083      		st Z,r24
 435 0088 00C0      		rjmp .L20
 436               	.L23:
 437 008a CE01      		movw r24,r28
 438 008c 0196      		adiw r24,1
 439 008e 0E94 0000 		call luaL_pushresult
 440 0092 81E0      		ldi r24,lo8(1)
 441 0094 90E0      		ldi r25,0
 442               	/* epilogue start */
 443 0096 C85F      		subi r28,-8
 444 0098 DB4F      		sbci r29,-5
 445 009a 0FB6      		in __tmp_reg__,__SREG__
 446 009c F894      		cli
 447 009e DEBF      		out __SP_H__,r29
 448 00a0 0FBE      		out __SREG__,__tmp_reg__
 449 00a2 CDBF      		out __SP_L__,r28
 450 00a4 DF91      		pop r29
 451 00a6 CF91      		pop r28
 452 00a8 1F91      		pop r17
GAS LISTING /tmp/cckNJFLm.s 			page 9


 453 00aa 0F91      		pop r16
 454 00ac FF90      		pop r15
 455 00ae EF90      		pop r14
 456 00b0 DF90      		pop r13
 457 00b2 CF90      		pop r12
 458 00b4 BF90      		pop r11
 459 00b6 AF90      		pop r10
 460 00b8 0895      		ret
 461               		.size	str_lower, .-str_lower
 462               		.section	.text.match_class,"ax",@progbits
 463               		.type	match_class, @function
 464               	match_class:
 465 0000 0F93      		push r16
 466 0002 1F93      		push r17
 467 0004 CF93      		push r28
 468 0006 DF93      		push r29
 469               	/* prologue: function */
 470               	/* frame size = 0 */
 471               	/* stack size = 4 */
 472               	.L__stack_usage = 4
 473 0008 EC01      		movw r28,r24
 474 000a 8B01      		movw r16,r22
 475 000c CB01      		movw r24,r22
 476 000e 0E94 0000 		call tolower
 477 0012 FC01      		movw r30,r24
 478 0014 E156      		subi r30,97
 479 0016 F109      		sbc r31,__zero_reg__
 480 0018 EA31      		cpi r30,26
 481 001a F105      		cpc r31,__zero_reg__
 482 001c 00F4      		brsh .L25
 483 001e 8827      		clr r24
 484 0020 E050      		subi r30,pm_lo8(-(.L27))
 485 0022 F040      		sbci r31,pm_hi8(-(.L27))
 486 0024 8040      		sbci r24,pm_hh8(-(.L27))
 487 0026 0C94 0000 		jmp __tablejump2__
 488               		.section	.progmem.gcc_sw_table.match_class,"a",@progbits
 489               		.p2align	1
 490               	.L27:
 491 0000 0000      		.word gs(.L26)
 492 0002 0000      		.word gs(.L25)
 493 0004 0000      		.word gs(.L28)
 494 0006 0000      		.word gs(.L29)
 495 0008 0000      		.word gs(.L25)
 496 000a 0000      		.word gs(.L25)
 497 000c 0000      		.word gs(.L25)
 498 000e 0000      		.word gs(.L25)
 499 0010 0000      		.word gs(.L25)
 500 0012 0000      		.word gs(.L25)
 501 0014 0000      		.word gs(.L25)
 502 0016 0000      		.word gs(.L30)
 503 0018 0000      		.word gs(.L25)
 504 001a 0000      		.word gs(.L25)
 505 001c 0000      		.word gs(.L25)
 506 001e 0000      		.word gs(.L31)
 507 0020 0000      		.word gs(.L25)
 508 0022 0000      		.word gs(.L25)
 509 0024 0000      		.word gs(.L32)
GAS LISTING /tmp/cckNJFLm.s 			page 10


 510 0026 0000      		.word gs(.L25)
 511 0028 0000      		.word gs(.L33)
 512 002a 0000      		.word gs(.L25)
 513 002c 0000      		.word gs(.L34)
 514 002e 0000      		.word gs(.L35)
 515 0030 0000      		.word gs(.L25)
 516 0032 0000      		.word gs(.L36)
 517               		.section	.text.match_class
 518               	.L26:
 519 002a CE01      		movw r24,r28
 520 002c 0E94 0000 		call isalpha
 521 0030 00C0      		rjmp .L50
 522               	.L28:
 523 0032 CE01      		movw r24,r28
 524 0034 0E94 0000 		call iscntrl
 525 0038 00C0      		rjmp .L50
 526               	.L29:
 527 003a E097      		sbiw r28,48
 528 003c 91E0      		ldi r25,lo8(1)
 529 003e 80E0      		ldi r24,0
 530 0040 2A97      		sbiw r28,10
 531 0042 00F0      		brlo .L39
 532 0044 00C0      		rjmp .L52
 533               	.L30:
 534 0046 CE01      		movw r24,r28
 535 0048 0E94 0000 		call islower
 536 004c 00C0      		rjmp .L50
 537               	.L31:
 538 004e CE01      		movw r24,r28
 539 0050 0E94 0000 		call ispunct
 540 0054 00C0      		rjmp .L50
 541               	.L32:
 542 0056 CE01      		movw r24,r28
 543 0058 0E94 0000 		call isspace
 544 005c 00C0      		rjmp .L50
 545               	.L33:
 546 005e CE01      		movw r24,r28
 547 0060 0E94 0000 		call isupper
 548 0064 00C0      		rjmp .L50
 549               	.L34:
 550 0066 CE01      		movw r24,r28
 551 0068 0E94 0000 		call isalnum
 552 006c 00C0      		rjmp .L50
 553               	.L35:
 554 006e CE01      		movw r24,r28
 555 0070 0E94 0000 		call isxdigit
 556               	.L50:
 557 0074 EC01      		movw r28,r24
 558 0076 00C0      		rjmp .L37
 559               	.L36:
 560 0078 91E0      		ldi r25,lo8(1)
 561 007a 80E0      		ldi r24,0
 562 007c CD2B      		or r28,r29
 563 007e 01F0      		breq .L39
 564               	.L52:
 565 0080 90E0      		ldi r25,0
 566               	.L39:
GAS LISTING /tmp/cckNJFLm.s 			page 11


 567 0082 C92F      		mov r28,r25
 568 0084 D82F      		mov r29,r24
 569 0086 00C0      		rjmp .L37
 570               	.L25:
 571 0088 81E0      		ldi r24,lo8(1)
 572 008a 90E0      		ldi r25,0
 573 008c 0C17      		cp r16,r28
 574 008e 1D07      		cpc r17,r29
 575 0090 01F4      		brne .L51
 576 0092 00C0      		rjmp .L41
 577               	.L37:
 578 0094 C801      		movw r24,r16
 579 0096 0E94 0000 		call islower
 580 009a 892B      		or r24,r25
 581 009c 01F4      		brne .L43
 582 009e 81E0      		ldi r24,lo8(1)
 583 00a0 90E0      		ldi r25,0
 584 00a2 CD2B      		or r28,r29
 585 00a4 01F0      		breq .L41
 586               	.L51:
 587 00a6 80E0      		ldi r24,0
 588 00a8 00C0      		rjmp .L41
 589               	.L43:
 590 00aa CE01      		movw r24,r28
 591               	.L41:
 592               	/* epilogue start */
 593 00ac DF91      		pop r29
 594 00ae CF91      		pop r28
 595 00b0 1F91      		pop r17
 596 00b2 0F91      		pop r16
 597 00b4 0895      		ret
 598               		.size	match_class, .-match_class
 599               		.section	.text.matchbracketclass,"ax",@progbits
 600               		.type	matchbracketclass, @function
 601               	matchbracketclass:
 602 0000 CF92      		push r12
 603 0002 DF92      		push r13
 604 0004 EF92      		push r14
 605 0006 FF92      		push r15
 606 0008 0F93      		push r16
 607 000a 1F93      		push r17
 608 000c CF93      		push r28
 609 000e DF93      		push r29
 610               	/* prologue: function */
 611               	/* frame size = 0 */
 612               	/* stack size = 8 */
 613               	.L__stack_usage = 8
 614 0010 8C01      		movw r16,r24
 615 0012 FB01      		movw r30,r22
 616 0014 6A01      		movw r12,r20
 617 0016 8181      		ldd r24,Z+1
 618 0018 8E35      		cpi r24,lo8(94)
 619 001a 01F4      		brne .L61
 620 001c 3196      		adiw r30,1
 621 001e C0E0      		ldi r28,0
 622 0020 D0E0      		ldi r29,0
 623 0022 00C0      		rjmp .L55
GAS LISTING /tmp/cckNJFLm.s 			page 12


 624               	.L61:
 625 0024 C1E0      		ldi r28,lo8(1)
 626 0026 D0E0      		ldi r29,0
 627 0028 00C0      		rjmp .L55
 628               	.L60:
 629 002a 8181      		ldd r24,Z+1
 630 002c 6281      		ldd r22,Z+2
 631 002e 8532      		cpi r24,lo8(37)
 632 0030 01F4      		brne .L56
 633 0032 7F01      		movw r14,r30
 634 0034 22E0      		ldi r18,2
 635 0036 E20E      		add r14,r18
 636 0038 F11C      		adc r15,__zero_reg__
 637 003a 70E0      		ldi r23,0
 638 003c C801      		movw r24,r16
 639 003e 0E94 0000 		call match_class
 640 0042 892B      		or r24,r25
 641 0044 01F4      		brne .L64
 642               	.L58:
 643 0046 F701      		movw r30,r14
 644               	.L55:
 645 0048 9F01      		movw r18,r30
 646 004a 2F5F      		subi r18,-1
 647 004c 3F4F      		sbci r19,-1
 648 004e 2C15      		cp r18,r12
 649 0050 3D05      		cpc r19,r13
 650 0052 00F0      		brlo .L60
 651 0054 00C0      		rjmp .L65
 652               	.L56:
 653 0056 90E0      		ldi r25,0
 654 0058 6D32      		cpi r22,lo8(45)
 655 005a 01F4      		brne .L59
 656 005c 7F01      		movw r14,r30
 657 005e 43E0      		ldi r20,3
 658 0060 E40E      		add r14,r20
 659 0062 F11C      		adc r15,__zero_reg__
 660 0064 EC14      		cp r14,r12
 661 0066 FD04      		cpc r15,r13
 662 0068 00F4      		brsh .L59
 663 006a 0817      		cp r16,r24
 664 006c 1907      		cpc r17,r25
 665 006e 04F0      		brlt .L58
 666 0070 8381      		ldd r24,Z+3
 667 0072 90E0      		ldi r25,0
 668 0074 8017      		cp r24,r16
 669 0076 9107      		cpc r25,r17
 670 0078 04F0      		brlt .L58
 671 007a 00C0      		rjmp .L64
 672               	.L59:
 673 007c 0817      		cp r16,r24
 674 007e 1907      		cpc r17,r25
 675 0080 01F0      		breq .L64
 676 0082 7901      		movw r14,r18
 677 0084 00C0      		rjmp .L58
 678               	.L65:
 679 0086 CE01      		movw r24,r28
 680 0088 21E0      		ldi r18,1
GAS LISTING /tmp/cckNJFLm.s 			page 13


 681 008a 8227      		eor r24,r18
 682 008c 00C0      		rjmp .L57
 683               	.L64:
 684 008e CE01      		movw r24,r28
 685               	.L57:
 686               	/* epilogue start */
 687 0090 DF91      		pop r29
 688 0092 CF91      		pop r28
 689 0094 1F91      		pop r17
 690 0096 0F91      		pop r16
 691 0098 FF90      		pop r15
 692 009a EF90      		pop r14
 693 009c DF90      		pop r13
 694 009e CF90      		pop r12
 695 00a0 0895      		ret
 696               		.size	matchbracketclass, .-matchbracketclass
 697               		.section	.text.gmatch,"ax",@progbits
 698               		.type	gmatch, @function
 699               	gmatch:
 700 0000 CF93      		push r28
 701 0002 DF93      		push r29
 702               	/* prologue: function */
 703               	/* frame size = 0 */
 704               	/* stack size = 2 */
 705               	.L__stack_usage = 2
 706 0004 EC01      		movw r28,r24
 707 0006 40E0      		ldi r20,0
 708 0008 50E0      		ldi r21,0
 709 000a 61E0      		ldi r22,lo8(1)
 710 000c 70E0      		ldi r23,0
 711 000e 0E94 0000 		call luaL_checklstring
 712 0012 40E0      		ldi r20,0
 713 0014 50E0      		ldi r21,0
 714 0016 62E0      		ldi r22,lo8(2)
 715 0018 70E0      		ldi r23,0
 716 001a CE01      		movw r24,r28
 717 001c 0E94 0000 		call luaL_checklstring
 718 0020 62E0      		ldi r22,lo8(2)
 719 0022 70E0      		ldi r23,0
 720 0024 CE01      		movw r24,r28
 721 0026 0E94 0000 		call lua_settop
 722 002a 60E0      		ldi r22,0
 723 002c 70E0      		ldi r23,0
 724 002e CE01      		movw r24,r28
 725 0030 0E94 0000 		call lua_pushinteger
 726 0034 43E0      		ldi r20,lo8(3)
 727 0036 50E0      		ldi r21,0
 728 0038 60E0      		ldi r22,lo8(gs(gmatch_aux))
 729 003a 70E0      		ldi r23,hi8(gs(gmatch_aux))
 730 003c CE01      		movw r24,r28
 731 003e 0E94 0000 		call lua_pushcclosure
 732 0042 81E0      		ldi r24,lo8(1)
 733 0044 90E0      		ldi r25,0
 734               	/* epilogue start */
 735 0046 DF91      		pop r29
 736 0048 CF91      		pop r28
 737 004a 0895      		ret
GAS LISTING /tmp/cckNJFLm.s 			page 14


 738               		.size	gmatch, .-gmatch
 739               		.section	.rodata.str1.1
 740               	.LC1:
 741 002e 6C00      		.string	"l"
 742               		.section	.text.addintlen,"ax",@progbits
 743               		.type	addintlen, @function
 744               	addintlen:
 745 0000 FF92      		push r15
 746 0002 0F93      		push r16
 747 0004 1F93      		push r17
 748 0006 CF93      		push r28
 749 0008 DF93      		push r29
 750               	/* prologue: function */
 751               	/* frame size = 0 */
 752               	/* stack size = 5 */
 753               	.L__stack_usage = 5
 754 000a 8C01      		movw r16,r24
 755 000c FC01      		movw r30,r24
 756               		0:
 757 000e 0190      		ld __tmp_reg__,Z+
 758 0010 0020      		tst __tmp_reg__
 759 0012 01F4      		brne 0b
 760 0014 3197      		sbiw r30,1
 761 0016 EF01      		movw r28,r30
 762 0018 C81B      		sub r28,r24
 763 001a D90B      		sbc r29,r25
 764 001c CF01      		movw r24,r30
 765 001e 0197      		sbiw r24,1
 766 0020 FC01      		movw r30,r24
 767 0022 F080      		ld r15,Z
 768 0024 60E0      		ldi r22,lo8(.LC1)
 769 0026 70E0      		ldi r23,hi8(.LC1)
 770 0028 0E94 0000 		call strcpy
 771 002c F801      		movw r30,r16
 772 002e EC0F      		add r30,r28
 773 0030 FD1F      		adc r31,r29
 774 0032 F082      		st Z,r15
 775 0034 1182      		std Z+1,__zero_reg__
 776               	/* epilogue start */
 777 0036 DF91      		pop r29
 778 0038 CF91      		pop r28
 779 003a 1F91      		pop r17
 780 003c 0F91      		pop r16
 781 003e FF90      		pop r15
 782 0040 0895      		ret
 783               		.size	addintlen, .-addintlen
 784               		.section	.rodata.str1.1
 785               	.LC2:
 786 0030 2D2B 2023 		.string	"-+ #0"
 786      3000 
 787               	.LC3:
 788 0036 696E 7661 		.string	"invalid format (repeated flags)"
 788      6C69 6420 
 788      666F 726D 
 788      6174 2028 
 788      7265 7065 
 789               	.LC4:
GAS LISTING /tmp/cckNJFLm.s 			page 15


 790 0056 696E 7661 		.string	"invalid format (width or precision too long)"
 790      6C69 6420 
 790      666F 726D 
 790      6174 2028 
 790      7769 6474 
 791               	.global	__floatsisf
 792               	.LC5:
 793 0083 5C72 00   		.string	"\\r"
 794               	.LC6:
 795 0086 5C30 3030 		.string	"\\000"
 795      00
 796               	.LC7:
 797 008b 696E 7661 		.string	"invalid option '%%%c' to 'format'"
 797      6C69 6420 
 797      6F70 7469 
 797      6F6E 2027 
 797      2525 2563 
 798               		.section	.text.str_format,"ax",@progbits
 799               		.type	str_format, @function
 800               	str_format:
 801 0000 2F92      		push r2
 802 0002 3F92      		push r3
 803 0004 4F92      		push r4
 804 0006 5F92      		push r5
 805 0008 6F92      		push r6
 806 000a 7F92      		push r7
 807 000c 8F92      		push r8
 808 000e 9F92      		push r9
 809 0010 AF92      		push r10
 810 0012 BF92      		push r11
 811 0014 CF92      		push r12
 812 0016 DF92      		push r13
 813 0018 EF92      		push r14
 814 001a FF92      		push r15
 815 001c 0F93      		push r16
 816 001e 1F93      		push r17
 817 0020 CF93      		push r28
 818 0022 DF93      		push r29
 819 0024 CDB7      		in r28,__SP_L__
 820 0026 DEB7      		in r29,__SP_H__
 821 0028 C052      		subi r28,32
 822 002a D640      		sbci r29,6
 823 002c 0FB6      		in __tmp_reg__,__SREG__
 824 002e F894      		cli
 825 0030 DEBF      		out __SP_H__,r29
 826 0032 0FBE      		out __SREG__,__tmp_reg__
 827 0034 CDBF      		out __SP_L__,r28
 828               	/* prologue: function */
 829               	/* frame size = 1568 */
 830               	/* stack size = 1586 */
 831               	.L__stack_usage = 1586
 832 0036 982E      		mov r9,r24
 833 0038 892E      		mov r8,r25
 834 003a AE01      		movw r20,r28
 835 003c 455E      		subi r20,-27
 836 003e 594F      		sbci r21,-7
 837 0040 61E0      		ldi r22,lo8(1)
GAS LISTING /tmp/cckNJFLm.s 			page 16


 838 0042 70E0      		ldi r23,0
 839 0044 0E94 0000 		call luaL_checklstring
 840 0048 5C01      		movw r10,r24
 841 004a C55E      		subi r28,lo8(-1563)
 842 004c D94F      		sbci r29,hi8(-1563)
 843 004e 8881      		ld r24,Y
 844 0050 9981      		ldd r25,Y+1
 845 0052 CB51      		subi r28,lo8(1563)
 846 0054 D640      		sbci r29,hi8(1563)
 847 0056 9501      		movw r18,r10
 848 0058 280F      		add r18,r24
 849 005a 391F      		adc r19,r25
 850 005c C35E      		subi r28,lo8(-1565)
 851 005e D94F      		sbci r29,hi8(-1565)
 852 0060 3983      		std Y+1,r19
 853 0062 2883      		st Y,r18
 854 0064 CD51      		subi r28,lo8(1565)
 855 0066 D640      		sbci r29,hi8(1565)
 856 0068 BE01      		movw r22,r28
 857 006a 6F5F      		subi r22,-1
 858 006c 7F4F      		sbci r23,-1
 859 006e 892D      		mov r24,r9
 860 0070 982D      		mov r25,r8
 861 0072 0E94 0000 		call luaL_buffinit
 862 0076 6624      		clr r6
 863 0078 6394      		inc r6
 864 007a 712C      		mov r7,__zero_reg__
 865 007c 6E01      		movw r12,r28
 866 007e 39EF      		ldi r19,-7
 867 0080 C31A      		sub r12,r19
 868 0082 D30A      		sbc r13,r19
 869 0084 9601      		movw r18,r12
 870 0086 2F5F      		subi r18,-1
 871 0088 3F4F      		sbci r19,-1
 872 008a C15E      		subi r28,lo8(-1567)
 873 008c D94F      		sbci r29,hi8(-1567)
 874 008e 3983      		std Y+1,r19
 875 0090 2883      		st Y,r18
 876 0092 CF51      		subi r28,lo8(1567)
 877 0094 D640      		sbci r29,hi8(1567)
 878 0096 8E01      		movw r16,r28
 879 0098 095F      		subi r16,-7
 880 009a 1B4F      		sbci r17,-5
 881               	.L69:
 882 009c C35E      		subi r28,lo8(-1565)
 883 009e D94F      		sbci r29,hi8(-1565)
 884 00a0 2881      		ld r18,Y
 885 00a2 3981      		ldd r19,Y+1
 886 00a4 CD51      		subi r28,lo8(1565)
 887 00a6 D640      		sbci r29,hi8(1565)
 888 00a8 A216      		cp r10,r18
 889 00aa B306      		cpc r11,r19
 890 00ac 00F0      		brlo .+2
 891 00ae 00C0      		rjmp .L154
 892 00b0 D501      		movw r26,r10
 893 00b2 8C91      		ld r24,X
 894 00b4 8532      		cpi r24,lo8(37)
GAS LISTING /tmp/cckNJFLm.s 			page 17


 895 00b6 01F0      		breq .L70
 896 00b8 8981      		ldd r24,Y+1
 897 00ba 9A81      		ldd r25,Y+2
 898 00bc 8017      		cp r24,r16
 899 00be 9107      		cpc r25,r17
 900 00c0 00F0      		brlo .L71
 901 00c2 CE01      		movw r24,r28
 902 00c4 0196      		adiw r24,1
 903 00c6 0E94 0000 		call luaL_prepbuffer
 904               	.L71:
 905 00ca E981      		ldd r30,Y+1
 906 00cc FA81      		ldd r31,Y+2
 907 00ce CF01      		movw r24,r30
 908 00d0 0196      		adiw r24,1
 909 00d2 9A83      		std Y+2,r25
 910 00d4 8983      		std Y+1,r24
 911 00d6 D501      		movw r26,r10
 912 00d8 8C91      		ld r24,X
 913 00da 8083      		st Z,r24
 914 00dc F501      		movw r30,r10
 915 00de 3196      		adiw r30,1
 916 00e0 00C0      		rjmp .L151
 917               	.L70:
 918 00e2 D501      		movw r26,r10
 919 00e4 1196      		adiw r26,1
 920 00e6 8C91      		ld r24,X
 921 00e8 8532      		cpi r24,lo8(37)
 922 00ea 01F4      		brne .L73
 923 00ec 8981      		ldd r24,Y+1
 924 00ee 9A81      		ldd r25,Y+2
 925 00f0 8017      		cp r24,r16
 926 00f2 9107      		cpc r25,r17
 927 00f4 00F0      		brlo .L74
 928 00f6 CE01      		movw r24,r28
 929 00f8 0196      		adiw r24,1
 930 00fa 0E94 0000 		call luaL_prepbuffer
 931               	.L74:
 932 00fe E981      		ldd r30,Y+1
 933 0100 FA81      		ldd r31,Y+2
 934 0102 CF01      		movw r24,r30
 935 0104 0196      		adiw r24,1
 936 0106 9A83      		std Y+2,r25
 937 0108 8983      		std Y+1,r24
 938 010a D501      		movw r26,r10
 939 010c 1196      		adiw r26,1
 940 010e 8C91      		ld r24,X
 941 0110 8083      		st Z,r24
 942 0112 F501      		movw r30,r10
 943 0114 3296      		adiw r30,2
 944               	.L151:
 945 0116 5F01      		movw r10,r30
 946 0118 00C0      		rjmp .L69
 947               	.L73:
 948 011a 2501      		movw r4,r10
 949 011c FFEF      		ldi r31,-1
 950 011e 4F1A      		sub r4,r31
 951 0120 5F0A      		sbc r5,r31
GAS LISTING /tmp/cckNJFLm.s 			page 18


 952 0122 2FEF      		ldi r18,-1
 953 0124 621A      		sub r6,r18
 954 0126 720A      		sbc r7,r18
 955 0128 5201      		movw r10,r4
 956               	.L78:
 957 012a 7501      		movw r14,r10
 958 012c D501      		movw r26,r10
 959 012e 6D91      		ld r22,X+
 960 0130 1D01      		movw r2,r26
 961 0132 6111      		cpse r22,__zero_reg__
 962 0134 00C0      		rjmp .L75
 963               	.L79:
 964 0136 C501      		movw r24,r10
 965 0138 8419      		sub r24,r4
 966 013a 9509      		sbc r25,r5
 967 013c 0697      		sbiw r24,6
 968 013e 00F0      		brlo .L77
 969 0140 A0E0      		ldi r26,lo8(.LC3)
 970 0142 B0E0      		ldi r27,hi8(.LC3)
 971 0144 BF93      		push r27
 972 0146 AF93      		push r26
 973 0148 8F92      		push r8
 974 014a 9F92      		push r9
 975 014c 0E94 0000 		call luaL_error
 976 0150 0F90      		pop __tmp_reg__
 977 0152 0F90      		pop __tmp_reg__
 978 0154 0F90      		pop __tmp_reg__
 979 0156 0F90      		pop __tmp_reg__
 980 0158 00C0      		rjmp .L77
 981               	.L75:
 982 015a 062E      		mov __tmp_reg__,r22
 983 015c 000C      		lsl r0
 984 015e 770B      		sbc r23,r23
 985 0160 80E0      		ldi r24,lo8(.LC2)
 986 0162 90E0      		ldi r25,hi8(.LC2)
 987 0164 0E94 0000 		call strchr
 988 0168 892B      		or r24,r25
 989 016a 01F0      		breq .L79
 990 016c 5101      		movw r10,r2
 991 016e 00C0      		rjmp .L78
 992               	.L77:
 993 0170 D501      		movw r26,r10
 994 0172 8C91      		ld r24,X
 995 0174 90E0      		ldi r25,0
 996 0176 C097      		sbiw r24,48
 997 0178 0A97      		sbiw r24,10
 998 017a 00F4      		brsh .L80
 999 017c 7101      		movw r14,r2
 1000               	.L80:
 1001 017e F701      		movw r30,r14
 1002 0180 8081      		ld r24,Z
 1003 0182 90E0      		ldi r25,0
 1004 0184 C097      		sbiw r24,48
 1005 0186 0A97      		sbiw r24,10
 1006 0188 00F4      		brsh .L81
 1007 018a FFEF      		ldi r31,-1
 1008 018c EF1A      		sub r14,r31
GAS LISTING /tmp/cckNJFLm.s 			page 19


 1009 018e FF0A      		sbc r15,r31
 1010               	.L81:
 1011 0190 D701      		movw r26,r14
 1012 0192 8C91      		ld r24,X
 1013 0194 8E32      		cpi r24,lo8(46)
 1014 0196 01F4      		brne .L82
 1015 0198 1196      		adiw r26,1
 1016 019a 8C91      		ld r24,X
 1017 019c 90E0      		ldi r25,0
 1018 019e C097      		sbiw r24,48
 1019 01a0 0A97      		sbiw r24,10
 1020 01a2 00F0      		brlo .L83
 1021 01a4 BFEF      		ldi r27,-1
 1022 01a6 EB1A      		sub r14,r27
 1023 01a8 FB0A      		sbc r15,r27
 1024 01aa 00C0      		rjmp .L84
 1025               	.L83:
 1026 01ac E2E0      		ldi r30,2
 1027 01ae EE0E      		add r14,r30
 1028 01b0 F11C      		adc r15,__zero_reg__
 1029               	.L84:
 1030 01b2 D701      		movw r26,r14
 1031 01b4 8C91      		ld r24,X
 1032 01b6 90E0      		ldi r25,0
 1033 01b8 C097      		sbiw r24,48
 1034 01ba 0A97      		sbiw r24,10
 1035 01bc 00F4      		brsh .L82
 1036 01be BFEF      		ldi r27,-1
 1037 01c0 EB1A      		sub r14,r27
 1038 01c2 FB0A      		sbc r15,r27
 1039               	.L82:
 1040 01c4 F701      		movw r30,r14
 1041 01c6 8081      		ld r24,Z
 1042 01c8 90E0      		ldi r25,0
 1043 01ca C097      		sbiw r24,48
 1044 01cc 0A97      		sbiw r24,10
 1045 01ce 00F4      		brsh .L85
 1046 01d0 A0E0      		ldi r26,lo8(.LC4)
 1047 01d2 B0E0      		ldi r27,hi8(.LC4)
 1048 01d4 BF93      		push r27
 1049 01d6 AF93      		push r26
 1050 01d8 8F92      		push r8
 1051 01da 9F92      		push r9
 1052 01dc 0E94 0000 		call luaL_error
 1053 01e0 0F90      		pop __tmp_reg__
 1054 01e2 0F90      		pop __tmp_reg__
 1055 01e4 0F90      		pop __tmp_reg__
 1056 01e6 0F90      		pop __tmp_reg__
 1057               	.L85:
 1058 01e8 E5E2      		ldi r30,lo8(37)
 1059 01ea D601      		movw r26,r12
 1060 01ec EC93      		st X,r30
 1061 01ee 5701      		movw r10,r14
 1062 01f0 A418      		sub r10,r4
 1063 01f2 B508      		sbc r11,r5
 1064 01f4 A501      		movw r20,r10
 1065 01f6 4F5F      		subi r20,-1
GAS LISTING /tmp/cckNJFLm.s 			page 20


 1066 01f8 5F4F      		sbci r21,-1
 1067 01fa B201      		movw r22,r4
 1068 01fc C15E      		subi r28,lo8(-1567)
 1069 01fe D94F      		sbci r29,hi8(-1567)
 1070 0200 8881      		ld r24,Y
 1071 0202 9981      		ldd r25,Y+1
 1072 0204 CF51      		subi r28,lo8(1567)
 1073 0206 D640      		sbci r29,hi8(1567)
 1074 0208 0E94 0000 		call strncpy
 1075 020c E9E0      		ldi r30,lo8(9)
 1076 020e F6E0      		ldi r31,lo8(6)
 1077 0210 EC0F      		add r30,r28
 1078 0212 FD1F      		adc r31,r29
 1079 0214 EA0D      		add r30,r10
 1080 0216 FB1D      		adc r31,r11
 1081 0218 1082      		st Z,__zero_reg__
 1082 021a 5701      		movw r10,r14
 1083 021c FFEF      		ldi r31,-1
 1084 021e AF1A      		sub r10,r31
 1085 0220 BF0A      		sbc r11,r31
 1086 0222 D701      		movw r26,r14
 1087 0224 8C91      		ld r24,X
 1088 0226 8836      		cpi r24,lo8(104)
 1089 0228 04F4      		brge .L87
 1090 022a 8536      		cpi r24,lo8(101)
 1091 022c 04F4      		brge .L88
 1092 022e 8835      		cpi r24,lo8(88)
 1093 0230 01F0      		breq .L89
 1094 0232 04F4      		brge .L90
 1095 0234 8534      		cpi r24,lo8(69)
 1096 0236 01F0      		breq .L88
 1097 0238 8734      		cpi r24,lo8(71)
 1098 023a 01F0      		breq .L88
 1099 023c 00C0      		rjmp .L86
 1100               	.L90:
 1101 023e 8336      		cpi r24,lo8(99)
 1102 0240 01F0      		breq .L91
 1103 0242 8436      		cpi r24,lo8(100)
 1104 0244 01F0      		breq .L89
 1105 0246 00C0      		rjmp .L86
 1106               	.L87:
 1107 0248 8137      		cpi r24,lo8(113)
 1108 024a 01F0      		breq .L93
 1109 024c 04F4      		brge .L94
 1110 024e 8936      		cpi r24,lo8(105)
 1111 0250 01F0      		breq .L89
 1112 0252 8F36      		cpi r24,lo8(111)
 1113 0254 01F0      		breq .L89
 1114 0256 00C0      		rjmp .L86
 1115               	.L94:
 1116 0258 8537      		cpi r24,lo8(117)
 1117 025a 01F0      		breq .L89
 1118 025c 8837      		cpi r24,lo8(120)
 1119 025e 01F0      		breq .L89
 1120 0260 8337      		cpi r24,lo8(115)
 1121 0262 01F4      		brne .+2
 1122 0264 00C0      		rjmp .L95
GAS LISTING /tmp/cckNJFLm.s 			page 21


 1123 0266 00C0      		rjmp .L86
 1124               	.L91:
 1125 0268 B301      		movw r22,r6
 1126 026a 892D      		mov r24,r9
 1127 026c 982D      		mov r25,r8
 1128 026e 0E94 0000 		call luaL_checknumber
 1129 0272 7F93      		push r23
 1130 0274 6F93      		push r22
 1131 0276 00C0      		rjmp .L149
 1132               	.L89:
 1133 0278 C601      		movw r24,r12
 1134 027a 0E94 0000 		call addintlen
 1135 027e B301      		movw r22,r6
 1136 0280 892D      		mov r24,r9
 1137 0282 982D      		mov r25,r8
 1138 0284 0E94 0000 		call luaL_checknumber
 1139 0288 00C0      		rjmp .L153
 1140               	.L88:
 1141 028a B301      		movw r22,r6
 1142 028c 892D      		mov r24,r9
 1143 028e 982D      		mov r25,r8
 1144 0290 0E94 0000 		call luaL_checknumber
 1145 0294 0E94 0000 		call __floatsisf
 1146               	.L153:
 1147 0298 9F93      		push r25
 1148 029a 8F93      		push r24
 1149 029c 7F93      		push r23
 1150 029e 6F93      		push r22
 1151 02a0 DF92      		push r13
 1152 02a2 CF92      		push r12
 1153 02a4 1F93      		push r17
 1154 02a6 0F93      		push r16
 1155 02a8 0E94 0000 		call sprintf
 1156 02ac 0FB6      		in __tmp_reg__,__SREG__
 1157 02ae F894      		cli
 1158 02b0 DEBF      		out __SP_H__,r29
 1159 02b2 0FBE      		out __SREG__,__tmp_reg__
 1160 02b4 CDBF      		out __SP_L__,r28
 1161 02b6 00C0      		rjmp .L96
 1162               	.L93:
 1163 02b8 A801      		movw r20,r16
 1164 02ba B301      		movw r22,r6
 1165 02bc 892D      		mov r24,r9
 1166 02be 982D      		mov r25,r8
 1167 02c0 0E94 0000 		call luaL_checklstring
 1168 02c4 7C01      		movw r14,r24
 1169 02c6 8981      		ldd r24,Y+1
 1170 02c8 9A81      		ldd r25,Y+2
 1171 02ca 8017      		cp r24,r16
 1172 02cc 9107      		cpc r25,r17
 1173 02ce 00F0      		brlo .L97
 1174 02d0 CE01      		movw r24,r28
 1175 02d2 0196      		adiw r24,1
 1176 02d4 0E94 0000 		call luaL_prepbuffer
 1177               	.L97:
 1178 02d8 E981      		ldd r30,Y+1
 1179 02da FA81      		ldd r31,Y+2
GAS LISTING /tmp/cckNJFLm.s 			page 22


 1180 02dc CF01      		movw r24,r30
 1181 02de 0196      		adiw r24,1
 1182 02e0 9A83      		std Y+2,r25
 1183 02e2 8983      		std Y+1,r24
 1184 02e4 92E2      		ldi r25,lo8(34)
 1185 02e6 9083      		st Z,r25
 1186               	.L98:
 1187 02e8 F801      		movw r30,r16
 1188 02ea 8081      		ld r24,Z
 1189 02ec 9181      		ldd r25,Z+1
 1190 02ee 9C01      		movw r18,r24
 1191 02f0 2150      		subi r18,1
 1192 02f2 3109      		sbc r19,__zero_reg__
 1193 02f4 3183      		std Z+1,r19
 1194 02f6 2083      		st Z,r18
 1195 02f8 892B      		or r24,r25
 1196 02fa 01F4      		brne .+2
 1197 02fc 00C0      		rjmp .L155
 1198 02fe D701      		movw r26,r14
 1199 0300 8C91      		ld r24,X
 1200 0302 8D30      		cpi r24,lo8(13)
 1201 0304 01F0      		breq .L100
 1202 0306 04F4      		brge .L101
 1203 0308 8823      		tst r24
 1204 030a 01F0      		breq .L102
 1205 030c 8A30      		cpi r24,lo8(10)
 1206 030e 01F4      		brne .L99
 1207 0310 00C0      		rjmp .L103
 1208               	.L101:
 1209 0312 8232      		cpi r24,lo8(34)
 1210 0314 01F0      		breq .L103
 1211 0316 8C35      		cpi r24,lo8(92)
 1212 0318 01F4      		brne .L99
 1213               	.L103:
 1214 031a 8981      		ldd r24,Y+1
 1215 031c 9A81      		ldd r25,Y+2
 1216 031e 8017      		cp r24,r16
 1217 0320 9107      		cpc r25,r17
 1218 0322 00F0      		brlo .L104
 1219 0324 CE01      		movw r24,r28
 1220 0326 0196      		adiw r24,1
 1221 0328 0E94 0000 		call luaL_prepbuffer
 1222               	.L104:
 1223 032c E981      		ldd r30,Y+1
 1224 032e FA81      		ldd r31,Y+2
 1225 0330 CF01      		movw r24,r30
 1226 0332 0196      		adiw r24,1
 1227 0334 9A83      		std Y+2,r25
 1228 0336 8983      		std Y+1,r24
 1229 0338 BCE5      		ldi r27,lo8(92)
 1230 033a B083      		st Z,r27
 1231 033c 00C0      		rjmp .L99
 1232               	.L100:
 1233 033e 42E0      		ldi r20,lo8(2)
 1234 0340 50E0      		ldi r21,0
 1235 0342 60E0      		ldi r22,lo8(.LC5)
 1236 0344 70E0      		ldi r23,hi8(.LC5)
GAS LISTING /tmp/cckNJFLm.s 			page 23


 1237 0346 00C0      		rjmp .L148
 1238               	.L102:
 1239 0348 44E0      		ldi r20,lo8(4)
 1240 034a 50E0      		ldi r21,0
 1241 034c 60E0      		ldi r22,lo8(.LC6)
 1242 034e 70E0      		ldi r23,hi8(.LC6)
 1243               	.L148:
 1244 0350 CE01      		movw r24,r28
 1245 0352 0196      		adiw r24,1
 1246 0354 0E94 0000 		call luaL_addlstring
 1247 0358 00C0      		rjmp .L106
 1248               	.L99:
 1249 035a 8981      		ldd r24,Y+1
 1250 035c 9A81      		ldd r25,Y+2
 1251 035e 8017      		cp r24,r16
 1252 0360 9107      		cpc r25,r17
 1253 0362 00F0      		brlo .L107
 1254 0364 CE01      		movw r24,r28
 1255 0366 0196      		adiw r24,1
 1256 0368 0E94 0000 		call luaL_prepbuffer
 1257               	.L107:
 1258 036c E981      		ldd r30,Y+1
 1259 036e FA81      		ldd r31,Y+2
 1260 0370 CF01      		movw r24,r30
 1261 0372 0196      		adiw r24,1
 1262 0374 9A83      		std Y+2,r25
 1263 0376 8983      		std Y+1,r24
 1264 0378 D701      		movw r26,r14
 1265 037a 8C91      		ld r24,X
 1266 037c 8083      		st Z,r24
 1267               	.L106:
 1268 037e BFEF      		ldi r27,-1
 1269 0380 EB1A      		sub r14,r27
 1270 0382 FB0A      		sbc r15,r27
 1271 0384 00C0      		rjmp .L98
 1272               	.L155:
 1273 0386 8981      		ldd r24,Y+1
 1274 0388 9A81      		ldd r25,Y+2
 1275 038a 8017      		cp r24,r16
 1276 038c 9107      		cpc r25,r17
 1277 038e 00F0      		brlo .L109
 1278 0390 CE01      		movw r24,r28
 1279 0392 0196      		adiw r24,1
 1280 0394 0E94 0000 		call luaL_prepbuffer
 1281               	.L109:
 1282 0398 E981      		ldd r30,Y+1
 1283 039a FA81      		ldd r31,Y+2
 1284 039c CF01      		movw r24,r30
 1285 039e 0196      		adiw r24,1
 1286 03a0 9A83      		std Y+2,r25
 1287 03a2 8983      		std Y+1,r24
 1288 03a4 22E2      		ldi r18,lo8(34)
 1289 03a6 2083      		st Z,r18
 1290 03a8 00C0      		rjmp .L69
 1291               	.L95:
 1292 03aa AE01      		movw r20,r28
 1293 03ac 475E      		subi r20,-25
GAS LISTING /tmp/cckNJFLm.s 			page 24


 1294 03ae 594F      		sbci r21,-7
 1295 03b0 B301      		movw r22,r6
 1296 03b2 892D      		mov r24,r9
 1297 03b4 982D      		mov r25,r8
 1298 03b6 0E94 0000 		call luaL_checklstring
 1299 03ba F82E      		mov r15,r24
 1300 03bc E92E      		mov r14,r25
 1301 03be 6EE2      		ldi r22,lo8(46)
 1302 03c0 70E0      		ldi r23,0
 1303 03c2 C601      		movw r24,r12
 1304 03c4 0E94 0000 		call strchr
 1305 03c8 892B      		or r24,r25
 1306 03ca 01F4      		brne .L111
 1307 03cc C75E      		subi r28,lo8(-1561)
 1308 03ce D94F      		sbci r29,hi8(-1561)
 1309 03d0 8881      		ld r24,Y
 1310 03d2 9981      		ldd r25,Y+1
 1311 03d4 C951      		subi r28,lo8(1561)
 1312 03d6 D640      		sbci r29,hi8(1561)
 1313 03d8 8436      		cpi r24,100
 1314 03da 9105      		cpc r25,__zero_reg__
 1315 03dc 00F0      		brlo .L111
 1316 03de B301      		movw r22,r6
 1317 03e0 892D      		mov r24,r9
 1318 03e2 982D      		mov r25,r8
 1319 03e4 0E94 0000 		call lua_pushvalue
 1320 03e8 CE01      		movw r24,r28
 1321 03ea 0196      		adiw r24,1
 1322 03ec 0E94 0000 		call luaL_addvalue
 1323 03f0 00C0      		rjmp .L69
 1324               	.L111:
 1325 03f2 EF92      		push r14
 1326 03f4 FF92      		push r15
 1327               	.L149:
 1328 03f6 DF92      		push r13
 1329 03f8 CF92      		push r12
 1330 03fa 1F93      		push r17
 1331 03fc 0F93      		push r16
 1332 03fe 0E94 0000 		call sprintf
 1333 0402 0F90      		pop __tmp_reg__
 1334 0404 0F90      		pop __tmp_reg__
 1335 0406 0F90      		pop __tmp_reg__
 1336 0408 0F90      		pop __tmp_reg__
 1337 040a 0F90      		pop __tmp_reg__
 1338 040c 0F90      		pop __tmp_reg__
 1339 040e 00C0      		rjmp .L96
 1340               	.L86:
 1341 0410 282F      		mov r18,r24
 1342 0412 082E      		mov __tmp_reg__,r24
 1343 0414 000C      		lsl r0
 1344 0416 330B      		sbc r19,r19
 1345 0418 3F93      		push r19
 1346 041a 8F93      		push r24
 1347 041c 80E0      		ldi r24,lo8(.LC7)
 1348 041e 90E0      		ldi r25,hi8(.LC7)
 1349 0420 9F93      		push r25
 1350 0422 8F93      		push r24
GAS LISTING /tmp/cckNJFLm.s 			page 25


 1351 0424 8F92      		push r8
 1352 0426 9F92      		push r9
 1353 0428 0E94 0000 		call luaL_error
 1354 042c 0F90      		pop __tmp_reg__
 1355 042e 0F90      		pop __tmp_reg__
 1356 0430 0F90      		pop __tmp_reg__
 1357 0432 0F90      		pop __tmp_reg__
 1358 0434 0F90      		pop __tmp_reg__
 1359 0436 0F90      		pop __tmp_reg__
 1360 0438 00C0      		rjmp .L112
 1361               	.L96:
 1362 043a F801      		movw r30,r16
 1363               		0:
 1364 043c 0190      		ld __tmp_reg__,Z+
 1365 043e 0020      		tst __tmp_reg__
 1366 0440 01F4      		brne 0b
 1367 0442 3197      		sbiw r30,1
 1368 0444 AF01      		movw r20,r30
 1369 0446 401B      		sub r20,r16
 1370 0448 510B      		sbc r21,r17
 1371 044a B801      		movw r22,r16
 1372 044c CE01      		movw r24,r28
 1373 044e 0196      		adiw r24,1
 1374 0450 0E94 0000 		call luaL_addlstring
 1375 0454 00C0      		rjmp .L69
 1376               	.L154:
 1377 0456 CE01      		movw r24,r28
 1378 0458 0196      		adiw r24,1
 1379 045a 0E94 0000 		call luaL_pushresult
 1380 045e 81E0      		ldi r24,lo8(1)
 1381 0460 90E0      		ldi r25,0
 1382               	.L112:
 1383               	/* epilogue start */
 1384 0462 C05E      		subi r28,-32
 1385 0464 D94F      		sbci r29,-7
 1386 0466 0FB6      		in __tmp_reg__,__SREG__
 1387 0468 F894      		cli
 1388 046a DEBF      		out __SP_H__,r29
 1389 046c 0FBE      		out __SREG__,__tmp_reg__
 1390 046e CDBF      		out __SP_L__,r28
 1391 0470 DF91      		pop r29
 1392 0472 CF91      		pop r28
 1393 0474 1F91      		pop r17
 1394 0476 0F91      		pop r16
 1395 0478 FF90      		pop r15
 1396 047a EF90      		pop r14
 1397 047c DF90      		pop r13
 1398 047e CF90      		pop r12
 1399 0480 BF90      		pop r11
 1400 0482 AF90      		pop r10
 1401 0484 9F90      		pop r9
 1402 0486 8F90      		pop r8
 1403 0488 7F90      		pop r7
 1404 048a 6F90      		pop r6
 1405 048c 5F90      		pop r5
 1406 048e 4F90      		pop r4
 1407 0490 3F90      		pop r3
GAS LISTING /tmp/cckNJFLm.s 			page 26


 1408 0492 2F90      		pop r2
 1409 0494 0895      		ret
 1410               		.size	str_format, .-str_format
 1411               		.section	.rodata.str1.1
 1412               	.LC8:
 1413 00ad 756E 6162 		.string	"unable to dump given function"
 1413      6C65 2074 
 1413      6F20 6475 
 1413      6D70 2067 
 1413      6976 656E 
 1414               		.section	.text.str_dump,"ax",@progbits
 1415               		.type	str_dump, @function
 1416               	str_dump:
 1417 0000 0F93      		push r16
 1418 0002 1F93      		push r17
 1419 0004 CF93      		push r28
 1420 0006 DF93      		push r29
 1421 0008 CDB7      		in r28,__SP_L__
 1422 000a DEB7      		in r29,__SP_H__
 1423 000c C650      		subi r28,6
 1424 000e D440      		sbci r29,4
 1425 0010 0FB6      		in __tmp_reg__,__SREG__
 1426 0012 F894      		cli
 1427 0014 DEBF      		out __SP_H__,r29
 1428 0016 0FBE      		out __SREG__,__tmp_reg__
 1429 0018 CDBF      		out __SP_L__,r28
 1430               	/* prologue: function */
 1431               	/* frame size = 1030 */
 1432               	/* stack size = 1034 */
 1433               	.L__stack_usage = 1034
 1434 001a 182F      		mov r17,r24
 1435 001c 092F      		mov r16,r25
 1436 001e 48E0      		ldi r20,lo8(8)
 1437 0020 50E0      		ldi r21,0
 1438 0022 61E0      		ldi r22,lo8(1)
 1439 0024 70E0      		ldi r23,0
 1440 0026 0E94 0000 		call luaL_checktype
 1441 002a 61E0      		ldi r22,lo8(1)
 1442 002c 70E0      		ldi r23,0
 1443 002e 812F      		mov r24,r17
 1444 0030 902F      		mov r25,r16
 1445 0032 0E94 0000 		call lua_settop
 1446 0036 BE01      		movw r22,r28
 1447 0038 6F5F      		subi r22,-1
 1448 003a 7F4F      		sbci r23,-1
 1449 003c 812F      		mov r24,r17
 1450 003e 902F      		mov r25,r16
 1451 0040 0E94 0000 		call luaL_buffinit
 1452 0044 AE01      		movw r20,r28
 1453 0046 4F5F      		subi r20,-1
 1454 0048 5F4F      		sbci r21,-1
 1455 004a 60E0      		ldi r22,lo8(gs(writer))
 1456 004c 70E0      		ldi r23,hi8(gs(writer))
 1457 004e 812F      		mov r24,r17
 1458 0050 902F      		mov r25,r16
 1459 0052 0E94 0000 		call lua_dump
 1460 0056 892B      		or r24,r25
GAS LISTING /tmp/cckNJFLm.s 			page 27


 1461 0058 01F0      		breq .L157
 1462 005a 80E0      		ldi r24,lo8(.LC8)
 1463 005c 90E0      		ldi r25,hi8(.LC8)
 1464 005e 9F93      		push r25
 1465 0060 8F93      		push r24
 1466 0062 0F93      		push r16
 1467 0064 1F93      		push r17
 1468 0066 0E94 0000 		call luaL_error
 1469 006a 0F90      		pop __tmp_reg__
 1470 006c 0F90      		pop __tmp_reg__
 1471 006e 0F90      		pop __tmp_reg__
 1472 0070 0F90      		pop __tmp_reg__
 1473               	.L157:
 1474 0072 CE01      		movw r24,r28
 1475 0074 0196      		adiw r24,1
 1476 0076 0E94 0000 		call luaL_pushresult
 1477 007a 81E0      		ldi r24,lo8(1)
 1478 007c 90E0      		ldi r25,0
 1479               	/* epilogue start */
 1480 007e CA5F      		subi r28,-6
 1481 0080 DB4F      		sbci r29,-5
 1482 0082 0FB6      		in __tmp_reg__,__SREG__
 1483 0084 F894      		cli
 1484 0086 DEBF      		out __SP_H__,r29
 1485 0088 0FBE      		out __SREG__,__tmp_reg__
 1486 008a CDBF      		out __SP_L__,r28
 1487 008c DF91      		pop r29
 1488 008e CF91      		pop r28
 1489 0090 1F91      		pop r17
 1490 0092 0F91      		pop r16
 1491 0094 0895      		ret
 1492               		.size	str_dump, .-str_dump
 1493               		.section	.rodata.str1.1
 1494               	.LC9:
 1495 00cb 696E 7661 		.string	"invalid value"
 1495      6C69 6420 
 1495      7661 6C75 
 1495      6500 
 1496               		.section	.text.str_char,"ax",@progbits
 1497               		.type	str_char, @function
 1498               	str_char:
 1499 0000 8F92      		push r8
 1500 0002 9F92      		push r9
 1501 0004 AF92      		push r10
 1502 0006 BF92      		push r11
 1503 0008 CF92      		push r12
 1504 000a DF92      		push r13
 1505 000c EF92      		push r14
 1506 000e FF92      		push r15
 1507 0010 0F93      		push r16
 1508 0012 1F93      		push r17
 1509 0014 CF93      		push r28
 1510 0016 DF93      		push r29
 1511 0018 CDB7      		in r28,__SP_L__
 1512 001a DEB7      		in r29,__SP_H__
 1513 001c C650      		subi r28,6
 1514 001e D440      		sbci r29,4
GAS LISTING /tmp/cckNJFLm.s 			page 28


 1515 0020 0FB6      		in __tmp_reg__,__SREG__
 1516 0022 F894      		cli
 1517 0024 DEBF      		out __SP_H__,r29
 1518 0026 0FBE      		out __SREG__,__tmp_reg__
 1519 0028 CDBF      		out __SP_L__,r28
 1520               	/* prologue: function */
 1521               	/* frame size = 1030 */
 1522               	/* stack size = 1042 */
 1523               	.L__stack_usage = 1042
 1524 002a 7C01      		movw r14,r24
 1525 002c 0E94 0000 		call lua_gettop
 1526 0030 5C01      		movw r10,r24
 1527 0032 BE01      		movw r22,r28
 1528 0034 6F5F      		subi r22,-1
 1529 0036 7F4F      		sbci r23,-1
 1530 0038 C701      		movw r24,r14
 1531 003a 0E94 0000 		call luaL_buffinit
 1532 003e 01E0      		ldi r16,lo8(1)
 1533 0040 10E0      		ldi r17,0
 1534 0042 4E01      		movw r8,r28
 1535 0044 89EF      		ldi r24,-7
 1536 0046 881A      		sub r8,r24
 1537 0048 8BEF      		ldi r24,-5
 1538 004a 980A      		sbc r9,r24
 1539               	.L162:
 1540 004c A016      		cp r10,r16
 1541 004e B106      		cpc r11,r17
 1542 0050 04F0      		brlt .L166
 1543 0052 B801      		movw r22,r16
 1544 0054 C701      		movw r24,r14
 1545 0056 0E94 0000 		call luaL_checkinteger
 1546 005a 6C01      		movw r12,r24
 1547 005c 9927      		clr r25
 1548 005e C816      		cp r12,r24
 1549 0060 D906      		cpc r13,r25
 1550 0062 01F0      		breq .L163
 1551 0064 40E0      		ldi r20,lo8(.LC9)
 1552 0066 50E0      		ldi r21,hi8(.LC9)
 1553 0068 B801      		movw r22,r16
 1554 006a C701      		movw r24,r14
 1555 006c 0E94 0000 		call luaL_argerror
 1556               	.L163:
 1557 0070 8981      		ldd r24,Y+1
 1558 0072 9A81      		ldd r25,Y+2
 1559 0074 8815      		cp r24,r8
 1560 0076 9905      		cpc r25,r9
 1561 0078 00F0      		brlo .L164
 1562 007a CE01      		movw r24,r28
 1563 007c 0196      		adiw r24,1
 1564 007e 0E94 0000 		call luaL_prepbuffer
 1565               	.L164:
 1566 0082 E981      		ldd r30,Y+1
 1567 0084 FA81      		ldd r31,Y+2
 1568 0086 CF01      		movw r24,r30
 1569 0088 0196      		adiw r24,1
 1570 008a 9A83      		std Y+2,r25
 1571 008c 8983      		std Y+1,r24
GAS LISTING /tmp/cckNJFLm.s 			page 29


 1572 008e C082      		st Z,r12
 1573 0090 0F5F      		subi r16,-1
 1574 0092 1F4F      		sbci r17,-1
 1575 0094 00C0      		rjmp .L162
 1576               	.L166:
 1577 0096 CE01      		movw r24,r28
 1578 0098 0196      		adiw r24,1
 1579 009a 0E94 0000 		call luaL_pushresult
 1580 009e 81E0      		ldi r24,lo8(1)
 1581 00a0 90E0      		ldi r25,0
 1582               	/* epilogue start */
 1583 00a2 CA5F      		subi r28,-6
 1584 00a4 DB4F      		sbci r29,-5
 1585 00a6 0FB6      		in __tmp_reg__,__SREG__
 1586 00a8 F894      		cli
 1587 00aa DEBF      		out __SP_H__,r29
 1588 00ac 0FBE      		out __SREG__,__tmp_reg__
 1589 00ae CDBF      		out __SP_L__,r28
 1590 00b0 DF91      		pop r29
 1591 00b2 CF91      		pop r28
 1592 00b4 1F91      		pop r17
 1593 00b6 0F91      		pop r16
 1594 00b8 FF90      		pop r15
 1595 00ba EF90      		pop r14
 1596 00bc DF90      		pop r13
 1597 00be CF90      		pop r12
 1598 00c0 BF90      		pop r11
 1599 00c2 AF90      		pop r10
 1600 00c4 9F90      		pop r9
 1601 00c6 8F90      		pop r8
 1602 00c8 0895      		ret
 1603               		.size	str_char, .-str_char
 1604               		.section	.rodata.str1.1
 1605               	.LC10:
 1606 00d9 6D61 6C66 		.string	"malformed pattern (ends with '%%')"
 1606      6F72 6D65 
 1606      6420 7061 
 1606      7474 6572 
 1606      6E20 2865 
 1607               	.LC11:
 1608 00fc 6D61 6C66 		.string	"malformed pattern (missing ']')"
 1608      6F72 6D65 
 1608      6420 7061 
 1608      7474 6572 
 1608      6E20 286D 
 1609               		.section	.text.classend.isra.0,"ax",@progbits
 1610               		.type	classend.isra.0, @function
 1611               	classend.isra.0:
 1612 0000 EF92      		push r14
 1613 0002 FF92      		push r15
 1614 0004 0F93      		push r16
 1615 0006 1F93      		push r17
 1616 0008 CF93      		push r28
 1617 000a DF93      		push r29
 1618               	/* prologue: function */
 1619               	/* frame size = 0 */
 1620               	/* stack size = 6 */
GAS LISTING /tmp/cckNJFLm.s 			page 30


 1621               	.L__stack_usage = 6
 1622 000c 7C01      		movw r14,r24
 1623 000e 8B01      		movw r16,r22
 1624 0010 EB01      		movw r28,r22
 1625 0012 2196      		adiw r28,1
 1626 0014 FB01      		movw r30,r22
 1627 0016 8081      		ld r24,Z
 1628 0018 8532      		cpi r24,lo8(37)
 1629 001a 01F0      		breq .L169
 1630 001c 8B35      		cpi r24,lo8(91)
 1631 001e 01F0      		breq .L170
 1632 0020 00C0      		rjmp .L182
 1633               	.L169:
 1634 0022 FB01      		movw r30,r22
 1635 0024 8181      		ldd r24,Z+1
 1636 0026 8111      		cpse r24,__zero_reg__
 1637 0028 00C0      		rjmp .L171
 1638 002a 80E0      		ldi r24,lo8(.LC10)
 1639 002c 90E0      		ldi r25,hi8(.LC10)
 1640 002e 9F93      		push r25
 1641 0030 8F93      		push r24
 1642 0032 F701      		movw r30,r14
 1643 0034 8181      		ldd r24,Z+1
 1644 0036 8F93      		push r24
 1645 0038 8081      		ld r24,Z
 1646 003a 8F93      		push r24
 1647 003c 0E94 0000 		call luaL_error
 1648 0040 0F90      		pop __tmp_reg__
 1649 0042 0F90      		pop __tmp_reg__
 1650 0044 0F90      		pop __tmp_reg__
 1651 0046 0F90      		pop __tmp_reg__
 1652               	.L171:
 1653 0048 C801      		movw r24,r16
 1654 004a 0296      		adiw r24,2
 1655 004c 00C0      		rjmp .L168
 1656               	.L170:
 1657 004e FB01      		movw r30,r22
 1658 0050 8181      		ldd r24,Z+1
 1659 0052 8E35      		cpi r24,lo8(94)
 1660 0054 01F4      		brne .L172
 1661 0056 EB01      		movw r28,r22
 1662 0058 2296      		adiw r28,2
 1663               	.L172:
 1664 005a 00E0      		ldi r16,lo8(.LC11)
 1665 005c 10E0      		ldi r17,hi8(.LC11)
 1666               	.L175:
 1667 005e 8881      		ld r24,Y
 1668 0060 8111      		cpse r24,__zero_reg__
 1669 0062 00C0      		rjmp .L173
 1670 0064 1F93      		push r17
 1671 0066 0F93      		push r16
 1672 0068 F701      		movw r30,r14
 1673 006a 8181      		ldd r24,Z+1
 1674 006c 8F93      		push r24
 1675 006e 8081      		ld r24,Z
 1676 0070 8F93      		push r24
 1677 0072 0E94 0000 		call luaL_error
GAS LISTING /tmp/cckNJFLm.s 			page 31


 1678 0076 0F90      		pop __tmp_reg__
 1679 0078 0F90      		pop __tmp_reg__
 1680 007a 0F90      		pop __tmp_reg__
 1681 007c 0F90      		pop __tmp_reg__
 1682               	.L173:
 1683 007e FE01      		movw r30,r28
 1684 0080 3196      		adiw r30,1
 1685 0082 2881      		ld r18,Y
 1686 0084 2532      		cpi r18,lo8(37)
 1687 0086 01F4      		brne .L174
 1688 0088 2981      		ldd r18,Y+1
 1689 008a 2111      		cpse r18,__zero_reg__
 1690 008c 3196      		adiw r30,1
 1691               	.L174:
 1692 008e 2081      		ld r18,Z
 1693 0090 2D35      		cpi r18,lo8(93)
 1694 0092 01F0      		breq .L183
 1695 0094 EF01      		movw r28,r30
 1696 0096 00C0      		rjmp .L175
 1697               	.L183:
 1698 0098 CF01      		movw r24,r30
 1699 009a 0196      		adiw r24,1
 1700 009c 00C0      		rjmp .L168
 1701               	.L182:
 1702 009e CE01      		movw r24,r28
 1703               	.L168:
 1704               	/* epilogue start */
 1705 00a0 DF91      		pop r29
 1706 00a2 CF91      		pop r28
 1707 00a4 1F91      		pop r17
 1708 00a6 0F91      		pop r16
 1709 00a8 FF90      		pop r15
 1710 00aa EF90      		pop r14
 1711 00ac 0895      		ret
 1712               		.size	classend.isra.0, .-classend.isra.0
 1713               		.section	.rodata.str1.1
 1714               	.LC12:
 1715 011c 696E 7661 		.string	"invalid capture index"
 1715      6C69 6420 
 1715      6361 7074 
 1715      7572 6520 
 1715      696E 6465 
 1716               	.LC13:
 1717 0132 756E 6669 		.string	"unfinished capture"
 1717      6E69 7368 
 1717      6564 2063 
 1717      6170 7475 
 1717      7265 00
 1718               		.section	.text.push_onecapture,"ax",@progbits
 1719               		.type	push_onecapture, @function
 1720               	push_onecapture:
 1721 0000 EF92      		push r14
 1722 0002 FF92      		push r15
 1723 0004 0F93      		push r16
 1724 0006 1F93      		push r17
 1725 0008 CF93      		push r28
 1726 000a DF93      		push r29
GAS LISTING /tmp/cckNJFLm.s 			page 32


 1727               	/* prologue: function */
 1728               	/* frame size = 0 */
 1729               	/* stack size = 6 */
 1730               	.L__stack_usage = 6
 1731 000c 8C01      		movw r16,r24
 1732 000e CA01      		movw r24,r20
 1733 0010 F801      		movw r30,r16
 1734 0012 4681      		ldd r20,Z+6
 1735 0014 5781      		ldd r21,Z+7
 1736 0016 6417      		cp r22,r20
 1737 0018 7507      		cpc r23,r21
 1738 001a 04F0      		brlt .L185
 1739 001c 672B      		or r22,r23
 1740 001e 01F4      		brne .L186
 1741 0020 A901      		movw r20,r18
 1742 0022 481B      		sub r20,r24
 1743 0024 590B      		sbc r21,r25
 1744 0026 BC01      		movw r22,r24
 1745 0028 00C0      		rjmp .L191
 1746               	.L186:
 1747 002a 80E0      		ldi r24,lo8(.LC12)
 1748 002c 90E0      		ldi r25,hi8(.LC12)
 1749 002e 9F93      		push r25
 1750 0030 8F93      		push r24
 1751 0032 F801      		movw r30,r16
 1752 0034 8581      		ldd r24,Z+5
 1753 0036 8F93      		push r24
 1754 0038 8481      		ldd r24,Z+4
 1755 003a 8F93      		push r24
 1756 003c 0E94 0000 		call luaL_error
 1757 0040 0F90      		pop __tmp_reg__
 1758 0042 0F90      		pop __tmp_reg__
 1759 0044 0F90      		pop __tmp_reg__
 1760 0046 0F90      		pop __tmp_reg__
 1761               	/* epilogue start */
 1762 0048 DF91      		pop r29
 1763 004a CF91      		pop r28
 1764 004c 1F91      		pop r17
 1765 004e 0F91      		pop r16
 1766 0050 FF90      		pop r15
 1767 0052 EF90      		pop r14
 1768 0054 0895      		ret
 1769               	.L185:
 1770 0056 FB01      		movw r30,r22
 1771 0058 EE0F      		lsl r30
 1772 005a FF1F      		rol r31
 1773 005c EE0F      		lsl r30
 1774 005e FF1F      		rol r31
 1775 0060 E00F      		add r30,r16
 1776 0062 F11F      		adc r31,r17
 1777 0064 E284      		ldd r14,Z+10
 1778 0066 F384      		ldd r15,Z+11
 1779 0068 EB01      		movw r28,r22
 1780 006a 2296      		adiw r28,2
 1781 006c FFEF      		ldi r31,-1
 1782 006e EF16      		cp r14,r31
 1783 0070 FF06      		cpc r15,r31
GAS LISTING /tmp/cckNJFLm.s 			page 33


 1784 0072 01F4      		brne .L188
 1785 0074 80E0      		ldi r24,lo8(.LC13)
 1786 0076 90E0      		ldi r25,hi8(.LC13)
 1787 0078 9F93      		push r25
 1788 007a 8F93      		push r24
 1789 007c F801      		movw r30,r16
 1790 007e 8581      		ldd r24,Z+5
 1791 0080 8F93      		push r24
 1792 0082 8481      		ldd r24,Z+4
 1793 0084 8F93      		push r24
 1794 0086 0E94 0000 		call luaL_error
 1795 008a 0F90      		pop __tmp_reg__
 1796 008c 0F90      		pop __tmp_reg__
 1797 008e 0F90      		pop __tmp_reg__
 1798 0090 0F90      		pop __tmp_reg__
 1799 0092 00C0      		rjmp .L189
 1800               	.L188:
 1801 0094 FEEF      		ldi r31,-2
 1802 0096 EF16      		cp r14,r31
 1803 0098 FFEF      		ldi r31,-1
 1804 009a FF06      		cpc r15,r31
 1805 009c 01F4      		brne .L189
 1806 009e CC0F      		lsl r28
 1807 00a0 DD1F      		rol r29
 1808 00a2 CC0F      		lsl r28
 1809 00a4 DD1F      		rol r29
 1810 00a6 C00F      		add r28,r16
 1811 00a8 D11F      		adc r29,r17
 1812 00aa 6881      		ld r22,Y
 1813 00ac 7981      		ldd r23,Y+1
 1814 00ae F801      		movw r30,r16
 1815 00b0 8081      		ld r24,Z
 1816 00b2 9181      		ldd r25,Z+1
 1817 00b4 681B      		sub r22,r24
 1818 00b6 790B      		sbc r23,r25
 1819 00b8 6F5F      		subi r22,-1
 1820 00ba 7F4F      		sbci r23,-1
 1821 00bc 8481      		ldd r24,Z+4
 1822 00be 9581      		ldd r25,Z+5
 1823               	/* epilogue start */
 1824 00c0 DF91      		pop r29
 1825 00c2 CF91      		pop r28
 1826 00c4 1F91      		pop r17
 1827 00c6 0F91      		pop r16
 1828 00c8 FF90      		pop r15
 1829 00ca EF90      		pop r14
 1830 00cc 0C94 0000 		jmp lua_pushinteger
 1831               	.L189:
 1832 00d0 CC0F      		lsl r28
 1833 00d2 DD1F      		rol r29
 1834 00d4 CC0F      		lsl r28
 1835 00d6 DD1F      		rol r29
 1836 00d8 C00F      		add r28,r16
 1837 00da D11F      		adc r29,r17
 1838 00dc 6881      		ld r22,Y
 1839 00de 7981      		ldd r23,Y+1
 1840 00e0 A701      		movw r20,r14
GAS LISTING /tmp/cckNJFLm.s 			page 34


 1841 00e2 F801      		movw r30,r16
 1842               	.L191:
 1843 00e4 8481      		ldd r24,Z+4
 1844 00e6 9581      		ldd r25,Z+5
 1845               	/* epilogue start */
 1846 00e8 DF91      		pop r29
 1847 00ea CF91      		pop r28
 1848 00ec 1F91      		pop r17
 1849 00ee 0F91      		pop r16
 1850 00f0 FF90      		pop r15
 1851 00f2 EF90      		pop r14
 1852 00f4 0C94 0000 		jmp lua_pushlstring
 1853               		.size	push_onecapture, .-push_onecapture
 1854               		.section	.rodata.str1.1
 1855               	.LC14:
 1856 0145 746F 6F20 		.string	"too many captures"
 1856      6D61 6E79 
 1856      2063 6170 
 1856      7475 7265 
 1856      7300 
 1857               		.section	.text.push_captures,"ax",@progbits
 1858               		.type	push_captures, @function
 1859               	push_captures:
 1860 0000 AF92      		push r10
 1861 0002 BF92      		push r11
 1862 0004 CF92      		push r12
 1863 0006 DF92      		push r13
 1864 0008 EF92      		push r14
 1865 000a FF92      		push r15
 1866 000c 0F93      		push r16
 1867 000e 1F93      		push r17
 1868 0010 CF93      		push r28
 1869 0012 DF93      		push r29
 1870               	/* prologue: function */
 1871               	/* frame size = 0 */
 1872               	/* stack size = 10 */
 1873               	.L__stack_usage = 10
 1874 0014 7C01      		movw r14,r24
 1875 0016 6B01      		movw r12,r22
 1876 0018 5A01      		movw r10,r20
 1877 001a FC01      		movw r30,r24
 1878 001c C681      		ldd r28,Z+6
 1879 001e D781      		ldd r29,Z+7
 1880 0020 2097      		sbiw r28,0
 1881 0022 01F4      		brne .L193
 1882 0024 91E0      		ldi r25,lo8(1)
 1883 0026 80E0      		ldi r24,0
 1884 0028 672B      		or r22,r23
 1885 002a 01F4      		brne .L194
 1886 002c 90E0      		ldi r25,0
 1887               	.L194:
 1888 002e C92F      		mov r28,r25
 1889 0030 D82F      		mov r29,r24
 1890               	.L193:
 1891 0032 40E0      		ldi r20,lo8(.LC14)
 1892 0034 50E0      		ldi r21,hi8(.LC14)
 1893 0036 BE01      		movw r22,r28
GAS LISTING /tmp/cckNJFLm.s 			page 35


 1894 0038 F701      		movw r30,r14
 1895 003a 8481      		ldd r24,Z+4
 1896 003c 9581      		ldd r25,Z+5
 1897 003e 0E94 0000 		call luaL_checkstack
 1898 0042 00E0      		ldi r16,0
 1899 0044 10E0      		ldi r17,0
 1900               	.L195:
 1901 0046 0C17      		cp r16,r28
 1902 0048 1D07      		cpc r17,r29
 1903 004a 04F4      		brge .L197
 1904 004c 9501      		movw r18,r10
 1905 004e A601      		movw r20,r12
 1906 0050 B801      		movw r22,r16
 1907 0052 C701      		movw r24,r14
 1908 0054 0E94 0000 		call push_onecapture
 1909 0058 0F5F      		subi r16,-1
 1910 005a 1F4F      		sbci r17,-1
 1911 005c 00C0      		rjmp .L195
 1912               	.L197:
 1913 005e CE01      		movw r24,r28
 1914               	/* epilogue start */
 1915 0060 DF91      		pop r29
 1916 0062 CF91      		pop r28
 1917 0064 1F91      		pop r17
 1918 0066 0F91      		pop r16
 1919 0068 FF90      		pop r15
 1920 006a EF90      		pop r14
 1921 006c DF90      		pop r13
 1922 006e CF90      		pop r12
 1923 0070 BF90      		pop r11
 1924 0072 AF90      		pop r10
 1925 0074 0895      		ret
 1926               		.size	push_captures, .-push_captures
 1927               		.section	.text.singlematch,"ax",@progbits
 1928               		.type	singlematch, @function
 1929               	singlematch:
 1930               	/* prologue: function */
 1931               	/* frame size = 0 */
 1932               	/* stack size = 0 */
 1933               	.L__stack_usage = 0
 1934 0000 FB01      		movw r30,r22
 1935 0002 2081      		ld r18,Z
 1936 0004 2E32      		cpi r18,lo8(46)
 1937 0006 01F0      		breq .L204
 1938 0008 2B35      		cpi r18,lo8(91)
 1939 000a 01F0      		breq .L201
 1940 000c 2532      		cpi r18,lo8(37)
 1941 000e 01F4      		brne .L205
 1942 0010 6181      		ldd r22,Z+1
 1943 0012 70E0      		ldi r23,0
 1944 0014 0C94 0000 		jmp match_class
 1945               	.L201:
 1946 0018 4150      		subi r20,1
 1947 001a 5109      		sbc r21,__zero_reg__
 1948 001c 0C94 0000 		jmp matchbracketclass
 1949               	.L205:
 1950 0020 30E0      		ldi r19,0
GAS LISTING /tmp/cckNJFLm.s 			page 36


 1951 0022 41E0      		ldi r20,lo8(1)
 1952 0024 50E0      		ldi r21,0
 1953 0026 2817      		cp r18,r24
 1954 0028 3907      		cpc r19,r25
 1955 002a 01F0      		breq .L203
 1956 002c 40E0      		ldi r20,0
 1957               	.L203:
 1958 002e CA01      		movw r24,r20
 1959 0030 0895      		ret
 1960               	.L204:
 1961 0032 81E0      		ldi r24,lo8(1)
 1962 0034 90E0      		ldi r25,0
 1963 0036 0895      		ret
 1964               		.size	singlematch, .-singlematch
 1965               		.section	.rodata.str1.1
 1966               	.LC15:
 1967 0157 00        		.string	""
 1968               		.section	.text.str_sub,"ax",@progbits
 1969               		.type	str_sub, @function
 1970               	str_sub:
 1971 0000 AF92      		push r10
 1972 0002 BF92      		push r11
 1973 0004 CF92      		push r12
 1974 0006 DF92      		push r13
 1975 0008 EF92      		push r14
 1976 000a FF92      		push r15
 1977 000c 0F93      		push r16
 1978 000e 1F93      		push r17
 1979 0010 CF93      		push r28
 1980 0012 DF93      		push r29
 1981 0014 1F92      		push __zero_reg__
 1982 0016 1F92      		push __zero_reg__
 1983 0018 CDB7      		in r28,__SP_L__
 1984 001a DEB7      		in r29,__SP_H__
 1985               	/* prologue: function */
 1986               	/* frame size = 2 */
 1987               	/* stack size = 12 */
 1988               	.L__stack_usage = 12
 1989 001c 7C01      		movw r14,r24
 1990 001e AE01      		movw r20,r28
 1991 0020 4F5F      		subi r20,-1
 1992 0022 5F4F      		sbci r21,-1
 1993 0024 61E0      		ldi r22,lo8(1)
 1994 0026 70E0      		ldi r23,0
 1995 0028 0E94 0000 		call luaL_checklstring
 1996 002c 6C01      		movw r12,r24
 1997 002e 0981      		ldd r16,Y+1
 1998 0030 1A81      		ldd r17,Y+2
 1999 0032 62E0      		ldi r22,lo8(2)
 2000 0034 70E0      		ldi r23,0
 2001 0036 C701      		movw r24,r14
 2002 0038 0E94 0000 		call luaL_checkinteger
 2003 003c 97FF      		sbrs r25,7
 2004 003e 00C0      		rjmp .L207
 2005 0040 0F5F      		subi r16,-1
 2006 0042 1F4F      		sbci r17,-1
 2007 0044 800F      		add r24,r16
GAS LISTING /tmp/cckNJFLm.s 			page 37


 2008 0046 911F      		adc r25,r17
 2009               	.L207:
 2010 0048 8C01      		movw r16,r24
 2011 004a 97FF      		sbrs r25,7
 2012 004c 00C0      		rjmp .L208
 2013 004e 00E0      		ldi r16,0
 2014 0050 10E0      		ldi r17,0
 2015               	.L208:
 2016 0052 A980      		ldd r10,Y+1
 2017 0054 BA80      		ldd r11,Y+2
 2018 0056 4FEF      		ldi r20,lo8(-1)
 2019 0058 5FEF      		ldi r21,lo8(-1)
 2020 005a 63E0      		ldi r22,lo8(3)
 2021 005c 70E0      		ldi r23,0
 2022 005e C701      		movw r24,r14
 2023 0060 0E94 0000 		call luaL_optinteger
 2024 0064 97FF      		sbrs r25,7
 2025 0066 00C0      		rjmp .L209
 2026 0068 2FEF      		ldi r18,-1
 2027 006a A21A      		sub r10,r18
 2028 006c B20A      		sbc r11,r18
 2029 006e 8A0D      		add r24,r10
 2030 0070 9B1D      		adc r25,r11
 2031               	.L209:
 2032 0072 97FF      		sbrs r25,7
 2033 0074 00C0      		rjmp .L210
 2034 0076 80E0      		ldi r24,0
 2035 0078 90E0      		ldi r25,0
 2036               	.L210:
 2037 007a 0115      		cp r16,__zero_reg__
 2038 007c 1105      		cpc r17,__zero_reg__
 2039 007e 01F4      		brne .L211
 2040 0080 01E0      		ldi r16,lo8(1)
 2041 0082 10E0      		ldi r17,0
 2042               	.L211:
 2043 0084 4981      		ldd r20,Y+1
 2044 0086 5A81      		ldd r21,Y+2
 2045 0088 8417      		cp r24,r20
 2046 008a 9507      		cpc r25,r21
 2047 008c 04F4      		brge .L212
 2048 008e AC01      		movw r20,r24
 2049               	.L212:
 2050 0090 4017      		cp r20,r16
 2051 0092 5107      		cpc r21,r17
 2052 0094 04F0      		brlt .L213
 2053 0096 401B      		sub r20,r16
 2054 0098 510B      		sbc r21,r17
 2055 009a 4F5F      		subi r20,-1
 2056 009c 5F4F      		sbci r21,-1
 2057 009e B801      		movw r22,r16
 2058 00a0 6150      		subi r22,1
 2059 00a2 7109      		sbc r23,__zero_reg__
 2060 00a4 6C0D      		add r22,r12
 2061 00a6 7D1D      		adc r23,r13
 2062 00a8 00C0      		rjmp .L215
 2063               	.L213:
 2064 00aa 40E0      		ldi r20,0
GAS LISTING /tmp/cckNJFLm.s 			page 38


 2065 00ac 50E0      		ldi r21,0
 2066 00ae 60E0      		ldi r22,lo8(.LC15)
 2067 00b0 70E0      		ldi r23,hi8(.LC15)
 2068               	.L215:
 2069 00b2 C701      		movw r24,r14
 2070 00b4 0E94 0000 		call lua_pushlstring
 2071 00b8 81E0      		ldi r24,lo8(1)
 2072 00ba 90E0      		ldi r25,0
 2073               	/* epilogue start */
 2074 00bc 0F90      		pop __tmp_reg__
 2075 00be 0F90      		pop __tmp_reg__
 2076 00c0 DF91      		pop r29
 2077 00c2 CF91      		pop r28
 2078 00c4 1F91      		pop r17
 2079 00c6 0F91      		pop r16
 2080 00c8 FF90      		pop r15
 2081 00ca EF90      		pop r14
 2082 00cc DF90      		pop r13
 2083 00ce CF90      		pop r12
 2084 00d0 BF90      		pop r11
 2085 00d2 AF90      		pop r10
 2086 00d4 0895      		ret
 2087               		.size	str_sub, .-str_sub
 2088               		.section	.rodata.str1.1
 2089               	.LC16:
 2090 0158 7374 7269 		.string	"string slice too long"
 2090      6E67 2073 
 2090      6C69 6365 
 2090      2074 6F6F 
 2090      206C 6F6E 
 2091               		.section	.text.str_byte,"ax",@progbits
 2092               		.type	str_byte, @function
 2093               	str_byte:
 2094 0000 AF92      		push r10
 2095 0002 BF92      		push r11
 2096 0004 CF92      		push r12
 2097 0006 DF92      		push r13
 2098 0008 EF92      		push r14
 2099 000a FF92      		push r15
 2100 000c 0F93      		push r16
 2101 000e 1F93      		push r17
 2102 0010 CF93      		push r28
 2103 0012 DF93      		push r29
 2104 0014 1F92      		push __zero_reg__
 2105 0016 1F92      		push __zero_reg__
 2106 0018 CDB7      		in r28,__SP_L__
 2107 001a DEB7      		in r29,__SP_H__
 2108               	/* prologue: function */
 2109               	/* frame size = 2 */
 2110               	/* stack size = 12 */
 2111               	.L__stack_usage = 12
 2112 001c B82E      		mov r11,r24
 2113 001e A92E      		mov r10,r25
 2114 0020 AE01      		movw r20,r28
 2115 0022 4F5F      		subi r20,-1
 2116 0024 5F4F      		sbci r21,-1
 2117 0026 61E0      		ldi r22,lo8(1)
GAS LISTING /tmp/cckNJFLm.s 			page 39


 2118 0028 70E0      		ldi r23,0
 2119 002a 0E94 0000 		call luaL_checklstring
 2120 002e 6C01      		movw r12,r24
 2121 0030 0981      		ldd r16,Y+1
 2122 0032 1A81      		ldd r17,Y+2
 2123 0034 41E0      		ldi r20,lo8(1)
 2124 0036 50E0      		ldi r21,0
 2125 0038 62E0      		ldi r22,lo8(2)
 2126 003a 70E0      		ldi r23,0
 2127 003c 8B2D      		mov r24,r11
 2128 003e 9A2D      		mov r25,r10
 2129 0040 0E94 0000 		call luaL_optinteger
 2130 0044 97FF      		sbrs r25,7
 2131 0046 00C0      		rjmp .L217
 2132 0048 0F5F      		subi r16,-1
 2133 004a 1F4F      		sbci r17,-1
 2134 004c 800F      		add r24,r16
 2135 004e 911F      		adc r25,r17
 2136               	.L217:
 2137 0050 8C01      		movw r16,r24
 2138 0052 97FF      		sbrs r25,7
 2139 0054 00C0      		rjmp .L218
 2140 0056 00E0      		ldi r16,0
 2141 0058 10E0      		ldi r17,0
 2142               	.L218:
 2143 005a E980      		ldd r14,Y+1
 2144 005c FA80      		ldd r15,Y+2
 2145 005e A801      		movw r20,r16
 2146 0060 63E0      		ldi r22,lo8(3)
 2147 0062 70E0      		ldi r23,0
 2148 0064 8B2D      		mov r24,r11
 2149 0066 9A2D      		mov r25,r10
 2150 0068 0E94 0000 		call luaL_optinteger
 2151 006c 97FF      		sbrs r25,7
 2152 006e 00C0      		rjmp .L219
 2153 0070 2FEF      		ldi r18,-1
 2154 0072 E21A      		sub r14,r18
 2155 0074 F20A      		sbc r15,r18
 2156 0076 8E0D      		add r24,r14
 2157 0078 9F1D      		adc r25,r15
 2158               	.L219:
 2159 007a 97FF      		sbrs r25,7
 2160 007c 00C0      		rjmp .L220
 2161 007e 80E0      		ldi r24,0
 2162 0080 90E0      		ldi r25,0
 2163               	.L220:
 2164 0082 0115      		cp r16,__zero_reg__
 2165 0084 1105      		cpc r17,__zero_reg__
 2166 0086 01F4      		brne .L221
 2167 0088 01E0      		ldi r16,lo8(1)
 2168 008a 10E0      		ldi r17,0
 2169               	.L221:
 2170 008c 2981      		ldd r18,Y+1
 2171 008e 3A81      		ldd r19,Y+2
 2172 0090 2817      		cp r18,r24
 2173 0092 3907      		cpc r19,r25
 2174 0094 00F4      		brsh .L222
GAS LISTING /tmp/cckNJFLm.s 			page 40


 2175 0096 C901      		movw r24,r18
 2176               	.L222:
 2177 0098 8017      		cp r24,r16
 2178 009a 9107      		cpc r25,r17
 2179 009c 04F0      		brlt .L227
 2180 009e 7C01      		movw r14,r24
 2181 00a0 E01A      		sub r14,r16
 2182 00a2 F10A      		sbc r15,r17
 2183 00a4 EFEF      		ldi r30,-1
 2184 00a6 EE1A      		sub r14,r30
 2185 00a8 FE0A      		sbc r15,r30
 2186 00aa 9801      		movw r18,r16
 2187 00ac 2E0D      		add r18,r14
 2188 00ae 3F1D      		adc r19,r15
 2189 00b0 8217      		cp r24,r18
 2190 00b2 9307      		cpc r25,r19
 2191 00b4 04F0      		brlt .L224
 2192 00b6 80E0      		ldi r24,lo8(.LC16)
 2193 00b8 90E0      		ldi r25,hi8(.LC16)
 2194 00ba 9F93      		push r25
 2195 00bc 8F93      		push r24
 2196 00be AF92      		push r10
 2197 00c0 BF92      		push r11
 2198 00c2 0E94 0000 		call luaL_error
 2199 00c6 0F90      		pop __tmp_reg__
 2200 00c8 0F90      		pop __tmp_reg__
 2201 00ca 0F90      		pop __tmp_reg__
 2202 00cc 0F90      		pop __tmp_reg__
 2203               	.L224:
 2204 00ce 40E0      		ldi r20,lo8(.LC16)
 2205 00d0 50E0      		ldi r21,hi8(.LC16)
 2206 00d2 B701      		movw r22,r14
 2207 00d4 8B2D      		mov r24,r11
 2208 00d6 9A2D      		mov r25,r10
 2209 00d8 0E94 0000 		call luaL_checkstack
 2210 00dc 0150      		subi r16,1
 2211 00de 1109      		sbc r17,__zero_reg__
 2212 00e0 0C0D      		add r16,r12
 2213 00e2 1D1D      		adc r17,r13
 2214 00e4 C12C      		mov r12,__zero_reg__
 2215 00e6 D12C      		mov r13,__zero_reg__
 2216               	.L225:
 2217 00e8 CE14      		cp r12,r14
 2218 00ea DF04      		cpc r13,r15
 2219 00ec 04F4      		brge .L228
 2220 00ee F801      		movw r30,r16
 2221 00f0 6191      		ld r22,Z+
 2222 00f2 8F01      		movw r16,r30
 2223 00f4 70E0      		ldi r23,0
 2224 00f6 8B2D      		mov r24,r11
 2225 00f8 9A2D      		mov r25,r10
 2226 00fa 0E94 0000 		call lua_pushinteger
 2227 00fe FFEF      		ldi r31,-1
 2228 0100 CF1A      		sub r12,r31
 2229 0102 DF0A      		sbc r13,r31
 2230 0104 00C0      		rjmp .L225
 2231               	.L228:
GAS LISTING /tmp/cckNJFLm.s 			page 41


 2232 0106 C701      		movw r24,r14
 2233 0108 00C0      		rjmp .L223
 2234               	.L227:
 2235 010a 80E0      		ldi r24,0
 2236 010c 90E0      		ldi r25,0
 2237               	.L223:
 2238               	/* epilogue start */
 2239 010e 0F90      		pop __tmp_reg__
 2240 0110 0F90      		pop __tmp_reg__
 2241 0112 DF91      		pop r29
 2242 0114 CF91      		pop r28
 2243 0116 1F91      		pop r17
 2244 0118 0F91      		pop r16
 2245 011a FF90      		pop r15
 2246 011c EF90      		pop r14
 2247 011e DF90      		pop r13
 2248 0120 CF90      		pop r12
 2249 0122 BF90      		pop r11
 2250 0124 AF90      		pop r10
 2251 0126 0895      		ret
 2252               		.size	str_byte, .-str_byte
 2253               		.section	.rodata.str1.1
 2254               	.LC17:
 2255 016e 696E 7661 		.string	"invalid pattern capture"
 2255      6C69 6420 
 2255      7061 7474 
 2255      6572 6E20 
 2255      6361 7074 
 2256               	.LC18:
 2257 0186 756E 6261 		.string	"unbalanced pattern"
 2257      6C61 6E63 
 2257      6564 2070 
 2257      6174 7465 
 2257      726E 00
 2258               	.LC19:
 2259 0199 6D69 7373 		.string	"missing '[' after '%%f' in pattern"
 2259      696E 6720 
 2259      275B 2720 
 2259      6166 7465 
 2259      7220 2725 
 2260               		.section	.text.match,"ax",@progbits
 2261               		.type	match, @function
 2262               	match:
 2263 0000 2F92      		push r2
 2264 0002 3F92      		push r3
 2265 0004 4F92      		push r4
 2266 0006 5F92      		push r5
 2267 0008 6F92      		push r6
 2268 000a 7F92      		push r7
 2269 000c 8F92      		push r8
 2270 000e 9F92      		push r9
 2271 0010 AF92      		push r10
 2272 0012 BF92      		push r11
 2273 0014 CF92      		push r12
 2274 0016 DF92      		push r13
 2275 0018 EF92      		push r14
 2276 001a FF92      		push r15
GAS LISTING /tmp/cckNJFLm.s 			page 42


 2277 001c 0F93      		push r16
 2278 001e 1F93      		push r17
 2279 0020 CF93      		push r28
 2280 0022 DF93      		push r29
 2281               	/* prologue: function */
 2282               	/* frame size = 0 */
 2283               	/* stack size = 18 */
 2284               	.L__stack_usage = 18
 2285 0024 EC01      		movw r28,r24
 2286 0026 8B01      		movw r16,r22
 2287 0028 7A01      		movw r14,r20
 2288 002a 5C01      		movw r10,r24
 2289 002c 24E0      		ldi r18,4
 2290 002e A20E      		add r10,r18
 2291 0030 B11C      		adc r11,__zero_reg__
 2292 0032 20E0      		ldi r18,lo8(.LC18)
 2293 0034 222E      		mov r2,r18
 2294 0036 20E0      		ldi r18,hi8(.LC18)
 2295 0038 322E      		mov r3,r18
 2296 003a 30E0      		ldi r19,lo8(.LC12)
 2297 003c 432E      		mov r4,r19
 2298 003e 30E0      		ldi r19,hi8(.LC12)
 2299 0040 532E      		mov r5,r19
 2300 0042 40E0      		ldi r20,lo8(.LC19)
 2301 0044 842E      		mov r8,r20
 2302 0046 40E0      		ldi r20,hi8(.LC19)
 2303 0048 942E      		mov r9,r20
 2304               	.L230:
 2305 004a F701      		movw r30,r14
 2306 004c 8081      		ld r24,Z
 2307 004e 8532      		cpi r24,lo8(37)
 2308 0050 01F4      		brne .+2
 2309 0052 00C0      		rjmp .L232
 2310 0054 04F4      		brge .L233
 2311 0056 8823      		tst r24
 2312 0058 01F4      		brne .+2
 2313 005a 00C0      		rjmp .L271
 2314 005c 8432      		cpi r24,lo8(36)
 2315 005e 01F4      		brne .+2
 2316 0060 00C0      		rjmp .L235
 2317 0062 00C0      		rjmp .L231
 2318               	.L233:
 2319 0064 8832      		cpi r24,lo8(40)
 2320 0066 01F0      		breq .L236
 2321 0068 8932      		cpi r24,lo8(41)
 2322 006a 01F0      		breq .+2
 2323 006c 00C0      		rjmp .L231
 2324 006e 8FEF      		ldi r24,-1
 2325 0070 E81A      		sub r14,r24
 2326 0072 F80A      		sbc r15,r24
 2327 0074 EE81      		ldd r30,Y+6
 2328 0076 FF81      		ldd r31,Y+7
 2329 0078 CF01      		movw r24,r30
 2330 007a 0197      		sbiw r24,1
 2331 007c EE0F      		lsl r30
 2332 007e FF1F      		rol r31
 2333 0080 EE0F      		lsl r30
GAS LISTING /tmp/cckNJFLm.s 			page 43


 2334 0082 FF1F      		rol r31
 2335 0084 3696      		adiw r30,6
 2336 0086 EC0F      		add r30,r28
 2337 0088 FD1F      		adc r31,r29
 2338 008a 00C0      		rjmp .L241
 2339               	.L236:
 2340 008c F701      		movw r30,r14
 2341 008e 8181      		ldd r24,Z+1
 2342 0090 CE80      		ldd r12,Y+6
 2343 0092 DF80      		ldd r13,Y+7
 2344 0094 8932      		cpi r24,lo8(41)
 2345 0096 01F4      		brne .L238
 2346 0098 F2E0      		ldi r31,2
 2347 009a EF0E      		add r14,r31
 2348 009c F11C      		adc r15,__zero_reg__
 2349 009e 20E2      		ldi r18,32
 2350 00a0 C216      		cp r12,r18
 2351 00a2 D104      		cpc r13,__zero_reg__
 2352 00a4 04F0      		brlt .L239
 2353 00a6 80E0      		ldi r24,lo8(.LC14)
 2354 00a8 90E0      		ldi r25,hi8(.LC14)
 2355 00aa 9F93      		push r25
 2356 00ac 8F93      		push r24
 2357 00ae 8D81      		ldd r24,Y+5
 2358 00b0 8F93      		push r24
 2359 00b2 8C81      		ldd r24,Y+4
 2360 00b4 8F93      		push r24
 2361 00b6 0E94 0000 		call luaL_error
 2362 00ba 0F90      		pop __tmp_reg__
 2363 00bc 0F90      		pop __tmp_reg__
 2364 00be 0F90      		pop __tmp_reg__
 2365 00c0 0F90      		pop __tmp_reg__
 2366               	.L239:
 2367 00c2 F601      		movw r30,r12
 2368 00c4 3296      		adiw r30,2
 2369 00c6 EE0F      		lsl r30
 2370 00c8 FF1F      		rol r31
 2371 00ca EE0F      		lsl r30
 2372 00cc FF1F      		rol r31
 2373 00ce EC0F      		add r30,r28
 2374 00d0 FD1F      		adc r31,r29
 2375 00d2 1183      		std Z+1,r17
 2376 00d4 0083      		st Z,r16
 2377 00d6 F601      		movw r30,r12
 2378 00d8 EE0F      		lsl r30
 2379 00da FF1F      		rol r31
 2380 00dc EE0F      		lsl r30
 2381 00de FF1F      		rol r31
 2382 00e0 EC0F      		add r30,r28
 2383 00e2 FD1F      		adc r31,r29
 2384 00e4 8EEF      		ldi r24,lo8(-2)
 2385 00e6 9FEF      		ldi r25,lo8(-1)
 2386 00e8 00C0      		rjmp .L308
 2387               	.L238:
 2388 00ea 3FEF      		ldi r19,-1
 2389 00ec E31A      		sub r14,r19
 2390 00ee F30A      		sbc r15,r19
GAS LISTING /tmp/cckNJFLm.s 			page 44


 2391 00f0 40E2      		ldi r20,32
 2392 00f2 C416      		cp r12,r20
 2393 00f4 D104      		cpc r13,__zero_reg__
 2394 00f6 04F0      		brlt .L240
 2395 00f8 80E0      		ldi r24,lo8(.LC14)
 2396 00fa 90E0      		ldi r25,hi8(.LC14)
 2397 00fc 9F93      		push r25
 2398 00fe 8F93      		push r24
 2399 0100 8D81      		ldd r24,Y+5
 2400 0102 8F93      		push r24
 2401 0104 8C81      		ldd r24,Y+4
 2402 0106 8F93      		push r24
 2403 0108 0E94 0000 		call luaL_error
 2404 010c 0F90      		pop __tmp_reg__
 2405 010e 0F90      		pop __tmp_reg__
 2406 0110 0F90      		pop __tmp_reg__
 2407 0112 0F90      		pop __tmp_reg__
 2408               	.L240:
 2409 0114 F601      		movw r30,r12
 2410 0116 3296      		adiw r30,2
 2411 0118 EE0F      		lsl r30
 2412 011a FF1F      		rol r31
 2413 011c EE0F      		lsl r30
 2414 011e FF1F      		rol r31
 2415 0120 EC0F      		add r30,r28
 2416 0122 FD1F      		adc r31,r29
 2417 0124 1183      		std Z+1,r17
 2418 0126 0083      		st Z,r16
 2419 0128 F601      		movw r30,r12
 2420 012a EE0F      		lsl r30
 2421 012c FF1F      		rol r31
 2422 012e EE0F      		lsl r30
 2423 0130 FF1F      		rol r31
 2424 0132 EC0F      		add r30,r28
 2425 0134 FD1F      		adc r31,r29
 2426 0136 8FEF      		ldi r24,lo8(-1)
 2427 0138 9FEF      		ldi r25,lo8(-1)
 2428               	.L308:
 2429 013a 9387      		std Z+11,r25
 2430 013c 8287      		std Z+10,r24
 2431 013e C601      		movw r24,r12
 2432 0140 0196      		adiw r24,1
 2433 0142 9F83      		std Y+7,r25
 2434 0144 8E83      		std Y+6,r24
 2435 0146 A701      		movw r20,r14
 2436 0148 B801      		movw r22,r16
 2437 014a CE01      		movw r24,r28
 2438 014c 0E94 0000 		call match
 2439 0150 0097      		sbiw r24,0
 2440 0152 01F0      		breq .+2
 2441 0154 00C0      		rjmp .L234
 2442 0156 8E81      		ldd r24,Y+6
 2443 0158 9F81      		ldd r25,Y+7
 2444 015a 0197      		sbiw r24,1
 2445 015c 9F83      		std Y+7,r25
 2446 015e 8E83      		std Y+6,r24
 2447 0160 00C0      		rjmp .L249
GAS LISTING /tmp/cckNJFLm.s 			page 45


 2448               	.L243:
 2449 0162 3497      		sbiw r30,4
 2450 0164 2481      		ldd r18,Z+4
 2451 0166 3581      		ldd r19,Z+5
 2452 0168 2F3F      		cpi r18,-1
 2453 016a 3F4F      		sbci r19,-1
 2454 016c 01F0      		breq .L242
 2455 016e 0197      		sbiw r24,1
 2456               	.L241:
 2457 0170 97FF      		sbrs r25,7
 2458 0172 00C0      		rjmp .L243
 2459 0174 80E0      		ldi r24,lo8(.LC17)
 2460 0176 90E0      		ldi r25,hi8(.LC17)
 2461 0178 9F93      		push r25
 2462 017a 8F93      		push r24
 2463 017c 8D81      		ldd r24,Y+5
 2464 017e 8F93      		push r24
 2465 0180 8C81      		ldd r24,Y+4
 2466 0182 8F93      		push r24
 2467 0184 0E94 0000 		call luaL_error
 2468 0188 0F90      		pop __tmp_reg__
 2469 018a 0F90      		pop __tmp_reg__
 2470 018c 0F90      		pop __tmp_reg__
 2471 018e 0F90      		pop __tmp_reg__
 2472               	.L242:
 2473 0190 6C01      		movw r12,r24
 2474 0192 CC0C      		lsl r12
 2475 0194 DD1C      		rol r13
 2476 0196 CC0C      		lsl r12
 2477 0198 DD1C      		rol r13
 2478 019a CC0E      		add r12,r28
 2479 019c DD1E      		adc r13,r29
 2480 019e 0296      		adiw r24,2
 2481 01a0 880F      		lsl r24
 2482 01a2 991F      		rol r25
 2483 01a4 880F      		lsl r24
 2484 01a6 991F      		rol r25
 2485 01a8 FE01      		movw r30,r28
 2486 01aa E80F      		add r30,r24
 2487 01ac F91F      		adc r31,r25
 2488 01ae 8081      		ld r24,Z
 2489 01b0 9181      		ldd r25,Z+1
 2490 01b2 F801      		movw r30,r16
 2491 01b4 E81B      		sub r30,r24
 2492 01b6 F90B      		sbc r31,r25
 2493 01b8 CF01      		movw r24,r30
 2494 01ba F601      		movw r30,r12
 2495 01bc 9387      		std Z+11,r25
 2496 01be 8287      		std Z+10,r24
 2497 01c0 A701      		movw r20,r14
 2498 01c2 B801      		movw r22,r16
 2499 01c4 CE01      		movw r24,r28
 2500 01c6 0E94 0000 		call match
 2501 01ca 0097      		sbiw r24,0
 2502 01cc 01F0      		breq .+2
 2503 01ce 00C0      		rjmp .L234
 2504 01d0 8FEF      		ldi r24,lo8(-1)
GAS LISTING /tmp/cckNJFLm.s 			page 46


 2505 01d2 9FEF      		ldi r25,lo8(-1)
 2506 01d4 F601      		movw r30,r12
 2507 01d6 9387      		std Z+11,r25
 2508 01d8 8287      		std Z+10,r24
 2509 01da 00C0      		rjmp .L249
 2510               	.L232:
 2511 01dc F701      		movw r30,r14
 2512 01de 8181      		ldd r24,Z+1
 2513 01e0 8236      		cpi r24,lo8(98)
 2514 01e2 01F0      		breq .L245
 2515 01e4 8636      		cpi r24,lo8(102)
 2516 01e6 01F0      		breq .L246
 2517 01e8 00C0      		rjmp .L309
 2518               	.L245:
 2519 01ea F701      		movw r30,r14
 2520 01ec 8281      		ldd r24,Z+2
 2521 01ee 8823      		tst r24
 2522 01f0 01F0      		breq .L247
 2523 01f2 8381      		ldd r24,Z+3
 2524 01f4 8111      		cpse r24,__zero_reg__
 2525 01f6 00C0      		rjmp .L248
 2526               	.L247:
 2527 01f8 3F92      		push r3
 2528 01fa 2F92      		push r2
 2529 01fc 8D81      		ldd r24,Y+5
 2530 01fe 8F93      		push r24
 2531 0200 8C81      		ldd r24,Y+4
 2532 0202 8F93      		push r24
 2533 0204 0E94 0000 		call luaL_error
 2534 0208 0F90      		pop __tmp_reg__
 2535 020a 0F90      		pop __tmp_reg__
 2536 020c 0F90      		pop __tmp_reg__
 2537 020e 0F90      		pop __tmp_reg__
 2538               	.L248:
 2539 0210 F801      		movw r30,r16
 2540 0212 4081      		ld r20,Z
 2541 0214 F701      		movw r30,r14
 2542 0216 8281      		ldd r24,Z+2
 2543 0218 4813      		cpse r20,r24
 2544 021a 00C0      		rjmp .L249
 2545 021c 6381      		ldd r22,Z+3
 2546 021e 2A81      		ldd r18,Y+2
 2547 0220 3B81      		ldd r19,Y+3
 2548 0222 F801      		movw r30,r16
 2549 0224 3196      		adiw r30,1
 2550 0226 81E0      		ldi r24,lo8(1)
 2551 0228 90E0      		ldi r25,0
 2552               	.L250:
 2553 022a 8F01      		movw r16,r30
 2554 022c E217      		cp r30,r18
 2555 022e F307      		cpc r31,r19
 2556 0230 00F0      		brlo .+2
 2557 0232 00C0      		rjmp .L249
 2558 0234 5191      		ld r21,Z+
 2559 0236 6513      		cpse r22,r21
 2560 0238 00C0      		rjmp .L251
 2561 023a 0197      		sbiw r24,1
GAS LISTING /tmp/cckNJFLm.s 			page 47


 2562 023c 01F4      		brne .L250
 2563 023e 0F5F      		subi r16,-1
 2564 0240 1F4F      		sbci r17,-1
 2565 0242 01F4      		brne .+2
 2566 0244 00C0      		rjmp .L249
 2567 0246 3701      		movw r6,r14
 2568 0248 F4E0      		ldi r31,4
 2569 024a 6F0E      		add r6,r31
 2570 024c 711C      		adc r7,__zero_reg__
 2571               	.L255:
 2572 024e 7301      		movw r14,r6
 2573 0250 00C0      		rjmp .L230
 2574               	.L251:
 2575 0252 4513      		cpse r20,r21
 2576 0254 00C0      		rjmp .L250
 2577 0256 0196      		adiw r24,1
 2578 0258 00C0      		rjmp .L250
 2579               	.L246:
 2580 025a 6701      		movw r12,r14
 2581 025c 22E0      		ldi r18,2
 2582 025e C20E      		add r12,r18
 2583 0260 D11C      		adc r13,__zero_reg__
 2584 0262 F701      		movw r30,r14
 2585 0264 8281      		ldd r24,Z+2
 2586 0266 8B35      		cpi r24,lo8(91)
 2587 0268 01F0      		breq .L256
 2588 026a 9F92      		push r9
 2589 026c 8F92      		push r8
 2590 026e 8D81      		ldd r24,Y+5
 2591 0270 8F93      		push r24
 2592 0272 8C81      		ldd r24,Y+4
 2593 0274 8F93      		push r24
 2594 0276 0E94 0000 		call luaL_error
 2595 027a 0F90      		pop __tmp_reg__
 2596 027c 0F90      		pop __tmp_reg__
 2597 027e 0F90      		pop __tmp_reg__
 2598 0280 0F90      		pop __tmp_reg__
 2599               	.L256:
 2600 0282 B601      		movw r22,r12
 2601 0284 C501      		movw r24,r10
 2602 0286 0E94 0000 		call classend.isra.0
 2603 028a 3C01      		movw r6,r24
 2604 028c 8881      		ld r24,Y
 2605 028e 9981      		ldd r25,Y+1
 2606 0290 0817      		cp r16,r24
 2607 0292 1907      		cpc r17,r25
 2608 0294 01F0      		breq .L276
 2609 0296 F801      		movw r30,r16
 2610 0298 3197      		sbiw r30,1
 2611 029a 8081      		ld r24,Z
 2612 029c 00C0      		rjmp .L257
 2613               	.L276:
 2614 029e 80E0      		ldi r24,0
 2615               	.L257:
 2616 02a0 7301      		movw r14,r6
 2617 02a2 F1E0      		ldi r31,1
 2618 02a4 EF1A      		sub r14,r31
GAS LISTING /tmp/cckNJFLm.s 			page 48


 2619 02a6 F108      		sbc r15,__zero_reg__
 2620 02a8 A701      		movw r20,r14
 2621 02aa B601      		movw r22,r12
 2622 02ac 90E0      		ldi r25,0
 2623 02ae 0E94 0000 		call matchbracketclass
 2624 02b2 892B      		or r24,r25
 2625 02b4 01F0      		breq .+2
 2626 02b6 00C0      		rjmp .L249
 2627 02b8 F801      		movw r30,r16
 2628 02ba 8081      		ld r24,Z
 2629 02bc A701      		movw r20,r14
 2630 02be B601      		movw r22,r12
 2631 02c0 90E0      		ldi r25,0
 2632 02c2 0E94 0000 		call matchbracketclass
 2633 02c6 892B      		or r24,r25
 2634 02c8 01F4      		brne .L255
 2635 02ca 00C0      		rjmp .L249
 2636               	.L309:
 2637 02cc 90E0      		ldi r25,0
 2638 02ce 9C01      		movw r18,r24
 2639 02d0 2053      		subi r18,48
 2640 02d2 3109      		sbc r19,__zero_reg__
 2641 02d4 2A30      		cpi r18,10
 2642 02d6 3105      		cpc r19,__zero_reg__
 2643 02d8 00F0      		brlo .+2
 2644 02da 00C0      		rjmp .L231
 2645 02dc C197      		sbiw r24,49
 2646 02de 97FD      		sbrc r25,7
 2647 02e0 00C0      		rjmp .L258
 2648 02e2 2E81      		ldd r18,Y+6
 2649 02e4 3F81      		ldd r19,Y+7
 2650 02e6 8217      		cp r24,r18
 2651 02e8 9307      		cpc r25,r19
 2652 02ea 04F4      		brge .L258
 2653 02ec FC01      		movw r30,r24
 2654 02ee EE0F      		lsl r30
 2655 02f0 FF1F      		rol r31
 2656 02f2 EE0F      		lsl r30
 2657 02f4 FF1F      		rol r31
 2658 02f6 EC0F      		add r30,r28
 2659 02f8 FD1F      		adc r31,r29
 2660 02fa 2285      		ldd r18,Z+10
 2661 02fc 3385      		ldd r19,Z+11
 2662 02fe 2F3F      		cpi r18,-1
 2663 0300 3F4F      		sbci r19,-1
 2664 0302 01F4      		brne .L259
 2665               	.L258:
 2666 0304 5F92      		push r5
 2667 0306 4F92      		push r4
 2668 0308 8D81      		ldd r24,Y+5
 2669 030a 8F93      		push r24
 2670 030c 8C81      		ldd r24,Y+4
 2671 030e 8F93      		push r24
 2672 0310 0E94 0000 		call luaL_error
 2673 0314 0F90      		pop __tmp_reg__
 2674 0316 0F90      		pop __tmp_reg__
 2675 0318 0F90      		pop __tmp_reg__
GAS LISTING /tmp/cckNJFLm.s 			page 49


 2676 031a 0F90      		pop __tmp_reg__
 2677               	.L259:
 2678 031c FC01      		movw r30,r24
 2679 031e EE0F      		lsl r30
 2680 0320 FF1F      		rol r31
 2681 0322 EE0F      		lsl r30
 2682 0324 FF1F      		rol r31
 2683 0326 EC0F      		add r30,r28
 2684 0328 FD1F      		adc r31,r29
 2685 032a C284      		ldd r12,Z+10
 2686 032c D384      		ldd r13,Z+11
 2687 032e 2A81      		ldd r18,Y+2
 2688 0330 3B81      		ldd r19,Y+3
 2689 0332 201B      		sub r18,r16
 2690 0334 310B      		sbc r19,r17
 2691 0336 2C15      		cp r18,r12
 2692 0338 3D05      		cpc r19,r13
 2693 033a 00F0      		brlo .L249
 2694 033c 0296      		adiw r24,2
 2695 033e 880F      		lsl r24
 2696 0340 991F      		rol r25
 2697 0342 880F      		lsl r24
 2698 0344 991F      		rol r25
 2699 0346 FE01      		movw r30,r28
 2700 0348 E80F      		add r30,r24
 2701 034a F91F      		adc r31,r25
 2702 034c A601      		movw r20,r12
 2703 034e B801      		movw r22,r16
 2704 0350 8081      		ld r24,Z
 2705 0352 9181      		ldd r25,Z+1
 2706 0354 0E94 0000 		call memcmp
 2707 0358 892B      		or r24,r25
 2708 035a 01F4      		brne .L249
 2709 035c 0C0D      		add r16,r12
 2710 035e 1D1D      		adc r17,r13
 2711 0360 0115      		cp r16,__zero_reg__
 2712 0362 1105      		cpc r17,__zero_reg__
 2713 0364 01F0      		breq .L249
 2714 0366 3701      		movw r6,r14
 2715 0368 22E0      		ldi r18,2
 2716 036a 620E      		add r6,r18
 2717 036c 711C      		adc r7,__zero_reg__
 2718 036e 00C0      		rjmp .L255
 2719               	.L235:
 2720 0370 F701      		movw r30,r14
 2721 0372 8181      		ldd r24,Z+1
 2722 0374 8111      		cpse r24,__zero_reg__
 2723 0376 00C0      		rjmp .L231
 2724 0378 8A81      		ldd r24,Y+2
 2725 037a 9B81      		ldd r25,Y+3
 2726 037c 0817      		cp r16,r24
 2727 037e 1907      		cpc r17,r25
 2728 0380 01F4      		brne .+2
 2729 0382 00C0      		rjmp .L234
 2730               	.L249:
 2731 0384 80E0      		ldi r24,0
 2732 0386 90E0      		ldi r25,0
GAS LISTING /tmp/cckNJFLm.s 			page 50


 2733 0388 00C0      		rjmp .L234
 2734               	.L231:
 2735 038a B701      		movw r22,r14
 2736 038c C501      		movw r24,r10
 2737 038e 0E94 0000 		call classend.isra.0
 2738 0392 3C01      		movw r6,r24
 2739 0394 8A81      		ldd r24,Y+2
 2740 0396 9B81      		ldd r25,Y+3
 2741 0398 0817      		cp r16,r24
 2742 039a 1907      		cpc r17,r25
 2743 039c 00F4      		brsh .L278
 2744 039e F801      		movw r30,r16
 2745 03a0 8081      		ld r24,Z
 2746 03a2 A301      		movw r20,r6
 2747 03a4 B701      		movw r22,r14
 2748 03a6 90E0      		ldi r25,0
 2749 03a8 0E94 0000 		call singlematch
 2750 03ac 31E0      		ldi r19,lo8(1)
 2751 03ae 20E0      		ldi r18,0
 2752 03b0 892B      		or r24,r25
 2753 03b2 01F4      		brne .L261
 2754 03b4 30E0      		ldi r19,0
 2755               	.L261:
 2756 03b6 832F      		mov r24,r19
 2757 03b8 922F      		mov r25,r18
 2758 03ba 00C0      		rjmp .L260
 2759               	.L278:
 2760 03bc 80E0      		ldi r24,0
 2761 03be 90E0      		ldi r25,0
 2762               	.L260:
 2763 03c0 F301      		movw r30,r6
 2764 03c2 2081      		ld r18,Z
 2765 03c4 2B32      		cpi r18,lo8(43)
 2766 03c6 01F0      		breq .L263
 2767 03c8 04F4      		brge .L264
 2768 03ca 2A32      		cpi r18,lo8(42)
 2769 03cc 01F0      		breq .+2
 2770 03ce 00C0      		rjmp .L262
 2771 03d0 9301      		movw r18,r6
 2772 03d2 A701      		movw r20,r14
 2773 03d4 B801      		movw r22,r16
 2774 03d6 00C0      		rjmp .L306
 2775               	.L264:
 2776 03d8 2D32      		cpi r18,lo8(45)
 2777 03da 01F0      		breq .L266
 2778 03dc 2F33      		cpi r18,lo8(63)
 2779 03de 01F0      		breq .+2
 2780 03e0 00C0      		rjmp .L262
 2781 03e2 9301      		movw r18,r6
 2782 03e4 2F5F      		subi r18,-1
 2783 03e6 3F4F      		sbci r19,-1
 2784 03e8 3901      		movw r6,r18
 2785 03ea 892B      		or r24,r25
 2786 03ec 01F4      		brne .+2
 2787 03ee 00C0      		rjmp .L255
 2788 03f0 A901      		movw r20,r18
 2789 03f2 B801      		movw r22,r16
GAS LISTING /tmp/cckNJFLm.s 			page 51


 2790 03f4 6F5F      		subi r22,-1
 2791 03f6 7F4F      		sbci r23,-1
 2792 03f8 CE01      		movw r24,r28
 2793 03fa 0E94 0000 		call match
 2794 03fe 0097      		sbiw r24,0
 2795 0400 01F4      		brne .+2
 2796 0402 00C0      		rjmp .L255
 2797 0404 00C0      		rjmp .L234
 2798               	.L263:
 2799 0406 892B      		or r24,r25
 2800 0408 01F4      		brne .+2
 2801 040a 00C0      		rjmp .L249
 2802 040c B801      		movw r22,r16
 2803 040e 6F5F      		subi r22,-1
 2804 0410 7F4F      		sbci r23,-1
 2805 0412 9301      		movw r18,r6
 2806 0414 A701      		movw r20,r14
 2807               	.L306:
 2808 0416 CE01      		movw r24,r28
 2809               	/* epilogue start */
 2810 0418 DF91      		pop r29
 2811 041a CF91      		pop r28
 2812 041c 1F91      		pop r17
 2813 041e 0F91      		pop r16
 2814 0420 FF90      		pop r15
 2815 0422 EF90      		pop r14
 2816 0424 DF90      		pop r13
 2817 0426 CF90      		pop r12
 2818 0428 BF90      		pop r11
 2819 042a AF90      		pop r10
 2820 042c 9F90      		pop r9
 2821 042e 8F90      		pop r8
 2822 0430 7F90      		pop r7
 2823 0432 6F90      		pop r6
 2824 0434 5F90      		pop r5
 2825 0436 4F90      		pop r4
 2826 0438 3F90      		pop r3
 2827 043a 2F90      		pop r2
 2828 043c 0C94 0000 		jmp max_expand
 2829               	.L266:
 2830 0440 5301      		movw r10,r6
 2831 0442 3FEF      		ldi r19,-1
 2832 0444 A31A      		sub r10,r19
 2833 0446 B30A      		sbc r11,r19
 2834               	.L270:
 2835 0448 6801      		movw r12,r16
 2836 044a A501      		movw r20,r10
 2837 044c B801      		movw r22,r16
 2838 044e CE01      		movw r24,r28
 2839 0450 0E94 0000 		call match
 2840 0454 0097      		sbiw r24,0
 2841 0456 01F4      		brne .L234
 2842 0458 8A81      		ldd r24,Y+2
 2843 045a 9B81      		ldd r25,Y+3
 2844 045c 0817      		cp r16,r24
 2845 045e 1907      		cpc r17,r25
 2846 0460 00F0      		brlo .+2
GAS LISTING /tmp/cckNJFLm.s 			page 52


 2847 0462 00C0      		rjmp .L249
 2848 0464 0F5F      		subi r16,-1
 2849 0466 1F4F      		sbci r17,-1
 2850 0468 F601      		movw r30,r12
 2851 046a 8081      		ld r24,Z
 2852 046c A301      		movw r20,r6
 2853 046e B701      		movw r22,r14
 2854 0470 90E0      		ldi r25,0
 2855 0472 0E94 0000 		call singlematch
 2856 0476 892B      		or r24,r25
 2857 0478 01F4      		brne .L270
 2858 047a 00C0      		rjmp .L249
 2859               	.L262:
 2860 047c 892B      		or r24,r25
 2861 047e 01F4      		brne .+2
 2862 0480 00C0      		rjmp .L249
 2863 0482 0F5F      		subi r16,-1
 2864 0484 1F4F      		sbci r17,-1
 2865 0486 00C0      		rjmp .L255
 2866               	.L271:
 2867 0488 C801      		movw r24,r16
 2868               	.L234:
 2869               	/* epilogue start */
 2870 048a DF91      		pop r29
 2871 048c CF91      		pop r28
 2872 048e 1F91      		pop r17
 2873 0490 0F91      		pop r16
 2874 0492 FF90      		pop r15
 2875 0494 EF90      		pop r14
 2876 0496 DF90      		pop r13
 2877 0498 CF90      		pop r12
 2878 049a BF90      		pop r11
 2879 049c AF90      		pop r10
 2880 049e 9F90      		pop r9
 2881 04a0 8F90      		pop r8
 2882 04a2 7F90      		pop r7
 2883 04a4 6F90      		pop r6
 2884 04a6 5F90      		pop r5
 2885 04a8 4F90      		pop r4
 2886 04aa 3F90      		pop r3
 2887 04ac 2F90      		pop r2
 2888 04ae 0895      		ret
 2889               		.size	match, .-match
 2890               		.section	.text.max_expand,"ax",@progbits
 2891               		.type	max_expand, @function
 2892               	max_expand:
 2893 0000 6F92      		push r6
 2894 0002 7F92      		push r7
 2895 0004 8F92      		push r8
 2896 0006 9F92      		push r9
 2897 0008 AF92      		push r10
 2898 000a BF92      		push r11
 2899 000c CF92      		push r12
 2900 000e DF92      		push r13
 2901 0010 EF92      		push r14
 2902 0012 FF92      		push r15
 2903 0014 0F93      		push r16
GAS LISTING /tmp/cckNJFLm.s 			page 53


 2904 0016 1F93      		push r17
 2905 0018 CF93      		push r28
 2906 001a DF93      		push r29
 2907               	/* prologue: function */
 2908               	/* frame size = 0 */
 2909               	/* stack size = 14 */
 2910               	.L__stack_usage = 14
 2911 001c 6C01      		movw r12,r24
 2912 001e 7B01      		movw r14,r22
 2913 0020 5A01      		movw r10,r20
 2914 0022 3901      		movw r6,r18
 2915 0024 FC01      		movw r30,r24
 2916 0026 8280      		ldd r8,Z+2
 2917 0028 9380      		ldd r9,Z+3
 2918 002a EB01      		movw r28,r22
 2919               	.L312:
 2920 002c 8E01      		movw r16,r28
 2921 002e 0E19      		sub r16,r14
 2922 0030 1F09      		sbc r17,r15
 2923 0032 FE01      		movw r30,r28
 2924 0034 C815      		cp r28,r8
 2925 0036 D905      		cpc r29,r9
 2926 0038 00F4      		brsh .L311
 2927 003a 2196      		adiw r28,1
 2928 003c 8081      		ld r24,Z
 2929 003e A301      		movw r20,r6
 2930 0040 B501      		movw r22,r10
 2931 0042 90E0      		ldi r25,0
 2932 0044 0E94 0000 		call singlematch
 2933 0048 892B      		or r24,r25
 2934 004a 01F4      		brne .L312
 2935               	.L311:
 2936 004c FFEF      		ldi r31,-1
 2937 004e 6F1A      		sub r6,r31
 2938 0050 7F0A      		sbc r7,r31
 2939               	.L314:
 2940 0052 A301      		movw r20,r6
 2941 0054 B701      		movw r22,r14
 2942 0056 600F      		add r22,r16
 2943 0058 711F      		adc r23,r17
 2944 005a C601      		movw r24,r12
 2945 005c 0E94 0000 		call match
 2946 0060 0097      		sbiw r24,0
 2947 0062 01F4      		brne .L313
 2948 0064 0150      		subi r16,1
 2949 0066 1109      		sbc r17,__zero_reg__
 2950 0068 00F4      		brcc .L314
 2951 006a 80E0      		ldi r24,0
 2952 006c 90E0      		ldi r25,0
 2953               	.L313:
 2954               	/* epilogue start */
 2955 006e DF91      		pop r29
 2956 0070 CF91      		pop r28
 2957 0072 1F91      		pop r17
 2958 0074 0F91      		pop r16
 2959 0076 FF90      		pop r15
 2960 0078 EF90      		pop r14
GAS LISTING /tmp/cckNJFLm.s 			page 54


 2961 007a DF90      		pop r13
 2962 007c CF90      		pop r12
 2963 007e BF90      		pop r11
 2964 0080 AF90      		pop r10
 2965 0082 9F90      		pop r9
 2966 0084 8F90      		pop r8
 2967 0086 7F90      		pop r7
 2968 0088 6F90      		pop r6
 2969 008a 0895      		ret
 2970               		.size	max_expand, .-max_expand
 2971               		.section	.rodata.str1.1
 2972               	.LC20:
 2973 01bc 5E24 2A2B 		.string	"^$*+?.([%-"
 2973      3F2E 285B 
 2973      252D 00
 2974               		.section	.text.str_find_aux,"ax",@progbits
 2975               		.type	str_find_aux, @function
 2976               	str_find_aux:
 2977 0000 2F92      		push r2
 2978 0002 3F92      		push r3
 2979 0004 4F92      		push r4
 2980 0006 5F92      		push r5
 2981 0008 6F92      		push r6
 2982 000a 7F92      		push r7
 2983 000c 8F92      		push r8
 2984 000e 9F92      		push r9
 2985 0010 AF92      		push r10
 2986 0012 BF92      		push r11
 2987 0014 CF92      		push r12
 2988 0016 DF92      		push r13
 2989 0018 EF92      		push r14
 2990 001a FF92      		push r15
 2991 001c 0F93      		push r16
 2992 001e 1F93      		push r17
 2993 0020 CF93      		push r28
 2994 0022 DF93      		push r29
 2995 0024 CDB7      		in r28,__SP_L__
 2996 0026 DEB7      		in r29,__SP_H__
 2997 0028 CE58      		subi r28,-114
 2998 002a D109      		sbc r29,__zero_reg__
 2999 002c 0FB6      		in __tmp_reg__,__SREG__
 3000 002e F894      		cli
 3001 0030 DEBF      		out __SP_H__,r29
 3002 0032 0FBE      		out __SREG__,__tmp_reg__
 3003 0034 CDBF      		out __SP_L__,r28
 3004               	/* prologue: function */
 3005               	/* frame size = 142 */
 3006               	/* stack size = 160 */
 3007               	.L__stack_usage = 160
 3008 0036 7C01      		movw r14,r24
 3009 0038 6B01      		movw r12,r22
 3010 003a AE01      		movw r20,r28
 3011 003c 4557      		subi r20,117
 3012 003e 5F4F      		sbci r21,-1
 3013 0040 61E0      		ldi r22,lo8(1)
 3014 0042 70E0      		ldi r23,0
 3015 0044 0E94 0000 		call luaL_checklstring
GAS LISTING /tmp/cckNJFLm.s 			page 55


 3016 0048 4C01      		movw r8,r24
 3017 004a AE01      		movw r20,r28
 3018 004c 4757      		subi r20,119
 3019 004e 5F4F      		sbci r21,-1
 3020 0050 62E0      		ldi r22,lo8(2)
 3021 0052 70E0      		ldi r23,0
 3022 0054 C701      		movw r24,r14
 3023 0056 0E94 0000 		call luaL_checklstring
 3024 005a 5C01      		movw r10,r24
 3025 005c C557      		subi r28,lo8(-139)
 3026 005e DF4F      		sbci r29,hi8(-139)
 3027 0060 0881      		ld r16,Y
 3028 0062 1981      		ldd r17,Y+1
 3029 0064 CB58      		subi r28,lo8(139)
 3030 0066 D040      		sbci r29,hi8(139)
 3031 0068 41E0      		ldi r20,lo8(1)
 3032 006a 50E0      		ldi r21,0
 3033 006c 63E0      		ldi r22,lo8(3)
 3034 006e 70E0      		ldi r23,0
 3035 0070 C701      		movw r24,r14
 3036 0072 0E94 0000 		call luaL_optinteger
 3037 0076 97FF      		sbrs r25,7
 3038 0078 00C0      		rjmp .L319
 3039 007a 0F5F      		subi r16,-1
 3040 007c 1F4F      		sbci r17,-1
 3041 007e 800F      		add r24,r16
 3042 0080 911F      		adc r25,r17
 3043               	.L319:
 3044 0082 97FF      		sbrs r25,7
 3045 0084 00C0      		rjmp .L320
 3046 0086 80E0      		ldi r24,0
 3047 0088 90E0      		ldi r25,0
 3048               	.L320:
 3049 008a 3C01      		movw r6,r24
 3050 008c 21E0      		ldi r18,1
 3051 008e 621A      		sub r6,r18
 3052 0090 7108      		sbc r7,__zero_reg__
 3053 0092 00F0      		brcs .L336
 3054 0094 C557      		subi r28,lo8(-139)
 3055 0096 DF4F      		sbci r29,hi8(-139)
 3056 0098 8881      		ld r24,Y
 3057 009a 9981      		ldd r25,Y+1
 3058 009c CB58      		subi r28,lo8(139)
 3059 009e D040      		sbci r29,hi8(139)
 3060 00a0 8615      		cp r24,r6
 3061 00a2 9705      		cpc r25,r7
 3062 00a4 00F4      		brsh .L321
 3063 00a6 3C01      		movw r6,r24
 3064 00a8 00C0      		rjmp .L321
 3065               	.L336:
 3066 00aa 612C      		mov r6,__zero_reg__
 3067 00ac 712C      		mov r7,__zero_reg__
 3068               	.L321:
 3069 00ae 8401      		movw r16,r8
 3070 00b0 060D      		add r16,r6
 3071 00b2 171D      		adc r17,r7
 3072 00b4 C114      		cp r12,__zero_reg__
GAS LISTING /tmp/cckNJFLm.s 			page 56


 3073 00b6 D104      		cpc r13,__zero_reg__
 3074 00b8 01F4      		brne .+2
 3075 00ba 00C0      		rjmp .L322
 3076 00bc 64E0      		ldi r22,lo8(4)
 3077 00be 70E0      		ldi r23,0
 3078 00c0 C701      		movw r24,r14
 3079 00c2 0E94 0000 		call lua_toboolean
 3080 00c6 892B      		or r24,r25
 3081 00c8 01F4      		brne .L323
 3082 00ca 60E0      		ldi r22,lo8(.LC20)
 3083 00cc 70E0      		ldi r23,hi8(.LC20)
 3084 00ce C501      		movw r24,r10
 3085 00d0 0E94 0000 		call strpbrk
 3086 00d4 892B      		or r24,r25
 3087 00d6 01F0      		breq .+2
 3088 00d8 00C0      		rjmp .L322
 3089               	.L323:
 3090 00da C757      		subi r28,lo8(-137)
 3091 00dc DF4F      		sbci r29,hi8(-137)
 3092 00de 2880      		ld r2,Y
 3093 00e0 3980      		ldd r3,Y+1
 3094 00e2 C958      		subi r28,lo8(137)
 3095 00e4 D040      		sbci r29,hi8(137)
 3096 00e6 2801      		movw r4,r16
 3097 00e8 2114      		cp r2,__zero_reg__
 3098 00ea 3104      		cpc r3,__zero_reg__
 3099 00ec 01F4      		brne .+2
 3100 00ee 00C0      		rjmp .L324
 3101 00f0 C557      		subi r28,lo8(-139)
 3102 00f2 DF4F      		sbci r29,hi8(-139)
 3103 00f4 C880      		ld r12,Y
 3104 00f6 D980      		ldd r13,Y+1
 3105 00f8 CB58      		subi r28,lo8(139)
 3106 00fa D040      		sbci r29,hi8(139)
 3107 00fc C618      		sub r12,r6
 3108 00fe D708      		sbc r13,r7
 3109 0100 C214      		cp r12,r2
 3110 0102 D304      		cpc r13,r3
 3111 0104 00F4      		brsh .+2
 3112 0106 00C0      		rjmp .L325
 3113 0108 91E0      		ldi r25,1
 3114 010a 291A      		sub r2,r25
 3115 010c 3108      		sbc r3,__zero_reg__
 3116 010e C218      		sub r12,r2
 3117 0110 D308      		sbc r13,r3
 3118 0112 F501      		movw r30,r10
 3119 0114 3196      		adiw r30,1
 3120 0116 C357      		subi r28,lo8(-141)
 3121 0118 DF4F      		sbci r29,hi8(-141)
 3122 011a F983      		std Y+1,r31
 3123 011c E883      		st Y,r30
 3124 011e CD58      		subi r28,lo8(141)
 3125 0120 D040      		sbci r29,hi8(141)
 3126               	.L326:
 3127 0122 C114      		cp r12,__zero_reg__
 3128 0124 D104      		cpc r13,__zero_reg__
 3129 0126 01F4      		brne .+2
GAS LISTING /tmp/cckNJFLm.s 			page 57


 3130 0128 00C0      		rjmp .L325
 3131 012a F501      		movw r30,r10
 3132 012c 6081      		ld r22,Z
 3133 012e 062E      		mov __tmp_reg__,r22
 3134 0130 000C      		lsl r0
 3135 0132 770B      		sbc r23,r23
 3136 0134 A601      		movw r20,r12
 3137 0136 C201      		movw r24,r4
 3138 0138 0E94 0000 		call memchr
 3139 013c 8C01      		movw r16,r24
 3140 013e 892B      		or r24,r25
 3141 0140 01F4      		brne .+2
 3142 0142 00C0      		rjmp .L325
 3143 0144 3801      		movw r6,r16
 3144 0146 FFEF      		ldi r31,-1
 3145 0148 6F1A      		sub r6,r31
 3146 014a 7F0A      		sbc r7,r31
 3147 014c A101      		movw r20,r2
 3148 014e C357      		subi r28,lo8(-141)
 3149 0150 DF4F      		sbci r29,hi8(-141)
 3150 0152 6881      		ld r22,Y
 3151 0154 7981      		ldd r23,Y+1
 3152 0156 CD58      		subi r28,lo8(141)
 3153 0158 D040      		sbci r29,hi8(141)
 3154 015a C301      		movw r24,r6
 3155 015c 0E94 0000 		call memcmp
 3156 0160 892B      		or r24,r25
 3157 0162 01F0      		breq .L327
 3158 0164 C301      		movw r24,r6
 3159 0166 8419      		sub r24,r4
 3160 0168 9509      		sbc r25,r5
 3161 016a C81A      		sub r12,r24
 3162 016c D90A      		sbc r13,r25
 3163 016e 2301      		movw r4,r6
 3164 0170 00C0      		rjmp .L326
 3165               	.L324:
 3166 0172 0115      		cp r16,__zero_reg__
 3167 0174 1105      		cpc r17,__zero_reg__
 3168 0176 01F4      		brne .+2
 3169 0178 00C0      		rjmp .L325
 3170               	.L327:
 3171 017a 0819      		sub r16,r8
 3172 017c 1909      		sbc r17,r9
 3173 017e B801      		movw r22,r16
 3174 0180 6F5F      		subi r22,-1
 3175 0182 7F4F      		sbci r23,-1
 3176 0184 C701      		movw r24,r14
 3177 0186 0E94 0000 		call lua_pushinteger
 3178 018a C757      		subi r28,lo8(-137)
 3179 018c DF4F      		sbci r29,hi8(-137)
 3180 018e 6881      		ld r22,Y
 3181 0190 7981      		ldd r23,Y+1
 3182 0192 C958      		subi r28,lo8(137)
 3183 0194 D040      		sbci r29,hi8(137)
 3184 0196 600F      		add r22,r16
 3185 0198 711F      		adc r23,r17
 3186 019a C701      		movw r24,r14
GAS LISTING /tmp/cckNJFLm.s 			page 58


 3187 019c 0E94 0000 		call lua_pushinteger
 3188 01a0 82E0      		ldi r24,lo8(2)
 3189 01a2 90E0      		ldi r25,0
 3190 01a4 00C0      		rjmp .L329
 3191               	.L322:
 3192 01a6 F501      		movw r30,r10
 3193 01a8 8081      		ld r24,Z
 3194 01aa 8E35      		cpi r24,lo8(94)
 3195 01ac 01F4      		brne .L338
 3196 01ae FFEF      		ldi r31,-1
 3197 01b0 AF1A      		sub r10,r31
 3198 01b2 BF0A      		sbc r11,r31
 3199 01b4 6624      		clr r6
 3200 01b6 6394      		inc r6
 3201 01b8 712C      		mov r7,__zero_reg__
 3202 01ba 00C0      		rjmp .L330
 3203               	.L338:
 3204 01bc 612C      		mov r6,__zero_reg__
 3205 01be 712C      		mov r7,__zero_reg__
 3206               	.L330:
 3207 01c0 FE82      		std Y+6,r15
 3208 01c2 ED82      		std Y+5,r14
 3209 01c4 9A82      		std Y+2,r9
 3210 01c6 8982      		std Y+1,r8
 3211 01c8 C557      		subi r28,lo8(-139)
 3212 01ca DF4F      		sbci r29,hi8(-139)
 3213 01cc 8881      		ld r24,Y
 3214 01ce 9981      		ldd r25,Y+1
 3215 01d0 CB58      		subi r28,lo8(139)
 3216 01d2 D040      		sbci r29,hi8(139)
 3217 01d4 880D      		add r24,r8
 3218 01d6 991D      		adc r25,r9
 3219 01d8 9C83      		std Y+4,r25
 3220 01da 8B83      		std Y+3,r24
 3221               	.L335:
 3222 01dc 1886      		std Y+8,__zero_reg__
 3223 01de 1F82      		std Y+7,__zero_reg__
 3224 01e0 A501      		movw r20,r10
 3225 01e2 B801      		movw r22,r16
 3226 01e4 CE01      		movw r24,r28
 3227 01e6 0196      		adiw r24,1
 3228 01e8 0E94 0000 		call match
 3229 01ec 2C01      		movw r4,r24
 3230 01ee 0097      		sbiw r24,0
 3231 01f0 01F0      		breq .L331
 3232 01f2 CD28      		or r12,r13
 3233 01f4 01F0      		breq .L332
 3234 01f6 0819      		sub r16,r8
 3235 01f8 1909      		sbc r17,r9
 3236 01fa B801      		movw r22,r16
 3237 01fc 6F5F      		subi r22,-1
 3238 01fe 7F4F      		sbci r23,-1
 3239 0200 C701      		movw r24,r14
 3240 0202 0E94 0000 		call lua_pushinteger
 3241 0206 B201      		movw r22,r4
 3242 0208 6819      		sub r22,r8
 3243 020a 7909      		sbc r23,r9
GAS LISTING /tmp/cckNJFLm.s 			page 59


 3244 020c C701      		movw r24,r14
 3245 020e 0E94 0000 		call lua_pushinteger
 3246 0212 40E0      		ldi r20,0
 3247 0214 50E0      		ldi r21,0
 3248 0216 60E0      		ldi r22,0
 3249 0218 70E0      		ldi r23,0
 3250 021a CE01      		movw r24,r28
 3251 021c 0196      		adiw r24,1
 3252 021e 0E94 0000 		call push_captures
 3253 0222 0296      		adiw r24,2
 3254 0224 00C0      		rjmp .L329
 3255               	.L332:
 3256 0226 AC01      		movw r20,r24
 3257 0228 B801      		movw r22,r16
 3258 022a CE01      		movw r24,r28
 3259 022c 0196      		adiw r24,1
 3260 022e 0E94 0000 		call push_captures
 3261 0232 00C0      		rjmp .L329
 3262               	.L331:
 3263 0234 C801      		movw r24,r16
 3264 0236 0196      		adiw r24,1
 3265 0238 2B81      		ldd r18,Y+3
 3266 023a 3C81      		ldd r19,Y+4
 3267 023c 0217      		cp r16,r18
 3268 023e 1307      		cpc r17,r19
 3269 0240 00F4      		brsh .L325
 3270 0242 6114      		cp r6,__zero_reg__
 3271 0244 7104      		cpc r7,__zero_reg__
 3272 0246 01F4      		brne .L325
 3273 0248 8C01      		movw r16,r24
 3274 024a 00C0      		rjmp .L335
 3275               	.L325:
 3276 024c C701      		movw r24,r14
 3277 024e 0E94 0000 		call lua_pushnil
 3278 0252 81E0      		ldi r24,lo8(1)
 3279 0254 90E0      		ldi r25,0
 3280               	.L329:
 3281               	/* epilogue start */
 3282 0256 C257      		subi r28,114
 3283 0258 DF4F      		sbci r29,-1
 3284 025a 0FB6      		in __tmp_reg__,__SREG__
 3285 025c F894      		cli
 3286 025e DEBF      		out __SP_H__,r29
 3287 0260 0FBE      		out __SREG__,__tmp_reg__
 3288 0262 CDBF      		out __SP_L__,r28
 3289 0264 DF91      		pop r29
 3290 0266 CF91      		pop r28
 3291 0268 1F91      		pop r17
 3292 026a 0F91      		pop r16
 3293 026c FF90      		pop r15
 3294 026e EF90      		pop r14
 3295 0270 DF90      		pop r13
 3296 0272 CF90      		pop r12
 3297 0274 BF90      		pop r11
 3298 0276 AF90      		pop r10
 3299 0278 9F90      		pop r9
 3300 027a 8F90      		pop r8
GAS LISTING /tmp/cckNJFLm.s 			page 60


 3301 027c 7F90      		pop r7
 3302 027e 6F90      		pop r6
 3303 0280 5F90      		pop r5
 3304 0282 4F90      		pop r4
 3305 0284 3F90      		pop r3
 3306 0286 2F90      		pop r2
 3307 0288 0895      		ret
 3308               		.size	str_find_aux, .-str_find_aux
 3309               		.section	.text.str_match,"ax",@progbits
 3310               		.type	str_match, @function
 3311               	str_match:
 3312               	/* prologue: function */
 3313               	/* frame size = 0 */
 3314               	/* stack size = 0 */
 3315               	.L__stack_usage = 0
 3316 0000 60E0      		ldi r22,0
 3317 0002 70E0      		ldi r23,0
 3318 0004 0C94 0000 		jmp str_find_aux
 3319               		.size	str_match, .-str_match
 3320               		.section	.text.str_find,"ax",@progbits
 3321               		.type	str_find, @function
 3322               	str_find:
 3323               	/* prologue: function */
 3324               	/* frame size = 0 */
 3325               	/* stack size = 0 */
 3326               	.L__stack_usage = 0
 3327 0000 61E0      		ldi r22,lo8(1)
 3328 0002 70E0      		ldi r23,0
 3329 0004 0C94 0000 		jmp str_find_aux
 3330               		.size	str_find, .-str_find
 3331               		.section	.rodata.str1.1
 3332               	.LC21:
 3333 01c7 7374 7269 		.string	"string/function/table/lightfunction expected"
 3333      6E67 2F66 
 3333      756E 6374 
 3333      696F 6E2F 
 3333      7461 626C 
 3334               	.LC22:
 3335 01f4 696E 7661 		.string	"invalid replacement value (a %s)"
 3335      6C69 6420 
 3335      7265 706C 
 3335      6163 656D 
 3335      656E 7420 
 3336               		.section	.text.str_gsub,"ax",@progbits
 3337               		.type	str_gsub, @function
 3338               	str_gsub:
 3339 0000 2F92      		push r2
 3340 0002 3F92      		push r3
 3341 0004 4F92      		push r4
 3342 0006 5F92      		push r5
 3343 0008 6F92      		push r6
 3344 000a 7F92      		push r7
 3345 000c 8F92      		push r8
 3346 000e 9F92      		push r9
 3347 0010 AF92      		push r10
 3348 0012 BF92      		push r11
 3349 0014 CF92      		push r12
GAS LISTING /tmp/cckNJFLm.s 			page 61


 3350 0016 DF92      		push r13
 3351 0018 EF92      		push r14
 3352 001a FF92      		push r15
 3353 001c 0F93      		push r16
 3354 001e 1F93      		push r17
 3355 0020 CF93      		push r28
 3356 0022 DF93      		push r29
 3357 0024 CDB7      		in r28,__SP_L__
 3358 0026 DEB7      		in r29,__SP_H__
 3359 0028 CA59      		subi r28,-102
 3360 002a D440      		sbci r29,4
 3361 002c 0FB6      		in __tmp_reg__,__SREG__
 3362 002e F894      		cli
 3363 0030 DEBF      		out __SP_H__,r29
 3364 0032 0FBE      		out __SREG__,__tmp_reg__
 3365 0034 CDBF      		out __SP_L__,r28
 3366               	/* prologue: function */
 3367               	/* frame size = 1178 */
 3368               	/* stack size = 1196 */
 3369               	.L__stack_usage = 1196
 3370 0036 6C01      		movw r12,r24
 3371 0038 AE01      		movw r20,r28
 3372 003a 4F56      		subi r20,111
 3373 003c 5B4F      		sbci r21,-5
 3374 003e 61E0      		ldi r22,lo8(1)
 3375 0040 70E0      		ldi r23,0
 3376 0042 0E94 0000 		call luaL_checklstring
 3377 0046 8C01      		movw r16,r24
 3378 0048 40E0      		ldi r20,0
 3379 004a 50E0      		ldi r21,0
 3380 004c 62E0      		ldi r22,lo8(2)
 3381 004e 70E0      		ldi r23,0
 3382 0050 C601      		movw r24,r12
 3383 0052 0E94 0000 		call luaL_checklstring
 3384 0056 2C01      		movw r4,r24
 3385 0058 63E0      		ldi r22,lo8(3)
 3386 005a 70E0      		ldi r23,0
 3387 005c C601      		movw r24,r12
 3388 005e 0E94 0000 		call lua_type
 3389 0062 7C01      		movw r14,r24
 3390 0064 CF56      		subi r28,lo8(-1169)
 3391 0066 DB4F      		sbci r29,hi8(-1169)
 3392 0068 4881      		ld r20,Y
 3393 006a 5981      		ldd r21,Y+1
 3394 006c C159      		subi r28,lo8(1169)
 3395 006e D440      		sbci r29,hi8(1169)
 3396 0070 4F5F      		subi r20,-1
 3397 0072 5F4F      		sbci r21,-1
 3398 0074 64E0      		ldi r22,lo8(4)
 3399 0076 70E0      		ldi r23,0
 3400 0078 C601      		movw r24,r12
 3401 007a 0E94 0000 		call luaL_optinteger
 3402 007e CB56      		subi r28,lo8(-1173)
 3403 0080 DB4F      		sbci r29,hi8(-1173)
 3404 0082 9983      		std Y+1,r25
 3405 0084 8883      		st Y,r24
 3406 0086 C559      		subi r28,lo8(1173)
GAS LISTING /tmp/cckNJFLm.s 			page 62


 3407 0088 D440      		sbci r29,hi8(1173)
 3408 008a D201      		movw r26,r4
 3409 008c 8C91      		ld r24,X
 3410 008e 8E35      		cpi r24,lo8(94)
 3411 0090 01F4      		brne .L376
 3412 0092 BFEF      		ldi r27,-1
 3413 0094 4B1A      		sub r4,r27
 3414 0096 5B0A      		sbc r5,r27
 3415 0098 E1E0      		ldi r30,lo8(1)
 3416 009a F0E0      		ldi r31,0
 3417 009c CD56      		subi r28,lo8(-1171)
 3418 009e DB4F      		sbci r29,hi8(-1171)
 3419 00a0 F983      		std Y+1,r31
 3420 00a2 E883      		st Y,r30
 3421 00a4 C359      		subi r28,lo8(1171)
 3422 00a6 D440      		sbci r29,hi8(1171)
 3423 00a8 00C0      		rjmp .L352
 3424               	.L376:
 3425 00aa CD56      		subi r28,lo8(-1171)
 3426 00ac DB4F      		sbci r29,hi8(-1171)
 3427 00ae 1982      		std Y+1,__zero_reg__
 3428 00b0 1882      		st Y,__zero_reg__
 3429 00b2 C359      		subi r28,lo8(1171)
 3430 00b4 D440      		sbci r29,hi8(1171)
 3431               	.L352:
 3432 00b6 C701      		movw r24,r14
 3433 00b8 0597      		sbiw r24,5
 3434 00ba 0497      		sbiw r24,4
 3435 00bc 00F0      		brlo .L353
 3436 00be F3E0      		ldi r31,3
 3437 00c0 EF16      		cp r14,r31
 3438 00c2 F104      		cpc r15,__zero_reg__
 3439 00c4 01F0      		breq .L353
 3440 00c6 40E0      		ldi r20,lo8(.LC21)
 3441 00c8 50E0      		ldi r21,hi8(.LC21)
 3442 00ca 63E0      		ldi r22,lo8(3)
 3443 00cc 70E0      		ldi r23,0
 3444 00ce C601      		movw r24,r12
 3445 00d0 0E94 0000 		call luaL_argerror
 3446               	.L353:
 3447 00d4 BE01      		movw r22,r28
 3448 00d6 6F5F      		subi r22,-1
 3449 00d8 7F4F      		sbci r23,-1
 3450 00da C601      		movw r24,r12
 3451 00dc 0E94 0000 		call luaL_buffinit
 3452 00e0 7E01      		movw r14,r28
 3453 00e2 89EF      		ldi r24,-7
 3454 00e4 E81A      		sub r14,r24
 3455 00e6 8BEF      		ldi r24,-5
 3456 00e8 F80A      		sbc r15,r24
 3457 00ea D701      		movw r26,r14
 3458 00ec 1596      		adiw r26,4+1
 3459 00ee DC92      		st X,r13
 3460 00f0 CE92      		st -X,r12
 3461 00f2 1497      		sbiw r26,4
 3462 00f4 1196      		adiw r26,1
 3463 00f6 1C93      		st X,r17
GAS LISTING /tmp/cckNJFLm.s 			page 63


 3464 00f8 0E93      		st -X,r16
 3465 00fa CF56      		subi r28,lo8(-1169)
 3466 00fc DB4F      		sbci r29,hi8(-1169)
 3467 00fe 8881      		ld r24,Y
 3468 0100 9981      		ldd r25,Y+1
 3469 0102 C159      		subi r28,lo8(1169)
 3470 0104 D440      		sbci r29,hi8(1169)
 3471 0106 800F      		add r24,r16
 3472 0108 911F      		adc r25,r17
 3473 010a 1396      		adiw r26,2+1
 3474 010c 9C93      		st X,r25
 3475 010e 8E93      		st -X,r24
 3476 0110 1297      		sbiw r26,2
 3477 0112 612C      		mov r6,__zero_reg__
 3478 0114 712C      		mov r7,__zero_reg__
 3479               	.L354:
 3480 0116 CB56      		subi r28,lo8(-1173)
 3481 0118 DB4F      		sbci r29,hi8(-1173)
 3482 011a 8881      		ld r24,Y
 3483 011c 9981      		ldd r25,Y+1
 3484 011e C559      		subi r28,lo8(1173)
 3485 0120 D440      		sbci r29,hi8(1173)
 3486 0122 6816      		cp r6,r24
 3487 0124 7906      		cpc r7,r25
 3488 0126 04F0      		brlt .+2
 3489 0128 00C0      		rjmp .L372
 3490 012a F701      		movw r30,r14
 3491 012c 1782      		std Z+7,__zero_reg__
 3492 012e 1682      		std Z+6,__zero_reg__
 3493 0130 A201      		movw r20,r4
 3494 0132 B801      		movw r22,r16
 3495 0134 C701      		movw r24,r14
 3496 0136 0E94 0000 		call match
 3497 013a 5C01      		movw r10,r24
 3498 013c 892B      		or r24,r25
 3499 013e 01F4      		brne .+2
 3500 0140 00C0      		rjmp .L355
 3501 0142 FFEF      		ldi r31,-1
 3502 0144 6F1A      		sub r6,r31
 3503 0146 7F0A      		sbc r7,r31
 3504 0148 D701      		movw r26,r14
 3505 014a 1496      		adiw r26,4
 3506 014c 9C90      		ld r9,X
 3507 014e 1497      		sbiw r26,4
 3508 0150 1596      		adiw r26,5
 3509 0152 8C90      		ld r8,X
 3510 0154 63E0      		ldi r22,lo8(3)
 3511 0156 70E0      		ldi r23,0
 3512 0158 892D      		mov r24,r9
 3513 015a 982D      		mov r25,r8
 3514 015c 0E94 0000 		call lua_type
 3515 0160 8730      		cpi r24,7
 3516 0162 9105      		cpc r25,__zero_reg__
 3517 0164 04F4      		brge .L357
 3518 0166 8530      		cpi r24,5
 3519 0168 9105      		cpc r25,__zero_reg__
 3520 016a 04F4      		brge .L358
GAS LISTING /tmp/cckNJFLm.s 			page 64


 3521 016c 0397      		sbiw r24,3
 3522 016e 01F4      		brne .+2
 3523 0170 00C0      		rjmp .L359
 3524 0172 00C0      		rjmp .L356
 3525               	.L357:
 3526 0174 8730      		cpi r24,7
 3527 0176 9105      		cpc r25,__zero_reg__
 3528 0178 01F4      		brne .+2
 3529 017a 00C0      		rjmp .L360
 3530 017c 0897      		sbiw r24,8
 3531 017e 01F4      		brne .+2
 3532 0180 00C0      		rjmp .L359
 3533 0182 00C0      		rjmp .L356
 3534               	.L358:
 3535 0184 AE01      		movw r20,r28
 3536 0186 4157      		subi r20,113
 3537 0188 5B4F      		sbci r21,-5
 3538 018a 63E0      		ldi r22,lo8(3)
 3539 018c 70E0      		ldi r23,0
 3540 018e F701      		movw r30,r14
 3541 0190 8481      		ldd r24,Z+4
 3542 0192 9581      		ldd r25,Z+5
 3543 0194 0E94 0000 		call lua_tolstring
 3544 0198 1C01      		movw r2,r24
 3545 019a 812C      		mov r8,__zero_reg__
 3546 019c 912C      		mov r9,__zero_reg__
 3547 019e C501      		movw r24,r10
 3548 01a0 801B      		sub r24,r16
 3549 01a2 910B      		sbc r25,r17
 3550 01a4 C956      		subi r28,lo8(-1175)
 3551 01a6 DB4F      		sbci r29,hi8(-1175)
 3552 01a8 9983      		std Y+1,r25
 3553 01aa 8883      		st Y,r24
 3554 01ac C759      		subi r28,lo8(1175)
 3555 01ae D440      		sbci r29,hi8(1175)
 3556               	.L361:
 3557 01b0 C157      		subi r28,lo8(-1167)
 3558 01b2 DB4F      		sbci r29,hi8(-1167)
 3559 01b4 8881      		ld r24,Y
 3560 01b6 9981      		ldd r25,Y+1
 3561 01b8 CF58      		subi r28,lo8(1167)
 3562 01ba D440      		sbci r29,hi8(1167)
 3563 01bc 8816      		cp r8,r24
 3564 01be 9906      		cpc r9,r25
 3565 01c0 00F0      		brlo .+2
 3566 01c2 00C0      		rjmp .L369
 3567 01c4 9101      		movw r18,r2
 3568 01c6 280D      		add r18,r8
 3569 01c8 391D      		adc r19,r9
 3570 01ca D901      		movw r26,r18
 3571 01cc 8C91      		ld r24,X
 3572 01ce 8532      		cpi r24,lo8(37)
 3573 01d0 01F4      		brne .L392
 3574 01d2 BFEF      		ldi r27,-1
 3575 01d4 8B1A      		sub r8,r27
 3576 01d6 9B0A      		sbc r9,r27
 3577 01d8 9101      		movw r18,r2
GAS LISTING /tmp/cckNJFLm.s 			page 65


 3578 01da 280D      		add r18,r8
 3579 01dc 391D      		adc r19,r9
 3580 01de F901      		movw r30,r18
 3581 01e0 6081      		ld r22,Z
 3582 01e2 862F      		mov r24,r22
 3583 01e4 90E0      		ldi r25,0
 3584 01e6 C097      		sbiw r24,48
 3585 01e8 0A97      		sbiw r24,10
 3586 01ea 00F0      		brlo .L365
 3587               	.L392:
 3588 01ec 8981      		ldd r24,Y+1
 3589 01ee 9A81      		ldd r25,Y+2
 3590 01f0 8E15      		cp r24,r14
 3591 01f2 9F05      		cpc r25,r15
 3592 01f4 00F0      		brlo .L366
 3593 01f6 CE01      		movw r24,r28
 3594 01f8 0196      		adiw r24,1
 3595 01fa C756      		subi r28,lo8(-1177)
 3596 01fc DB4F      		sbci r29,hi8(-1177)
 3597 01fe 2883      		st Y,r18
 3598 0200 C959      		subi r28,lo8(1177)
 3599 0202 D440      		sbci r29,hi8(1177)
 3600 0204 C656      		subi r28,lo8(-1178)
 3601 0206 DB4F      		sbci r29,hi8(-1178)
 3602 0208 3883      		st Y,r19
 3603 020a CA59      		subi r28,lo8(1178)
 3604 020c D440      		sbci r29,hi8(1178)
 3605 020e 0E94 0000 		call luaL_prepbuffer
 3606 0212 C656      		subi r28,lo8(-1178)
 3607 0214 DB4F      		sbci r29,hi8(-1178)
 3608 0216 3881      		ld r19,Y
 3609 0218 CA59      		subi r28,lo8(1178)
 3610 021a D440      		sbci r29,hi8(1178)
 3611 021c C756      		subi r28,lo8(-1177)
 3612 021e DB4F      		sbci r29,hi8(-1177)
 3613 0220 2881      		ld r18,Y
 3614 0222 C959      		subi r28,lo8(1177)
 3615 0224 D440      		sbci r29,hi8(1177)
 3616               	.L366:
 3617 0226 E981      		ldd r30,Y+1
 3618 0228 FA81      		ldd r31,Y+2
 3619 022a CF01      		movw r24,r30
 3620 022c 0196      		adiw r24,1
 3621 022e 9A83      		std Y+2,r25
 3622 0230 8983      		std Y+1,r24
 3623 0232 D901      		movw r26,r18
 3624 0234 8C91      		ld r24,X
 3625 0236 8083      		st Z,r24
 3626 0238 00C0      		rjmp .L364
 3627               	.L365:
 3628 023a 6033      		cpi r22,lo8(48)
 3629 023c 01F4      		brne .L367
 3630 023e C956      		subi r28,lo8(-1175)
 3631 0240 DB4F      		sbci r29,hi8(-1175)
 3632 0242 4881      		ld r20,Y
 3633 0244 5981      		ldd r21,Y+1
 3634 0246 C759      		subi r28,lo8(1175)
GAS LISTING /tmp/cckNJFLm.s 			page 66


 3635 0248 D440      		sbci r29,hi8(1175)
 3636 024a B801      		movw r22,r16
 3637 024c CE01      		movw r24,r28
 3638 024e 0196      		adiw r24,1
 3639 0250 0E94 0000 		call luaL_addlstring
 3640 0254 00C0      		rjmp .L364
 3641               	.L367:
 3642 0256 062E      		mov __tmp_reg__,r22
 3643 0258 000C      		lsl r0
 3644 025a 770B      		sbc r23,r23
 3645 025c 6153      		subi r22,49
 3646 025e 7109      		sbc r23,__zero_reg__
 3647 0260 9501      		movw r18,r10
 3648 0262 A801      		movw r20,r16
 3649 0264 C701      		movw r24,r14
 3650 0266 0E94 0000 		call push_onecapture
 3651 026a CE01      		movw r24,r28
 3652 026c 0196      		adiw r24,1
 3653 026e 0E94 0000 		call luaL_addvalue
 3654               	.L364:
 3655 0272 BFEF      		ldi r27,-1
 3656 0274 8B1A      		sub r8,r27
 3657 0276 9B0A      		sbc r9,r27
 3658 0278 00C0      		rjmp .L361
 3659               	.L359:
 3660 027a 63E0      		ldi r22,lo8(3)
 3661 027c 70E0      		ldi r23,0
 3662 027e 892D      		mov r24,r9
 3663 0280 982D      		mov r25,r8
 3664 0282 0E94 0000 		call lua_pushvalue
 3665 0286 A501      		movw r20,r10
 3666 0288 B801      		movw r22,r16
 3667 028a C701      		movw r24,r14
 3668 028c 0E94 0000 		call push_captures
 3669 0290 41E0      		ldi r20,lo8(1)
 3670 0292 50E0      		ldi r21,0
 3671 0294 BC01      		movw r22,r24
 3672 0296 892D      		mov r24,r9
 3673 0298 982D      		mov r25,r8
 3674 029a 0E94 0000 		call lua_call
 3675 029e 00C0      		rjmp .L356
 3676               	.L360:
 3677 02a0 9501      		movw r18,r10
 3678 02a2 A801      		movw r20,r16
 3679 02a4 60E0      		ldi r22,0
 3680 02a6 70E0      		ldi r23,0
 3681 02a8 C701      		movw r24,r14
 3682 02aa 0E94 0000 		call push_onecapture
 3683 02ae 63E0      		ldi r22,lo8(3)
 3684 02b0 70E0      		ldi r23,0
 3685 02b2 892D      		mov r24,r9
 3686 02b4 982D      		mov r25,r8
 3687 02b6 0E94 0000 		call lua_gettable
 3688               	.L356:
 3689 02ba 6FEF      		ldi r22,lo8(-1)
 3690 02bc 7FEF      		ldi r23,lo8(-1)
 3691 02be 892D      		mov r24,r9
GAS LISTING /tmp/cckNJFLm.s 			page 67


 3692 02c0 982D      		mov r25,r8
 3693 02c2 0E94 0000 		call lua_toboolean
 3694 02c6 892B      		or r24,r25
 3695 02c8 01F4      		brne .L370
 3696 02ca 6EEF      		ldi r22,lo8(-2)
 3697 02cc 7FEF      		ldi r23,lo8(-1)
 3698 02ce 892D      		mov r24,r9
 3699 02d0 982D      		mov r25,r8
 3700 02d2 0E94 0000 		call lua_settop
 3701 02d6 A501      		movw r20,r10
 3702 02d8 401B      		sub r20,r16
 3703 02da 510B      		sbc r21,r17
 3704 02dc B801      		movw r22,r16
 3705 02de 892D      		mov r24,r9
 3706 02e0 982D      		mov r25,r8
 3707 02e2 0E94 0000 		call lua_pushlstring
 3708 02e6 00C0      		rjmp .L371
 3709               	.L370:
 3710 02e8 6FEF      		ldi r22,lo8(-1)
 3711 02ea 7FEF      		ldi r23,lo8(-1)
 3712 02ec 892D      		mov r24,r9
 3713 02ee 982D      		mov r25,r8
 3714 02f0 0E94 0000 		call lua_isstring
 3715 02f4 892B      		or r24,r25
 3716 02f6 01F4      		brne .L371
 3717 02f8 6FEF      		ldi r22,lo8(-1)
 3718 02fa 7FEF      		ldi r23,lo8(-1)
 3719 02fc 892D      		mov r24,r9
 3720 02fe 982D      		mov r25,r8
 3721 0300 0E94 0000 		call lua_type
 3722 0304 BC01      		movw r22,r24
 3723 0306 892D      		mov r24,r9
 3724 0308 982D      		mov r25,r8
 3725 030a 0E94 0000 		call lua_typename
 3726 030e 9F93      		push r25
 3727 0310 8F93      		push r24
 3728 0312 A0E0      		ldi r26,lo8(.LC22)
 3729 0314 B0E0      		ldi r27,hi8(.LC22)
 3730 0316 BF93      		push r27
 3731 0318 AF93      		push r26
 3732 031a 8F92      		push r8
 3733 031c 9F92      		push r9
 3734 031e 0E94 0000 		call luaL_error
 3735 0322 0F90      		pop __tmp_reg__
 3736 0324 0F90      		pop __tmp_reg__
 3737 0326 0F90      		pop __tmp_reg__
 3738 0328 0F90      		pop __tmp_reg__
 3739 032a 0F90      		pop __tmp_reg__
 3740 032c 0F90      		pop __tmp_reg__
 3741               	.L371:
 3742 032e CE01      		movw r24,r28
 3743 0330 0196      		adiw r24,1
 3744 0332 0E94 0000 		call luaL_addvalue
 3745 0336 00C0      		rjmp .L369
 3746               	.L355:
 3747 0338 D701      		movw r26,r14
 3748 033a 1296      		adiw r26,2
GAS LISTING /tmp/cckNJFLm.s 			page 68


 3749 033c 8D91      		ld r24,X+
 3750 033e 9C91      		ld r25,X
 3751 0340 1397      		sbiw r26,2+1
 3752 0342 0817      		cp r16,r24
 3753 0344 1907      		cpc r17,r25
 3754 0346 00F4      		brsh .L372
 3755 0348 8981      		ldd r24,Y+1
 3756 034a 9A81      		ldd r25,Y+2
 3757 034c 8E15      		cp r24,r14
 3758 034e 9F05      		cpc r25,r15
 3759 0350 00F0      		brlo .L373
 3760 0352 CE01      		movw r24,r28
 3761 0354 0196      		adiw r24,1
 3762 0356 0E94 0000 		call luaL_prepbuffer
 3763               	.L373:
 3764 035a E981      		ldd r30,Y+1
 3765 035c FA81      		ldd r31,Y+2
 3766 035e CF01      		movw r24,r30
 3767 0360 0196      		adiw r24,1
 3768 0362 9A83      		std Y+2,r25
 3769 0364 8983      		std Y+1,r24
 3770 0366 D801      		movw r26,r16
 3771 0368 8C91      		ld r24,X
 3772 036a 8083      		st Z,r24
 3773 036c 0F5F      		subi r16,-1
 3774 036e 1F4F      		sbci r17,-1
 3775 0370 00C0      		rjmp .L375
 3776               	.L369:
 3777 0372 0A15      		cp r16,r10
 3778 0374 1B05      		cpc r17,r11
 3779 0376 00F4      		brsh .L355
 3780 0378 8501      		movw r16,r10
 3781               	.L375:
 3782 037a CD56      		subi r28,lo8(-1171)
 3783 037c DB4F      		sbci r29,hi8(-1171)
 3784 037e E881      		ld r30,Y
 3785 0380 F981      		ldd r31,Y+1
 3786 0382 C359      		subi r28,lo8(1171)
 3787 0384 D440      		sbci r29,hi8(1171)
 3788 0386 EF2B      		or r30,r31
 3789 0388 01F4      		brne .+2
 3790 038a 00C0      		rjmp .L354
 3791               	.L372:
 3792 038c D701      		movw r26,r14
 3793 038e 1296      		adiw r26,2
 3794 0390 4D91      		ld r20,X+
 3795 0392 5C91      		ld r21,X
 3796 0394 1397      		sbiw r26,2+1
 3797 0396 401B      		sub r20,r16
 3798 0398 510B      		sbc r21,r17
 3799 039a B801      		movw r22,r16
 3800 039c CE01      		movw r24,r28
 3801 039e 0196      		adiw r24,1
 3802 03a0 0E94 0000 		call luaL_addlstring
 3803 03a4 CE01      		movw r24,r28
 3804 03a6 0196      		adiw r24,1
 3805 03a8 0E94 0000 		call luaL_pushresult
GAS LISTING /tmp/cckNJFLm.s 			page 69


 3806 03ac B301      		movw r22,r6
 3807 03ae C601      		movw r24,r12
 3808 03b0 0E94 0000 		call lua_pushinteger
 3809 03b4 82E0      		ldi r24,lo8(2)
 3810 03b6 90E0      		ldi r25,0
 3811               	/* epilogue start */
 3812 03b8 C656      		subi r28,102
 3813 03ba DB4F      		sbci r29,-5
 3814 03bc 0FB6      		in __tmp_reg__,__SREG__
 3815 03be F894      		cli
 3816 03c0 DEBF      		out __SP_H__,r29
 3817 03c2 0FBE      		out __SREG__,__tmp_reg__
 3818 03c4 CDBF      		out __SP_L__,r28
 3819 03c6 DF91      		pop r29
 3820 03c8 CF91      		pop r28
 3821 03ca 1F91      		pop r17
 3822 03cc 0F91      		pop r16
 3823 03ce FF90      		pop r15
 3824 03d0 EF90      		pop r14
 3825 03d2 DF90      		pop r13
 3826 03d4 CF90      		pop r12
 3827 03d6 BF90      		pop r11
 3828 03d8 AF90      		pop r10
 3829 03da 9F90      		pop r9
 3830 03dc 8F90      		pop r8
 3831 03de 7F90      		pop r7
 3832 03e0 6F90      		pop r6
 3833 03e2 5F90      		pop r5
 3834 03e4 4F90      		pop r4
 3835 03e6 3F90      		pop r3
 3836 03e8 2F90      		pop r2
 3837 03ea 0895      		ret
 3838               		.size	str_gsub, .-str_gsub
 3839               		.section	.text.gmatch_aux,"ax",@progbits
 3840               		.type	gmatch_aux, @function
 3841               	gmatch_aux:
 3842 0000 8F92      		push r8
 3843 0002 9F92      		push r9
 3844 0004 AF92      		push r10
 3845 0006 BF92      		push r11
 3846 0008 CF92      		push r12
 3847 000a DF92      		push r13
 3848 000c EF92      		push r14
 3849 000e FF92      		push r15
 3850 0010 0F93      		push r16
 3851 0012 1F93      		push r17
 3852 0014 CF93      		push r28
 3853 0016 DF93      		push r29
 3854 0018 CDB7      		in r28,__SP_L__
 3855 001a DEB7      		in r29,__SP_H__
 3856 001c CA58      		subi r28,-118
 3857 001e D109      		sbc r29,__zero_reg__
 3858 0020 0FB6      		in __tmp_reg__,__SREG__
 3859 0022 F894      		cli
 3860 0024 DEBF      		out __SP_H__,r29
 3861 0026 0FBE      		out __SREG__,__tmp_reg__
 3862 0028 CDBF      		out __SP_L__,r28
GAS LISTING /tmp/cckNJFLm.s 			page 70


 3863               	/* prologue: function */
 3864               	/* frame size = 138 */
 3865               	/* stack size = 150 */
 3866               	.L__stack_usage = 150
 3867 002a 7C01      		movw r14,r24
 3868 002c AE01      		movw r20,r28
 3869 002e 4757      		subi r20,119
 3870 0030 5F4F      		sbci r21,-1
 3871 0032 6DEE      		ldi r22,lo8(-19)
 3872 0034 78ED      		ldi r23,lo8(-40)
 3873 0036 0E94 0000 		call lua_tolstring
 3874 003a 6C01      		movw r12,r24
 3875 003c 40E0      		ldi r20,0
 3876 003e 50E0      		ldi r21,0
 3877 0040 6CEE      		ldi r22,lo8(-20)
 3878 0042 78ED      		ldi r23,lo8(-40)
 3879 0044 C701      		movw r24,r14
 3880 0046 0E94 0000 		call lua_tolstring
 3881 004a 4C01      		movw r8,r24
 3882 004c FE82      		std Y+6,r15
 3883 004e ED82      		std Y+5,r14
 3884 0050 DA82      		std Y+2,r13
 3885 0052 C982      		std Y+1,r12
 3886 0054 C757      		subi r28,lo8(-137)
 3887 0056 DF4F      		sbci r29,hi8(-137)
 3888 0058 8881      		ld r24,Y
 3889 005a 9981      		ldd r25,Y+1
 3890 005c C958      		subi r28,lo8(137)
 3891 005e D040      		sbci r29,hi8(137)
 3892 0060 8C0D      		add r24,r12
 3893 0062 9D1D      		adc r25,r13
 3894 0064 9C83      		std Y+4,r25
 3895 0066 8B83      		std Y+3,r24
 3896 0068 6BEE      		ldi r22,lo8(-21)
 3897 006a 78ED      		ldi r23,lo8(-40)
 3898 006c C701      		movw r24,r14
 3899 006e 0E94 0000 		call lua_tointeger
 3900 0072 8601      		movw r16,r12
 3901 0074 080F      		add r16,r24
 3902 0076 191F      		adc r17,r25
 3903               	.L394:
 3904 0078 8B81      		ldd r24,Y+3
 3905 007a 9C81      		ldd r25,Y+4
 3906 007c 8017      		cp r24,r16
 3907 007e 9107      		cpc r25,r17
 3908 0080 00F0      		brlo .L399
 3909 0082 1886      		std Y+8,__zero_reg__
 3910 0084 1F82      		std Y+7,__zero_reg__
 3911 0086 A401      		movw r20,r8
 3912 0088 B801      		movw r22,r16
 3913 008a CE01      		movw r24,r28
 3914 008c 0196      		adiw r24,1
 3915 008e 0E94 0000 		call match
 3916 0092 5C01      		movw r10,r24
 3917 0094 0097      		sbiw r24,0
 3918 0096 01F0      		breq .L395
 3919 0098 BC01      		movw r22,r24
GAS LISTING /tmp/cckNJFLm.s 			page 71


 3920 009a 6C19      		sub r22,r12
 3921 009c 7D09      		sbc r23,r13
 3922 009e 0817      		cp r16,r24
 3923 00a0 1907      		cpc r17,r25
 3924 00a2 01F4      		brne .L396
 3925 00a4 6F5F      		subi r22,-1
 3926 00a6 7F4F      		sbci r23,-1
 3927               	.L396:
 3928 00a8 C701      		movw r24,r14
 3929 00aa 0E94 0000 		call lua_pushinteger
 3930 00ae 6BEE      		ldi r22,lo8(-21)
 3931 00b0 78ED      		ldi r23,lo8(-40)
 3932 00b2 C701      		movw r24,r14
 3933 00b4 0E94 0000 		call lua_replace
 3934 00b8 A501      		movw r20,r10
 3935 00ba B801      		movw r22,r16
 3936 00bc CE01      		movw r24,r28
 3937 00be 0196      		adiw r24,1
 3938 00c0 0E94 0000 		call push_captures
 3939 00c4 00C0      		rjmp .L397
 3940               	.L395:
 3941 00c6 0F5F      		subi r16,-1
 3942 00c8 1F4F      		sbci r17,-1
 3943 00ca 00C0      		rjmp .L394
 3944               	.L399:
 3945 00cc 80E0      		ldi r24,0
 3946 00ce 90E0      		ldi r25,0
 3947               	.L397:
 3948               	/* epilogue start */
 3949 00d0 C657      		subi r28,118
 3950 00d2 DF4F      		sbci r29,-1
 3951 00d4 0FB6      		in __tmp_reg__,__SREG__
 3952 00d6 F894      		cli
 3953 00d8 DEBF      		out __SP_H__,r29
 3954 00da 0FBE      		out __SREG__,__tmp_reg__
 3955 00dc CDBF      		out __SP_L__,r28
 3956 00de DF91      		pop r29
 3957 00e0 CF91      		pop r28
 3958 00e2 1F91      		pop r17
 3959 00e4 0F91      		pop r16
 3960 00e6 FF90      		pop r15
 3961 00e8 EF90      		pop r14
 3962 00ea DF90      		pop r13
 3963 00ec CF90      		pop r12
 3964 00ee BF90      		pop r11
 3965 00f0 AF90      		pop r10
 3966 00f2 9F90      		pop r9
 3967 00f4 8F90      		pop r8
 3968 00f6 0895      		ret
 3969               		.size	gmatch_aux, .-gmatch_aux
 3970               		.section	.rodata.str1.1
 3971               	.LC23:
 3972 0215 7374 7269 		.string	"string"
 3972      6E67 00
 3973               	.LC24:
 3974 021c 676D 6174 		.string	"gmatch"
 3974      6368 00
GAS LISTING /tmp/cckNJFLm.s 			page 72


 3975               	.LC25:
 3976 0223 6766 696E 		.string	"gfind"
 3976      6400 
 3977               	.LC26:
 3978 0229 5F5F 696E 		.string	"__index"
 3978      6465 7800 
 3979               		.section	.text.luaopen_string,"ax",@progbits
 3980               	.global	luaopen_string
 3981               		.type	luaopen_string, @function
 3982               	luaopen_string:
 3983 0000 CF93      		push r28
 3984 0002 DF93      		push r29
 3985               	/* prologue: function */
 3986               	/* frame size = 0 */
 3987               	/* stack size = 2 */
 3988               	.L__stack_usage = 2
 3989 0004 EC01      		movw r28,r24
 3990 0006 40E0      		ldi r20,lo8(strlib)
 3991 0008 50E0      		ldi r21,hi8(strlib)
 3992 000a 60E0      		ldi r22,lo8(.LC23)
 3993 000c 70E0      		ldi r23,hi8(.LC23)
 3994 000e 0E94 0000 		call luaL_register
 3995 0012 40E0      		ldi r20,lo8(.LC24)
 3996 0014 50E0      		ldi r21,hi8(.LC24)
 3997 0016 6FEF      		ldi r22,lo8(-1)
 3998 0018 7FEF      		ldi r23,lo8(-1)
 3999 001a CE01      		movw r24,r28
 4000 001c 0E94 0000 		call lua_getfield
 4001 0020 40E0      		ldi r20,lo8(.LC25)
 4002 0022 50E0      		ldi r21,hi8(.LC25)
 4003 0024 6EEF      		ldi r22,lo8(-2)
 4004 0026 7FEF      		ldi r23,lo8(-1)
 4005 0028 CE01      		movw r24,r28
 4006 002a 0E94 0000 		call lua_setfield
 4007 002e 41E0      		ldi r20,lo8(1)
 4008 0030 50E0      		ldi r21,0
 4009 0032 60E0      		ldi r22,0
 4010 0034 70E0      		ldi r23,0
 4011 0036 CE01      		movw r24,r28
 4012 0038 0E94 0000 		call lua_createtable
 4013 003c 40E0      		ldi r20,0
 4014 003e 50E0      		ldi r21,0
 4015 0040 60E0      		ldi r22,lo8(.LC15)
 4016 0042 70E0      		ldi r23,hi8(.LC15)
 4017 0044 CE01      		movw r24,r28
 4018 0046 0E94 0000 		call lua_pushlstring
 4019 004a 6EEF      		ldi r22,lo8(-2)
 4020 004c 7FEF      		ldi r23,lo8(-1)
 4021 004e CE01      		movw r24,r28
 4022 0050 0E94 0000 		call lua_pushvalue
 4023 0054 6EEF      		ldi r22,lo8(-2)
 4024 0056 7FEF      		ldi r23,lo8(-1)
 4025 0058 CE01      		movw r24,r28
 4026 005a 0E94 0000 		call lua_setmetatable
 4027 005e 6EEF      		ldi r22,lo8(-2)
 4028 0060 7FEF      		ldi r23,lo8(-1)
 4029 0062 CE01      		movw r24,r28
GAS LISTING /tmp/cckNJFLm.s 			page 73


 4030 0064 0E94 0000 		call lua_settop
 4031 0068 6EEF      		ldi r22,lo8(-2)
 4032 006a 7FEF      		ldi r23,lo8(-1)
 4033 006c CE01      		movw r24,r28
 4034 006e 0E94 0000 		call lua_pushvalue
 4035 0072 40E0      		ldi r20,lo8(.LC26)
 4036 0074 50E0      		ldi r21,hi8(.LC26)
 4037 0076 6EEF      		ldi r22,lo8(-2)
 4038 0078 7FEF      		ldi r23,lo8(-1)
 4039 007a CE01      		movw r24,r28
 4040 007c 0E94 0000 		call lua_setfield
 4041 0080 6EEF      		ldi r22,lo8(-2)
 4042 0082 7FEF      		ldi r23,lo8(-1)
 4043 0084 CE01      		movw r24,r28
 4044 0086 0E94 0000 		call lua_settop
 4045 008a 81E0      		ldi r24,lo8(1)
 4046 008c 90E0      		ldi r25,0
 4047               	/* epilogue start */
 4048 008e DF91      		pop r29
 4049 0090 CF91      		pop r28
 4050 0092 0895      		ret
 4051               		.size	luaopen_string, .-luaopen_string
 4052               		.section	.rodata.str1.1
 4053               	.LC27:
 4054 0231 6279 7465 		.string	"byte"
 4054      00
 4055               	.LC28:
 4056 0236 6368 6172 		.string	"char"
 4056      00
 4057               	.LC29:
 4058 023b 6475 6D70 		.string	"dump"
 4058      00
 4059               	.LC30:
 4060 0240 6669 6E64 		.string	"find"
 4060      00
 4061               	.LC31:
 4062 0245 666F 726D 		.string	"format"
 4062      6174 00
 4063               	.LC32:
 4064 024c 6773 7562 		.string	"gsub"
 4064      00
 4065               	.LC33:
 4066 0251 6C65 6E00 		.string	"len"
 4067               	.LC34:
 4068 0255 6C6F 7765 		.string	"lower"
 4068      7200 
 4069               	.LC35:
 4070 025b 6D61 7463 		.string	"match"
 4070      6800 
 4071               	.LC36:
 4072 0261 7265 7000 		.string	"rep"
 4073               	.LC37:
 4074 0265 7265 7665 		.string	"reverse"
 4074      7273 6500 
 4075               	.LC38:
 4076 026d 7375 6200 		.string	"sub"
 4077               	.LC39:
GAS LISTING /tmp/cckNJFLm.s 			page 74


 4078 0271 7570 7065 		.string	"upper"
 4078      7200 
 4079               		.section	.rodata
 4080               		.type	strlib, @object
 4081               		.size	strlib, 64
 4082               	strlib:
 4083 0000 0000      		.word	.LC27
 4084 0002 0000      		.word	gs(str_byte)
 4085 0004 0000      		.word	.LC28
 4086 0006 0000      		.word	gs(str_char)
 4087 0008 0000      		.word	.LC29
 4088 000a 0000      		.word	gs(str_dump)
 4089 000c 0000      		.word	.LC30
 4090 000e 0000      		.word	gs(str_find)
 4091 0010 0000      		.word	.LC31
 4092 0012 0000      		.word	gs(str_format)
 4093 0014 0000      		.word	.LC25
 4094 0016 0000      		.word	gs(gfind_nodef)
 4095 0018 0000      		.word	.LC24
 4096 001a 0000      		.word	gs(gmatch)
 4097 001c 0000      		.word	.LC32
 4098 001e 0000      		.word	gs(str_gsub)
 4099 0020 0000      		.word	.LC33
 4100 0022 0000      		.word	gs(str_len)
 4101 0024 0000      		.word	.LC34
 4102 0026 0000      		.word	gs(str_lower)
 4103 0028 0000      		.word	.LC35
 4104 002a 0000      		.word	gs(str_match)
 4105 002c 0000      		.word	.LC36
 4106 002e 0000      		.word	gs(str_rep)
 4107 0030 0000      		.word	.LC37
 4108 0032 0000      		.word	gs(str_reverse)
 4109 0034 0000      		.word	.LC38
 4110 0036 0000      		.word	gs(str_sub)
 4111 0038 0000      		.word	.LC39
 4112 003a 0000      		.word	gs(str_upper)
 4113 003c 0000      		.word	0
 4114 003e 0000      		.word	0
 4115               		.ident	"GCC: (GNU) 5.3.0"
 4116               	.global __do_copy_data
GAS LISTING /tmp/cckNJFLm.s 			page 75


DEFINED SYMBOLS
                            *ABS*:0000000000000000 lstrlib.c
     /tmp/cckNJFLm.s:2      *ABS*:000000000000003e __SP_H__
     /tmp/cckNJFLm.s:3      *ABS*:000000000000003d __SP_L__
     /tmp/cckNJFLm.s:4      *ABS*:000000000000003f __SREG__
     /tmp/cckNJFLm.s:5      *ABS*:000000000000003b __RAMPZ__
     /tmp/cckNJFLm.s:6      *ABS*:0000000000000000 __tmp_reg__
     /tmp/cckNJFLm.s:7      *ABS*:0000000000000001 __zero_reg__
     /tmp/cckNJFLm.s:10     .text.str_upper:0000000000000000 str_upper
     /tmp/cckNJFLm.s:110    .text.str_reverse:0000000000000000 str_reverse
     /tmp/cckNJFLm.s:207    .text.str_rep:0000000000000000 str_rep
     /tmp/cckNJFLm.s:291    .text.writer:0000000000000000 writer
     /tmp/cckNJFLm.s:304    .text.str_len:0000000000000000 str_len
     /tmp/cckNJFLm.s:344    .text.gfind_nodef:0000000000000000 gfind_nodef
     /tmp/cckNJFLm.s:364    .text.str_lower:0000000000000000 str_lower
     /tmp/cckNJFLm.s:464    .text.match_class:0000000000000000 match_class
     /tmp/cckNJFLm.s:601    .text.matchbracketclass:0000000000000000 matchbracketclass
     /tmp/cckNJFLm.s:699    .text.gmatch:0000000000000000 gmatch
     /tmp/cckNJFLm.s:3841   .text.gmatch_aux:0000000000000000 gmatch_aux
     /tmp/cckNJFLm.s:744    .text.addintlen:0000000000000000 addintlen
     /tmp/cckNJFLm.s:800    .text.str_format:0000000000000000 str_format
     /tmp/cckNJFLm.s:1416   .text.str_dump:0000000000000000 str_dump
     /tmp/cckNJFLm.s:1498   .text.str_char:0000000000000000 str_char
     /tmp/cckNJFLm.s:1611   .text.classend.isra.0:0000000000000000 classend.isra.0
     /tmp/cckNJFLm.s:1720   .text.push_onecapture:0000000000000000 push_onecapture
     /tmp/cckNJFLm.s:1859   .text.push_captures:0000000000000000 push_captures
     /tmp/cckNJFLm.s:1929   .text.singlematch:0000000000000000 singlematch
     /tmp/cckNJFLm.s:1970   .text.str_sub:0000000000000000 str_sub
     /tmp/cckNJFLm.s:2093   .text.str_byte:0000000000000000 str_byte
     /tmp/cckNJFLm.s:2262   .text.match:0000000000000000 match
     /tmp/cckNJFLm.s:2892   .text.max_expand:0000000000000000 max_expand
     /tmp/cckNJFLm.s:2976   .text.str_find_aux:0000000000000000 str_find_aux
     /tmp/cckNJFLm.s:3311   .text.str_match:0000000000000000 str_match
     /tmp/cckNJFLm.s:3322   .text.str_find:0000000000000000 str_find
     /tmp/cckNJFLm.s:3338   .text.str_gsub:0000000000000000 str_gsub
     /tmp/cckNJFLm.s:3982   .text.luaopen_string:0000000000000000 luaopen_string
     /tmp/cckNJFLm.s:4082   .rodata:0000000000000000 strlib

UNDEFINED SYMBOLS
luaL_checklstring
luaL_buffinit
luaL_prepbuffer
toupper
luaL_pushresult
luaL_checkinteger
luaL_addlstring
lua_pushinteger
luaL_error
tolower
__tablejump2__
isalpha
iscntrl
islower
ispunct
isspace
isupper
isalnum
GAS LISTING /tmp/cckNJFLm.s 			page 76


isxdigit
lua_settop
lua_pushcclosure
strcpy
__floatsisf
strchr
strncpy
luaL_checknumber
sprintf
lua_pushvalue
luaL_addvalue
luaL_checktype
lua_dump
lua_gettop
luaL_argerror
lua_pushlstring
luaL_checkstack
luaL_optinteger
memcmp
lua_toboolean
strpbrk
memchr
lua_pushnil
lua_type
lua_tolstring
lua_call
lua_gettable
lua_isstring
lua_typename
lua_tointeger
lua_replace
luaL_register
lua_getfield
lua_setfield
lua_createtable
lua_setmetatable
__do_copy_data
