GAS LISTING /tmp/cc6gozzH.s 			page 1


   1               		.file	"ltm.c"
   2               	__SP_H__ = 0x3e
   3               	__SP_L__ = 0x3d
   4               	__SREG__ = 0x3f
   5               	__RAMPZ__ = 0x3b
   6               	__tmp_reg__ = 0
   7               	__zero_reg__ = 1
   8               		.section	.text.luaT_init,"ax",@progbits
   9               	.global	luaT_init
  10               		.hidden	luaT_init
  11               		.type	luaT_init, @function
  12               	luaT_init:
  13 0000 CF92      		push r12
  14 0002 DF92      		push r13
  15 0004 EF92      		push r14
  16 0006 FF92      		push r15
  17 0008 0F93      		push r16
  18 000a 1F93      		push r17
  19 000c CF93      		push r28
  20 000e DF93      		push r29
  21               	/* prologue: function */
  22               	/* frame size = 0 */
  23               	/* stack size = 8 */
  24               	.L__stack_usage = 8
  25 0010 8C01      		movw r16,r24
  26 0012 50E0      		ldi r21,lo8(luaT_eventname.3001)
  27 0014 E52E      		mov r14,r21
  28 0016 50E0      		ldi r21,hi8(luaT_eventname.3001)
  29 0018 F52E      		mov r15,r21
  30 001a C0E0      		ldi r28,0
  31 001c D0E0      		ldi r29,0
  32               	.L2:
  33 001e F801      		movw r30,r16
  34 0020 C184      		ldd r12,Z+9
  35 0022 D284      		ldd r13,Z+10
  36 0024 F701      		movw r30,r14
  37 0026 6191      		ld r22,Z+
  38 0028 7191      		ld r23,Z+
  39 002a 7F01      		movw r14,r30
  40 002c FB01      		movw r30,r22
  41               		0:
  42 002e 0190      		ld __tmp_reg__,Z+
  43 0030 0020      		tst __tmp_reg__
  44 0032 01F4      		brne 0b
  45 0034 3197      		sbiw r30,1
  46 0036 AF01      		movw r20,r30
  47 0038 461B      		sub r20,r22
  48 003a 570B      		sbc r21,r23
  49 003c C801      		movw r24,r16
  50 003e 0E94 0000 		call luaS_newlstr
  51 0042 9E01      		movw r18,r28
  52 0044 2F5C      		subi r18,-49
  53 0046 3F4F      		sbci r19,-1
  54 0048 220F      		lsl r18
  55 004a 331F      		rol r19
  56 004c F601      		movw r30,r12
  57 004e E20F      		add r30,r18
GAS LISTING /tmp/cc6gozzH.s 			page 2


  58 0050 F31F      		adc r31,r19
  59 0052 9183      		std Z+1,r25
  60 0054 8083      		st Z,r24
  61 0056 F801      		movw r30,r16
  62 0058 8185      		ldd r24,Z+9
  63 005a 9285      		ldd r25,Z+10
  64 005c FC01      		movw r30,r24
  65 005e E20F      		add r30,r18
  66 0060 F31F      		adc r31,r19
  67 0062 0190      		ld __tmp_reg__,Z+
  68 0064 F081      		ld r31,Z
  69 0066 E02D      		mov r30,__tmp_reg__
  70 0068 8381      		ldd r24,Z+3
  71 006a 8062      		ori r24,lo8(32)
  72 006c 8383      		std Z+3,r24
  73 006e 2196      		adiw r28,1
  74 0070 C131      		cpi r28,17
  75 0072 D105      		cpc r29,__zero_reg__
  76 0074 01F4      		brne .L2
  77               	/* epilogue start */
  78 0076 DF91      		pop r29
  79 0078 CF91      		pop r28
  80 007a 1F91      		pop r17
  81 007c 0F91      		pop r16
  82 007e FF90      		pop r15
  83 0080 EF90      		pop r14
  84 0082 DF90      		pop r13
  85 0084 CF90      		pop r12
  86 0086 0895      		ret
  87               		.size	luaT_init, .-luaT_init
  88               		.section	.text.luaT_gettm,"ax",@progbits
  89               	.global	luaT_gettm
  90               		.hidden	luaT_gettm
  91               		.type	luaT_gettm, @function
  92               	luaT_gettm:
  93 0000 1F93      		push r17
  94 0002 CF93      		push r28
  95 0004 DF93      		push r29
  96               	/* prologue: function */
  97               	/* frame size = 0 */
  98               	/* stack size = 3 */
  99               	.L__stack_usage = 3
 100 0006 EC01      		movw r28,r24
 101 0008 162F      		mov r17,r22
 102 000a BA01      		movw r22,r20
 103 000c 0E94 0000 		call luaH_getstr
 104 0010 FC01      		movw r30,r24
 105 0012 8481      		ldd r24,Z+4
 106 0014 9581      		ldd r25,Z+5
 107 0016 892B      		or r24,r25
 108 0018 01F4      		brne .L7
 109 001a 81E0      		ldi r24,lo8(1)
 110 001c 90E0      		ldi r25,0
 111 001e 00C0      		rjmp 2f
 112               		1:
 113 0020 880F      		lsl r24
 114               		2:
GAS LISTING /tmp/cc6gozzH.s 			page 3


 115 0022 1A95      		dec r17
 116 0024 02F4      		brpl 1b
 117 0026 9C81      		ldd r25,Y+4
 118 0028 892B      		or r24,r25
 119 002a 8C83      		std Y+4,r24
 120 002c 80E0      		ldi r24,0
 121 002e 90E0      		ldi r25,0
 122 0030 00C0      		rjmp .L6
 123               	.L7:
 124 0032 CF01      		movw r24,r30
 125               	.L6:
 126               	/* epilogue start */
 127 0034 DF91      		pop r29
 128 0036 CF91      		pop r28
 129 0038 1F91      		pop r17
 130 003a 0895      		ret
 131               		.size	luaT_gettm, .-luaT_gettm
 132               		.section	.text.luaT_gettmbyobj,"ax",@progbits
 133               	.global	luaT_gettmbyobj
 134               		.hidden	luaT_gettmbyobj
 135               		.type	luaT_gettmbyobj, @function
 136               	luaT_gettmbyobj:
 137               	/* prologue: function */
 138               	/* frame size = 0 */
 139               	/* stack size = 0 */
 140               	.L__stack_usage = 0
 141 0000 DC01      		movw r26,r24
 142 0002 FB01      		movw r30,r22
 143 0004 2481      		ldd r18,Z+4
 144 0006 3581      		ldd r19,Z+5
 145 0008 2730      		cpi r18,7
 146 000a 3105      		cpc r19,__zero_reg__
 147 000c 01F0      		breq .L10
 148 000e 2930      		cpi r18,9
 149 0010 3105      		cpc r19,__zero_reg__
 150 0012 01F4      		brne .L15
 151 0014 0190      		ld __tmp_reg__,Z+
 152 0016 F081      		ld r31,Z
 153 0018 E02D      		mov r30,__tmp_reg__
 154 001a 8481      		ldd r24,Z+4
 155 001c 9581      		ldd r25,Z+5
 156 001e 00C0      		rjmp .L12
 157               	.L10:
 158 0020 0190      		ld __tmp_reg__,Z+
 159 0022 F081      		ld r31,Z
 160 0024 E02D      		mov r30,__tmp_reg__
 161 0026 8681      		ldd r24,Z+6
 162 0028 9781      		ldd r25,Z+7
 163 002a 00C0      		rjmp .L12
 164               	.L15:
 165 002c 1996      		adiw r26,9
 166 002e ED91      		ld r30,X+
 167 0030 FC91      		ld r31,X
 168 0032 1A97      		sbiw r26,9+1
 169 0034 2A5D      		subi r18,-38
 170 0036 3F4F      		sbci r19,-1
 171 0038 220F      		lsl r18
GAS LISTING /tmp/cc6gozzH.s 			page 4


 172 003a 331F      		rol r19
 173 003c E20F      		add r30,r18
 174 003e F31F      		adc r31,r19
 175 0040 8081      		ld r24,Z
 176 0042 9181      		ldd r25,Z+1
 177               	.L12:
 178 0044 0097      		sbiw r24,0
 179 0046 01F0      		breq .L13
 180 0048 1996      		adiw r26,9
 181 004a ED91      		ld r30,X+
 182 004c FC91      		ld r31,X
 183 004e 1A97      		sbiw r26,9+1
 184 0050 4F5C      		subi r20,-49
 185 0052 5F4F      		sbci r21,-1
 186 0054 440F      		lsl r20
 187 0056 551F      		rol r21
 188 0058 E40F      		add r30,r20
 189 005a F51F      		adc r31,r21
 190 005c 6081      		ld r22,Z
 191 005e 7181      		ldd r23,Z+1
 192 0060 0C94 0000 		jmp luaH_getstr
 193               	.L13:
 194 0064 80E0      		ldi r24,lo8(luaO_nilobject_)
 195 0066 90E0      		ldi r25,hi8(luaO_nilobject_)
 196 0068 0895      		ret
 197               		.size	luaT_gettmbyobj, .-luaT_gettmbyobj
 198               		.section	.rodata.str1.1,"aMS",@progbits,1
 199               	.LC0:
 200 0000 5F5F 696E 		.string	"__index"
 200      6465 7800 
 201               	.LC1:
 202 0008 5F5F 6E65 		.string	"__newindex"
 202      7769 6E64 
 202      6578 00
 203               	.LC2:
 204 0013 5F5F 6763 		.string	"__gc"
 204      00
 205               	.LC3:
 206 0018 5F5F 6D6F 		.string	"__mode"
 206      6465 00
 207               	.LC4:
 208 001f 5F5F 6571 		.string	"__eq"
 208      00
 209               	.LC5:
 210 0024 5F5F 6164 		.string	"__add"
 210      6400 
 211               	.LC6:
 212 002a 5F5F 7375 		.string	"__sub"
 212      6200 
 213               	.LC7:
 214 0030 5F5F 6D75 		.string	"__mul"
 214      6C00 
 215               	.LC8:
 216 0036 5F5F 6469 		.string	"__div"
 216      7600 
 217               	.LC9:
 218 003c 5F5F 6D6F 		.string	"__mod"
GAS LISTING /tmp/cc6gozzH.s 			page 5


 218      6400 
 219               	.LC10:
 220 0042 5F5F 706F 		.string	"__pow"
 220      7700 
 221               	.LC11:
 222 0048 5F5F 756E 		.string	"__unm"
 222      6D00 
 223               	.LC12:
 224 004e 5F5F 6C65 		.string	"__len"
 224      6E00 
 225               	.LC13:
 226 0054 5F5F 6C74 		.string	"__lt"
 226      00
 227               	.LC14:
 228 0059 5F5F 6C65 		.string	"__le"
 228      00
 229               	.LC15:
 230 005e 5F5F 636F 		.string	"__concat"
 230      6E63 6174 
 230      00
 231               	.LC16:
 232 0067 5F5F 6361 		.string	"__call"
 232      6C6C 00
 233               		.section	.rodata
 234               		.type	luaT_eventname.3001, @object
 235               		.size	luaT_eventname.3001, 34
 236               	luaT_eventname.3001:
 237 0000 0000      		.word	.LC0
 238 0002 0000      		.word	.LC1
 239 0004 0000      		.word	.LC2
 240 0006 0000      		.word	.LC3
 241 0008 0000      		.word	.LC4
 242 000a 0000      		.word	.LC5
 243 000c 0000      		.word	.LC6
 244 000e 0000      		.word	.LC7
 245 0010 0000      		.word	.LC8
 246 0012 0000      		.word	.LC9
 247 0014 0000      		.word	.LC10
 248 0016 0000      		.word	.LC11
 249 0018 0000      		.word	.LC12
 250 001a 0000      		.word	.LC13
 251 001c 0000      		.word	.LC14
 252 001e 0000      		.word	.LC15
 253 0020 0000      		.word	.LC16
 254               		.hidden	luaT_typenames
 255               	.global	luaT_typenames
 256               		.section	.rodata.str1.1
 257               	.LC17:
 258 006e 6E69 6C00 		.string	"nil"
 259               	.LC18:
 260 0072 626F 6F6C 		.string	"boolean"
 260      6561 6E00 
 261               	.LC19:
 262 007a 726F 7461 		.string	"rotable"
 262      626C 6500 
 263               	.LC20:
 264 0082 6C69 6768 		.string	"lightfunction"
GAS LISTING /tmp/cc6gozzH.s 			page 6


 264      7466 756E 
 264      6374 696F 
 264      6E00 
 265               	.LC21:
 266 0090 7573 6572 		.string	"userdata"
 266      6461 7461 
 266      00
 267               	.LC22:
 268 0099 6E75 6D62 		.string	"number"
 268      6572 00
 269               	.LC23:
 270 00a0 7374 7269 		.string	"string"
 270      6E67 00
 271               	.LC24:
 272 00a7 7461 626C 		.string	"table"
 272      6500 
 273               	.LC25:
 274 00ad 6675 6E63 		.string	"function"
 274      7469 6F6E 
 274      00
 275               	.LC26:
 276 00b6 7468 7265 		.string	"thread"
 276      6164 00
 277               	.LC27:
 278 00bd 7072 6F74 		.string	"proto"
 278      6F00 
 279               	.LC28:
 280 00c3 7570 7661 		.string	"upval"
 280      6C00 
 281               		.section	.rodata
 282               		.type	luaT_typenames, @object
 283               		.size	luaT_typenames, 26
 284               	luaT_typenames:
 285 0022 0000      		.word	.LC17
 286 0024 0000      		.word	.LC18
 287 0026 0000      		.word	.LC19
 288 0028 0000      		.word	.LC20
 289 002a 0000      		.word	.LC21
 290 002c 0000      		.word	.LC22
 291 002e 0000      		.word	.LC23
 292 0030 0000      		.word	.LC24
 293 0032 0000      		.word	.LC25
 294 0034 0000      		.word	.LC21
 295 0036 0000      		.word	.LC26
 296 0038 0000      		.word	.LC27
 297 003a 0000      		.word	.LC28
 298               		.hidden	luaO_nilobject_
 299               		.hidden	luaH_getstr
 300               		.hidden	luaS_newlstr
 301               		.ident	"GCC: (GNU) 5.3.0"
 302               	.global __do_copy_data
GAS LISTING /tmp/cc6gozzH.s 			page 7


DEFINED SYMBOLS
                            *ABS*:0000000000000000 ltm.c
     /tmp/cc6gozzH.s:2      *ABS*:000000000000003e __SP_H__
     /tmp/cc6gozzH.s:3      *ABS*:000000000000003d __SP_L__
     /tmp/cc6gozzH.s:4      *ABS*:000000000000003f __SREG__
     /tmp/cc6gozzH.s:5      *ABS*:000000000000003b __RAMPZ__
     /tmp/cc6gozzH.s:6      *ABS*:0000000000000000 __tmp_reg__
     /tmp/cc6gozzH.s:7      *ABS*:0000000000000001 __zero_reg__
     /tmp/cc6gozzH.s:12     .text.luaT_init:0000000000000000 luaT_init
     /tmp/cc6gozzH.s:236    .rodata:0000000000000000 luaT_eventname.3001
     /tmp/cc6gozzH.s:92     .text.luaT_gettm:0000000000000000 luaT_gettm
     /tmp/cc6gozzH.s:136    .text.luaT_gettmbyobj:0000000000000000 luaT_gettmbyobj
     /tmp/cc6gozzH.s:284    .rodata:0000000000000022 luaT_typenames

UNDEFINED SYMBOLS
luaS_newlstr
luaH_getstr
luaO_nilobject_
__do_copy_data
