GAS LISTING /tmp/ccMWUBCM.s 			page 1


   1               		.file	"lundump.c"
   2               	__SP_H__ = 0x3e
   3               	__SP_L__ = 0x3d
   4               	__SREG__ = 0x3f
   5               	__RAMPZ__ = 0x3b
   6               	__tmp_reg__ = 0
   7               	__zero_reg__ = 1
   8               		.section	.rodata.str1.1,"aMS",@progbits,1
   9               	.LC0:
  10 0000 2573 3A20 		.string	"%s: %s in precompiled chunk"
  10      2573 2069 
  10      6E20 7072 
  10      6563 6F6D 
  10      7069 6C65 
  11               		.section	.text.error,"ax",@progbits
  12               		.type	error, @function
  13               	error:
  14 0000 CF93      		push r28
  15 0002 DF93      		push r29
  16               	/* prologue: function */
  17               	/* frame size = 0 */
  18               	/* stack size = 2 */
  19               	.L__stack_usage = 2
  20 0004 EC01      		movw r28,r24
  21 0006 7F93      		push r23
  22 0008 6F93      		push r22
  23 000a 8F81      		ldd r24,Y+7
  24 000c 8F93      		push r24
  25 000e 8E81      		ldd r24,Y+6
  26 0010 8F93      		push r24
  27 0012 80E0      		ldi r24,lo8(.LC0)
  28 0014 90E0      		ldi r25,hi8(.LC0)
  29 0016 9F93      		push r25
  30 0018 8F93      		push r24
  31 001a 8981      		ldd r24,Y+1
  32 001c 8F93      		push r24
  33 001e 8881      		ld r24,Y
  34 0020 8F93      		push r24
  35 0022 0E94 0000 		call luaO_pushfstring
  36 0026 8DB7      		in r24,__SP_L__
  37 0028 9EB7      		in r25,__SP_H__
  38 002a 0896      		adiw r24,8
  39 002c 0FB6      		in __tmp_reg__,__SREG__
  40 002e F894      		cli
  41 0030 9EBF      		out __SP_H__,r25
  42 0032 0FBE      		out __SREG__,__tmp_reg__
  43 0034 8DBF      		out __SP_L__,r24
  44 0036 63E0      		ldi r22,lo8(3)
  45 0038 70E0      		ldi r23,0
  46 003a 8881      		ld r24,Y
  47 003c 9981      		ldd r25,Y+1
  48               	/* epilogue start */
  49 003e DF91      		pop r29
  50 0040 CF91      		pop r28
  51 0042 0C94 0000 		jmp luaD_throw
  52               		.size	error, .-error
  53               		.section	.rodata.str1.1
GAS LISTING /tmp/ccMWUBCM.s 			page 2


  54               	.LC1:
  55 001c 756E 6578 		.string	"unexpected end"
  55      7065 6374 
  55      6564 2065 
  55      6E64 00
  56               		.section	.text.LoadBlock,"ax",@progbits
  57               		.type	LoadBlock, @function
  58               	LoadBlock:
  59 0000 CF93      		push r28
  60 0002 DF93      		push r29
  61               	/* prologue: function */
  62               	/* frame size = 0 */
  63               	/* stack size = 2 */
  64               	.L__stack_usage = 2
  65 0004 EC01      		movw r28,r24
  66 0006 8A81      		ldd r24,Y+2
  67 0008 9B81      		ldd r25,Y+3
  68 000a 0E94 0000 		call luaZ_read
  69 000e 892B      		or r24,r25
  70 0010 01F0      		breq .L2
  71 0012 60E0      		ldi r22,lo8(.LC1)
  72 0014 70E0      		ldi r23,hi8(.LC1)
  73 0016 CE01      		movw r24,r28
  74               	/* epilogue start */
  75 0018 DF91      		pop r29
  76 001a CF91      		pop r28
  77 001c 0C94 0000 		jmp error
  78               	.L2:
  79               	/* epilogue start */
  80 0020 DF91      		pop r29
  81 0022 CF91      		pop r28
  82 0024 0895      		ret
  83               		.size	LoadBlock, .-LoadBlock
  84               		.section	.text.LoadChar,"ax",@progbits
  85               		.type	LoadChar, @function
  86               	LoadChar:
  87 0000 CF93      		push r28
  88 0002 DF93      		push r29
  89 0004 1F92      		push __zero_reg__
  90 0006 CDB7      		in r28,__SP_L__
  91 0008 DEB7      		in r29,__SP_H__
  92               	/* prologue: function */
  93               	/* frame size = 1 */
  94               	/* stack size = 3 */
  95               	.L__stack_usage = 3
  96 000a 41E0      		ldi r20,lo8(1)
  97 000c 50E0      		ldi r21,0
  98 000e BE01      		movw r22,r28
  99 0010 6F5F      		subi r22,-1
 100 0012 7F4F      		sbci r23,-1
 101 0014 0E94 0000 		call LoadBlock
 102 0018 8981      		ldd r24,Y+1
 103 001a 082E      		mov __tmp_reg__,r24
 104 001c 000C      		lsl r0
 105 001e 990B      		sbc r25,r25
 106               	/* epilogue start */
 107 0020 0F90      		pop __tmp_reg__
GAS LISTING /tmp/ccMWUBCM.s 			page 3


 108 0022 DF91      		pop r29
 109 0024 CF91      		pop r28
 110 0026 0895      		ret
 111               		.size	LoadChar, .-LoadChar
 112               		.section	.rodata.str1.1
 113               	.LC2:
 114 002b 6261 6420 		.string	"bad integer"
 114      696E 7465 
 114      6765 7200 
 115               		.section	.text.LoadInt,"ax",@progbits
 116               		.type	LoadInt, @function
 117               	LoadInt:
 118 0000 0F93      		push r16
 119 0002 1F93      		push r17
 120 0004 CF93      		push r28
 121 0006 DF93      		push r29
 122 0008 1F92      		push __zero_reg__
 123 000a 1F92      		push __zero_reg__
 124 000c CDB7      		in r28,__SP_L__
 125 000e DEB7      		in r29,__SP_H__
 126               	/* prologue: function */
 127               	/* frame size = 2 */
 128               	/* stack size = 6 */
 129               	.L__stack_usage = 6
 130 0010 8C01      		movw r16,r24
 131 0012 42E0      		ldi r20,lo8(2)
 132 0014 50E0      		ldi r21,0
 133 0016 BE01      		movw r22,r28
 134 0018 6F5F      		subi r22,-1
 135 001a 7F4F      		sbci r23,-1
 136 001c 0E94 0000 		call LoadBlock
 137 0020 8981      		ldd r24,Y+1
 138 0022 9A81      		ldd r25,Y+2
 139 0024 97FF      		sbrs r25,7
 140 0026 00C0      		rjmp .L7
 141 0028 60E0      		ldi r22,lo8(.LC2)
 142 002a 70E0      		ldi r23,hi8(.LC2)
 143 002c C801      		movw r24,r16
 144 002e 0E94 0000 		call error
 145               	.L7:
 146 0032 8981      		ldd r24,Y+1
 147 0034 9A81      		ldd r25,Y+2
 148               	/* epilogue start */
 149 0036 0F90      		pop __tmp_reg__
 150 0038 0F90      		pop __tmp_reg__
 151 003a DF91      		pop r29
 152 003c CF91      		pop r28
 153 003e 1F91      		pop r17
 154 0040 0F91      		pop r16
 155 0042 0895      		ret
 156               		.size	LoadInt, .-LoadInt
 157               		.section	.text.LoadString,"ax",@progbits
 158               		.type	LoadString, @function
 159               	LoadString:
 160 0000 EF92      		push r14
 161 0002 FF92      		push r15
 162 0004 0F93      		push r16
GAS LISTING /tmp/ccMWUBCM.s 			page 4


 163 0006 1F93      		push r17
 164 0008 CF93      		push r28
 165 000a DF93      		push r29
 166 000c 1F92      		push __zero_reg__
 167 000e 1F92      		push __zero_reg__
 168 0010 CDB7      		in r28,__SP_L__
 169 0012 DEB7      		in r29,__SP_H__
 170               	/* prologue: function */
 171               	/* frame size = 2 */
 172               	/* stack size = 8 */
 173               	.L__stack_usage = 8
 174 0014 8C01      		movw r16,r24
 175 0016 42E0      		ldi r20,lo8(2)
 176 0018 50E0      		ldi r21,0
 177 001a BE01      		movw r22,r28
 178 001c 6F5F      		subi r22,-1
 179 001e 7F4F      		sbci r23,-1
 180 0020 0E94 0000 		call LoadBlock
 181 0024 4981      		ldd r20,Y+1
 182 0026 5A81      		ldd r21,Y+2
 183 0028 4115      		cp r20,__zero_reg__
 184 002a 5105      		cpc r21,__zero_reg__
 185 002c 01F0      		breq .L10
 186 002e F801      		movw r30,r16
 187 0030 6481      		ldd r22,Z+4
 188 0032 7581      		ldd r23,Z+5
 189 0034 8081      		ld r24,Z
 190 0036 9181      		ldd r25,Z+1
 191 0038 0E94 0000 		call luaZ_openspace
 192 003c 7C01      		movw r14,r24
 193 003e 4981      		ldd r20,Y+1
 194 0040 5A81      		ldd r21,Y+2
 195 0042 BC01      		movw r22,r24
 196 0044 C801      		movw r24,r16
 197 0046 0E94 0000 		call LoadBlock
 198 004a 4981      		ldd r20,Y+1
 199 004c 5A81      		ldd r21,Y+2
 200 004e 4150      		subi r20,1
 201 0050 5109      		sbc r21,__zero_reg__
 202 0052 B701      		movw r22,r14
 203 0054 F801      		movw r30,r16
 204 0056 8081      		ld r24,Z
 205 0058 9181      		ldd r25,Z+1
 206 005a 0E94 0000 		call luaS_newlstr
 207 005e 00C0      		rjmp .L9
 208               	.L10:
 209 0060 80E0      		ldi r24,0
 210 0062 90E0      		ldi r25,0
 211               	.L9:
 212               	/* epilogue start */
 213 0064 0F90      		pop __tmp_reg__
 214 0066 0F90      		pop __tmp_reg__
 215 0068 DF91      		pop r29
 216 006a CF91      		pop r28
 217 006c 1F91      		pop r17
 218 006e 0F91      		pop r16
 219 0070 FF90      		pop r15
GAS LISTING /tmp/ccMWUBCM.s 			page 5


 220 0072 EF90      		pop r14
 221 0074 0895      		ret
 222               		.size	LoadString, .-LoadString
 223               		.section	.rodata.str1.1
 224               	.LC3:
 225 0037 636F 6465 		.string	"code too deep"
 225      2074 6F6F 
 225      2064 6565 
 225      7000 
 226               	.LC4:
 227 0045 6261 6420 		.string	"bad constant"
 227      636F 6E73 
 227      7461 6E74 
 227      00
 228               	.LC5:
 229 0052 6261 6420 		.string	"bad code"
 229      636F 6465 
 229      00
 230               		.section	.text.LoadFunction,"ax",@progbits
 231               		.type	LoadFunction, @function
 232               	LoadFunction:
 233 0000 2F92      		push r2
 234 0002 3F92      		push r3
 235 0004 4F92      		push r4
 236 0006 5F92      		push r5
 237 0008 6F92      		push r6
 238 000a 7F92      		push r7
 239 000c 8F92      		push r8
 240 000e 9F92      		push r9
 241 0010 AF92      		push r10
 242 0012 BF92      		push r11
 243 0014 CF92      		push r12
 244 0016 DF92      		push r13
 245 0018 EF92      		push r14
 246 001a FF92      		push r15
 247 001c 0F93      		push r16
 248 001e 1F93      		push r17
 249 0020 CF93      		push r28
 250 0022 DF93      		push r29
 251 0024 00D0      		rcall .
 252 0026 1F92      		push __zero_reg__
 253 0028 CDB7      		in r28,__SP_L__
 254 002a DEB7      		in r29,__SP_H__
 255               	/* prologue: function */
 256               	/* frame size = 4 */
 257               	/* stack size = 22 */
 258               	.L__stack_usage = 22
 259 002c 8C01      		movw r16,r24
 260 002e 6B01      		movw r12,r22
 261 0030 DC01      		movw r26,r24
 262 0032 ED91      		ld r30,X+
 263 0034 FC91      		ld r31,X
 264 0036 838D      		ldd r24,Z+27
 265 0038 948D      		ldd r25,Z+28
 266 003a 0196      		adiw r24,1
 267 003c 948F      		std Z+28,r25
 268 003e 838F      		std Z+27,r24
GAS LISTING /tmp/ccMWUBCM.s 			page 6


 269 0040 893C      		cpi r24,-55
 270 0042 9105      		cpc r25,__zero_reg__
 271 0044 00F0      		brlo .L12
 272 0046 60E0      		ldi r22,lo8(.LC3)
 273 0048 70E0      		ldi r23,hi8(.LC3)
 274 004a C801      		movw r24,r16
 275 004c 0E94 0000 		call error
 276               	.L12:
 277 0050 F801      		movw r30,r16
 278 0052 8081      		ld r24,Z
 279 0054 9181      		ldd r25,Z+1
 280 0056 0E94 0000 		call luaF_newproto
 281 005a 7C01      		movw r14,r24
 282 005c D801      		movw r26,r16
 283 005e ED91      		ld r30,X+
 284 0060 FC91      		ld r31,X
 285 0062 A581      		ldd r26,Z+5
 286 0064 B681      		ldd r27,Z+6
 287 0066 1196      		adiw r26,1
 288 0068 9C93      		st X,r25
 289 006a 8E93      		st -X,r24
 290 006c 8BE0      		ldi r24,lo8(11)
 291 006e 90E0      		ldi r25,0
 292 0070 1596      		adiw r26,4+1
 293 0072 9C93      		st X,r25
 294 0074 8E93      		st -X,r24
 295 0076 1497      		sbiw r26,4
 296 0078 8785      		ldd r24,Z+15
 297 007a 9089      		ldd r25,Z+16
 298 007c 2581      		ldd r18,Z+5
 299 007e 3681      		ldd r19,Z+6
 300 0080 821B      		sub r24,r18
 301 0082 930B      		sbc r25,r19
 302 0084 0797      		sbiw r24,7
 303 0086 04F4      		brge .L13
 304 0088 61E0      		ldi r22,lo8(1)
 305 008a 70E0      		ldi r23,0
 306 008c CF01      		movw r24,r30
 307 008e 0E94 0000 		call luaD_growstack
 308               	.L13:
 309 0092 D801      		movw r26,r16
 310 0094 ED91      		ld r30,X+
 311 0096 FC91      		ld r31,X
 312 0098 8581      		ldd r24,Z+5
 313 009a 9681      		ldd r25,Z+6
 314 009c 0696      		adiw r24,6
 315 009e 9683      		std Z+6,r25
 316 00a0 8583      		std Z+5,r24
 317 00a2 C801      		movw r24,r16
 318 00a4 0E94 0000 		call LoadString
 319 00a8 F701      		movw r30,r14
 320 00aa 918B      		std Z+17,r25
 321 00ac 808B      		std Z+16,r24
 322 00ae 892B      		or r24,r25
 323 00b0 01F4      		brne .L14
 324 00b2 D18A      		std Z+17,r13
 325 00b4 C08A      		std Z+16,r12
GAS LISTING /tmp/ccMWUBCM.s 			page 7


 326               	.L14:
 327 00b6 C801      		movw r24,r16
 328 00b8 0E94 0000 		call LoadInt
 329 00bc D701      		movw r26,r14
 330 00be 5F96      		adiw r26,30+1
 331 00c0 9C93      		st X,r25
 332 00c2 8E93      		st -X,r24
 333 00c4 5E97      		sbiw r26,30
 334 00c6 C801      		movw r24,r16
 335 00c8 0E94 0000 		call LoadInt
 336 00cc F701      		movw r30,r14
 337 00ce 91A3      		std Z+33,r25
 338 00d0 80A3      		std Z+32,r24
 339 00d2 C801      		movw r24,r16
 340 00d4 0E94 0000 		call LoadChar
 341 00d8 D701      		movw r26,r14
 342 00da 9496      		adiw r26,36
 343 00dc 8C93      		st X,r24
 344 00de C801      		movw r24,r16
 345 00e0 0E94 0000 		call LoadChar
 346 00e4 F701      		movw r30,r14
 347 00e6 85A3      		std Z+37,r24
 348 00e8 C801      		movw r24,r16
 349 00ea 0E94 0000 		call LoadChar
 350 00ee D701      		movw r26,r14
 351 00f0 9696      		adiw r26,38
 352 00f2 8C93      		st X,r24
 353 00f4 C801      		movw r24,r16
 354 00f6 0E94 0000 		call LoadChar
 355 00fa F701      		movw r30,r14
 356 00fc 87A3      		std Z+39,r24
 357 00fe C801      		movw r24,r16
 358 0100 0E94 0000 		call LoadInt
 359 0104 6C01      		movw r12,r24
 360 0106 9C01      		movw r18,r24
 361 0108 2F5F      		subi r18,-1
 362 010a 3F4F      		sbci r19,-1
 363 010c D801      		movw r26,r16
 364 010e 8D91      		ld r24,X+
 365 0110 9C91      		ld r25,X
 366 0112 5601      		movw r10,r12
 367 0114 AA0C      		lsl r10
 368 0116 BB1C      		rol r11
 369 0118 AA0C      		lsl r10
 370 011a BB1C      		rol r11
 371 011c 2115      		cp r18,__zero_reg__
 372 011e 3044      		sbci r19,64
 373 0120 00F4      		brsh .L15
 374 0122 9501      		movw r18,r10
 375 0124 40E0      		ldi r20,0
 376 0126 50E0      		ldi r21,0
 377 0128 60E0      		ldi r22,0
 378 012a 70E0      		ldi r23,0
 379 012c 0E94 0000 		call luaM_realloc_
 380 0130 00C0      		rjmp .L16
 381               	.L15:
 382 0132 0E94 0000 		call luaM_toobig
GAS LISTING /tmp/ccMWUBCM.s 			page 8


 383               	.L16:
 384 0136 F701      		movw r30,r14
 385 0138 9783      		std Z+7,r25
 386 013a 8683      		std Z+6,r24
 387 013c D78A      		std Z+23,r13
 388 013e C68A      		std Z+22,r12
 389 0140 A501      		movw r20,r10
 390 0142 BC01      		movw r22,r24
 391 0144 C801      		movw r24,r16
 392 0146 0E94 0000 		call LoadBlock
 393 014a C801      		movw r24,r16
 394 014c 0E94 0000 		call LoadInt
 395 0150 5C01      		movw r10,r24
 396 0152 9C01      		movw r18,r24
 397 0154 2F5F      		subi r18,-1
 398 0156 3F4F      		sbci r19,-1
 399 0158 D801      		movw r26,r16
 400 015a 8D91      		ld r24,X+
 401 015c 9C91      		ld r25,X
 402 015e 2B3A      		cpi r18,-85
 403 0160 3A42      		sbci r19,42
 404 0162 00F4      		brsh .L17
 405 0164 46E0      		ldi r20,lo8(6)
 406 0166 4A9D      		mul r20,r10
 407 0168 9001      		movw r18,r0
 408 016a 4B9D      		mul r20,r11
 409 016c 300D      		add r19,r0
 410 016e 1124      		clr __zero_reg__
 411 0170 40E0      		ldi r20,0
 412 0172 50E0      		ldi r21,0
 413 0174 60E0      		ldi r22,0
 414 0176 70E0      		ldi r23,0
 415 0178 0E94 0000 		call luaM_realloc_
 416 017c 00C0      		rjmp .L18
 417               	.L17:
 418 017e 0E94 0000 		call luaM_toobig
 419               	.L18:
 420 0182 F701      		movw r30,r14
 421 0184 9583      		std Z+5,r25
 422 0186 8483      		std Z+4,r24
 423 0188 B58A      		std Z+21,r11
 424 018a A48A      		std Z+20,r10
 425 018c FC01      		movw r30,r24
 426 018e 3496      		adiw r30,4
 427 0190 80E0      		ldi r24,0
 428 0192 90E0      		ldi r25,0
 429               	.L19:
 430 0194 8A15      		cp r24,r10
 431 0196 9B05      		cpc r25,r11
 432 0198 04F4      		brge .L52
 433 019a 1182      		std Z+1,__zero_reg__
 434 019c 1082      		st Z,__zero_reg__
 435 019e 0196      		adiw r24,1
 436 01a0 3696      		adiw r30,6
 437 01a2 00C0      		rjmp .L19
 438               	.L52:
 439 01a4 812C      		mov r8,__zero_reg__
GAS LISTING /tmp/ccMWUBCM.s 			page 9


 440 01a6 912C      		mov r9,__zero_reg__
 441 01a8 412C      		mov r4,__zero_reg__
 442 01aa 512C      		mov r5,__zero_reg__
 443 01ac 2224      		clr r2
 444 01ae 2394      		inc r2
 445 01b0 312C      		mov r3,__zero_reg__
 446               	.L21:
 447 01b2 4A14      		cp r4,r10
 448 01b4 5B04      		cpc r5,r11
 449 01b6 04F0      		brlt .+2
 450 01b8 00C0      		rjmp .L53
 451 01ba D701      		movw r26,r14
 452 01bc 1496      		adiw r26,4
 453 01be CD90      		ld r12,X+
 454 01c0 DC90      		ld r13,X
 455 01c2 1597      		sbiw r26,4+1
 456 01c4 C80C      		add r12,r8
 457 01c6 D91C      		adc r13,r9
 458 01c8 C801      		movw r24,r16
 459 01ca 0E94 0000 		call LoadChar
 460 01ce 3C01      		movw r6,r24
 461 01d0 8130      		cpi r24,1
 462 01d2 9105      		cpc r25,__zero_reg__
 463 01d4 01F0      		breq .L23
 464 01d6 04F4      		brge .L24
 465 01d8 892B      		or r24,r25
 466 01da 01F4      		brne .L22
 467 01dc D601      		movw r26,r12
 468 01de 1596      		adiw r26,4+1
 469 01e0 1C92      		st X,__zero_reg__
 470 01e2 1E92      		st -X,__zero_reg__
 471 01e4 1497      		sbiw r26,4
 472 01e6 00C0      		rjmp .L28
 473               	.L24:
 474 01e8 8530      		cpi r24,5
 475 01ea 9105      		cpc r25,__zero_reg__
 476 01ec 01F0      		breq .L26
 477 01ee 0697      		sbiw r24,6
 478 01f0 01F4      		brne .L22
 479 01f2 C801      		movw r24,r16
 480 01f4 0E94 0000 		call LoadString
 481 01f8 D601      		movw r26,r12
 482 01fa 1196      		adiw r26,1
 483 01fc 9C93      		st X,r25
 484 01fe 8E93      		st -X,r24
 485 0200 1596      		adiw r26,4+1
 486 0202 7C92      		st X,r7
 487 0204 6E92      		st -X,r6
 488 0206 1497      		sbiw r26,4
 489 0208 00C0      		rjmp .L28
 490               	.L23:
 491 020a C801      		movw r24,r16
 492 020c 0E94 0000 		call LoadChar
 493 0210 21E0      		ldi r18,lo8(1)
 494 0212 30E0      		ldi r19,0
 495 0214 892B      		or r24,r25
 496 0216 01F4      		brne .L29
GAS LISTING /tmp/ccMWUBCM.s 			page 10


 497 0218 20E0      		ldi r18,0
 498 021a 30E0      		ldi r19,0
 499               	.L29:
 500 021c F601      		movw r30,r12
 501 021e 3183      		std Z+1,r19
 502 0220 2083      		st Z,r18
 503 0222 3582      		std Z+5,r3
 504 0224 2482      		std Z+4,r2
 505 0226 00C0      		rjmp .L28
 506               	.L26:
 507 0228 44E0      		ldi r20,lo8(4)
 508 022a 50E0      		ldi r21,0
 509 022c BE01      		movw r22,r28
 510 022e 6F5F      		subi r22,-1
 511 0230 7F4F      		sbci r23,-1
 512 0232 C801      		movw r24,r16
 513 0234 0E94 0000 		call LoadBlock
 514 0238 8981      		ldd r24,Y+1
 515 023a 9A81      		ldd r25,Y+2
 516 023c AB81      		ldd r26,Y+3
 517 023e BC81      		ldd r27,Y+4
 518 0240 F601      		movw r30,r12
 519 0242 8083      		st Z,r24
 520 0244 9183      		std Z+1,r25
 521 0246 A283      		std Z+2,r26
 522 0248 B383      		std Z+3,r27
 523 024a 7582      		std Z+5,r7
 524 024c 6482      		std Z+4,r6
 525 024e 00C0      		rjmp .L28
 526               	.L22:
 527 0250 60E0      		ldi r22,lo8(.LC4)
 528 0252 70E0      		ldi r23,hi8(.LC4)
 529 0254 C801      		movw r24,r16
 530 0256 0E94 0000 		call error
 531               	.L28:
 532 025a BFEF      		ldi r27,-1
 533 025c 4B1A      		sub r4,r27
 534 025e 5B0A      		sbc r5,r27
 535 0260 E6E0      		ldi r30,6
 536 0262 8E0E      		add r8,r30
 537 0264 911C      		adc r9,__zero_reg__
 538 0266 00C0      		rjmp .L21
 539               	.L53:
 540 0268 C801      		movw r24,r16
 541 026a 0E94 0000 		call LoadInt
 542 026e 6C01      		movw r12,r24
 543 0270 9C01      		movw r18,r24
 544 0272 2F5F      		subi r18,-1
 545 0274 3F4F      		sbci r19,-1
 546 0276 D801      		movw r26,r16
 547 0278 8D91      		ld r24,X+
 548 027a 9C91      		ld r25,X
 549 027c 2F3F      		cpi r18,-1
 550 027e 3F47      		sbci r19,127
 551 0280 00F4      		brsh .L31
 552 0282 9601      		movw r18,r12
 553 0284 220F      		lsl r18
GAS LISTING /tmp/ccMWUBCM.s 			page 11


 554 0286 331F      		rol r19
 555 0288 40E0      		ldi r20,0
 556 028a 50E0      		ldi r21,0
 557 028c 60E0      		ldi r22,0
 558 028e 70E0      		ldi r23,0
 559 0290 0E94 0000 		call luaM_realloc_
 560 0294 00C0      		rjmp .L32
 561               	.L31:
 562 0296 0E94 0000 		call luaM_toobig
 563               	.L32:
 564 029a F701      		movw r30,r14
 565 029c 9187      		std Z+9,r25
 566 029e 8087      		std Z+8,r24
 567 02a0 D38E      		std Z+27,r13
 568 02a2 C28E      		std Z+26,r12
 569 02a4 80E0      		ldi r24,0
 570 02a6 90E0      		ldi r25,0
 571               	.L33:
 572 02a8 8C15      		cp r24,r12
 573 02aa 9D05      		cpc r25,r13
 574 02ac 04F4      		brge .L54
 575 02ae 9C01      		movw r18,r24
 576 02b0 220F      		lsl r18
 577 02b2 331F      		rol r19
 578 02b4 D701      		movw r26,r14
 579 02b6 1896      		adiw r26,8
 580 02b8 ED91      		ld r30,X+
 581 02ba FC91      		ld r31,X
 582 02bc 1997      		sbiw r26,8+1
 583 02be E20F      		add r30,r18
 584 02c0 F31F      		adc r31,r19
 585 02c2 1182      		std Z+1,__zero_reg__
 586 02c4 1082      		st Z,__zero_reg__
 587 02c6 0196      		adiw r24,1
 588 02c8 00C0      		rjmp .L33
 589               	.L54:
 590 02ca A12C      		mov r10,__zero_reg__
 591 02cc B12C      		mov r11,__zero_reg__
 592               	.L35:
 593 02ce AC14      		cp r10,r12
 594 02d0 BD04      		cpc r11,r13
 595 02d2 04F4      		brge .L55
 596 02d4 C501      		movw r24,r10
 597 02d6 880F      		lsl r24
 598 02d8 991F      		rol r25
 599 02da F701      		movw r30,r14
 600 02dc 8084      		ldd r8,Z+8
 601 02de 9184      		ldd r9,Z+9
 602 02e0 880E      		add r8,r24
 603 02e2 991E      		adc r9,r25
 604 02e4 6089      		ldd r22,Z+16
 605 02e6 7189      		ldd r23,Z+17
 606 02e8 C801      		movw r24,r16
 607 02ea 0E94 0000 		call LoadFunction
 608 02ee D401      		movw r26,r8
 609 02f0 8D93      		st X+,r24
 610 02f2 9C93      		st X,r25
GAS LISTING /tmp/ccMWUBCM.s 			page 12


 611 02f4 BFEF      		ldi r27,-1
 612 02f6 AB1A      		sub r10,r27
 613 02f8 BB0A      		sbc r11,r27
 614 02fa 00C0      		rjmp .L35
 615               	.L55:
 616 02fc C801      		movw r24,r16
 617 02fe 0E94 0000 		call LoadInt
 618 0302 6C01      		movw r12,r24
 619 0304 9C01      		movw r18,r24
 620 0306 2F5F      		subi r18,-1
 621 0308 3F4F      		sbci r19,-1
 622 030a F801      		movw r30,r16
 623 030c 8081      		ld r24,Z
 624 030e 9181      		ldd r25,Z+1
 625 0310 5601      		movw r10,r12
 626 0312 AA0C      		lsl r10
 627 0314 BB1C      		rol r11
 628 0316 2F3F      		cpi r18,-1
 629 0318 3F47      		sbci r19,127
 630 031a 00F4      		brsh .L37
 631 031c 9501      		movw r18,r10
 632 031e 40E0      		ldi r20,0
 633 0320 50E0      		ldi r21,0
 634 0322 60E0      		ldi r22,0
 635 0324 70E0      		ldi r23,0
 636 0326 0E94 0000 		call luaM_realloc_
 637 032a 00C0      		rjmp .L38
 638               	.L37:
 639 032c 0E94 0000 		call luaM_toobig
 640               	.L38:
 641 0330 D701      		movw r26,r14
 642 0332 1B96      		adiw r26,10+1
 643 0334 9C93      		st X,r25
 644 0336 8E93      		st -X,r24
 645 0338 1A97      		sbiw r26,10
 646 033a 5996      		adiw r26,24+1
 647 033c DC92      		st X,r13
 648 033e CE92      		st -X,r12
 649 0340 5897      		sbiw r26,24
 650 0342 A501      		movw r20,r10
 651 0344 BC01      		movw r22,r24
 652 0346 C801      		movw r24,r16
 653 0348 0E94 0000 		call LoadBlock
 654 034c C801      		movw r24,r16
 655 034e 0E94 0000 		call LoadInt
 656 0352 6C01      		movw r12,r24
 657 0354 9C01      		movw r18,r24
 658 0356 2F5F      		subi r18,-1
 659 0358 3F4F      		sbci r19,-1
 660 035a F801      		movw r30,r16
 661 035c 8081      		ld r24,Z
 662 035e 9181      		ldd r25,Z+1
 663 0360 2B3A      		cpi r18,-85
 664 0362 3A42      		sbci r19,42
 665 0364 00F4      		brsh .L39
 666 0366 46E0      		ldi r20,lo8(6)
 667 0368 4C9D      		mul r20,r12
GAS LISTING /tmp/ccMWUBCM.s 			page 13


 668 036a 9001      		movw r18,r0
 669 036c 4D9D      		mul r20,r13
 670 036e 300D      		add r19,r0
 671 0370 1124      		clr __zero_reg__
 672 0372 40E0      		ldi r20,0
 673 0374 50E0      		ldi r21,0
 674 0376 60E0      		ldi r22,0
 675 0378 70E0      		ldi r23,0
 676 037a 0E94 0000 		call luaM_realloc_
 677 037e 00C0      		rjmp .L40
 678               	.L39:
 679 0380 0E94 0000 		call luaM_toobig
 680               	.L40:
 681 0384 D701      		movw r26,r14
 682 0386 1C96      		adiw r26,12
 683 0388 8C93      		st X,r24
 684 038a 1C97      		sbiw r26,12
 685 038c 1D96      		adiw r26,13
 686 038e 9C93      		st X,r25
 687 0390 1D97      		sbiw r26,13
 688 0392 5D96      		adiw r26,28+1
 689 0394 DC92      		st X,r13
 690 0396 CE92      		st -X,r12
 691 0398 5C97      		sbiw r26,28
 692 039a FC01      		movw r30,r24
 693 039c 80E0      		ldi r24,0
 694 039e 90E0      		ldi r25,0
 695               	.L41:
 696 03a0 8C15      		cp r24,r12
 697 03a2 9D05      		cpc r25,r13
 698 03a4 04F4      		brge .L56
 699 03a6 1182      		std Z+1,__zero_reg__
 700 03a8 1082      		st Z,__zero_reg__
 701 03aa 0196      		adiw r24,1
 702 03ac 3696      		adiw r30,6
 703 03ae 00C0      		rjmp .L41
 704               	.L56:
 705 03b0 A12C      		mov r10,__zero_reg__
 706 03b2 B12C      		mov r11,__zero_reg__
 707 03b4 612C      		mov r6,__zero_reg__
 708 03b6 712C      		mov r7,__zero_reg__
 709               	.L43:
 710 03b8 6C14      		cp r6,r12
 711 03ba 7D04      		cpc r7,r13
 712 03bc 04F4      		brge .L57
 713 03be F701      		movw r30,r14
 714 03c0 8484      		ldd r8,Z+12
 715 03c2 9584      		ldd r9,Z+13
 716 03c4 8A0C      		add r8,r10
 717 03c6 9B1C      		adc r9,r11
 718 03c8 C801      		movw r24,r16
 719 03ca 0E94 0000 		call LoadString
 720 03ce D401      		movw r26,r8
 721 03d0 8D93      		st X+,r24
 722 03d2 9C93      		st X,r25
 723 03d4 F701      		movw r30,r14
 724 03d6 8484      		ldd r8,Z+12
GAS LISTING /tmp/ccMWUBCM.s 			page 14


 725 03d8 9584      		ldd r9,Z+13
 726 03da 8A0C      		add r8,r10
 727 03dc 9B1C      		adc r9,r11
 728 03de C801      		movw r24,r16
 729 03e0 0E94 0000 		call LoadInt
 730 03e4 D401      		movw r26,r8
 731 03e6 1396      		adiw r26,2+1
 732 03e8 9C93      		st X,r25
 733 03ea 8E93      		st -X,r24
 734 03ec 1297      		sbiw r26,2
 735 03ee F701      		movw r30,r14
 736 03f0 8484      		ldd r8,Z+12
 737 03f2 9584      		ldd r9,Z+13
 738 03f4 8A0C      		add r8,r10
 739 03f6 9B1C      		adc r9,r11
 740 03f8 C801      		movw r24,r16
 741 03fa 0E94 0000 		call LoadInt
 742 03fe D401      		movw r26,r8
 743 0400 1596      		adiw r26,4+1
 744 0402 9C93      		st X,r25
 745 0404 8E93      		st -X,r24
 746 0406 1497      		sbiw r26,4
 747 0408 BFEF      		ldi r27,-1
 748 040a 6B1A      		sub r6,r27
 749 040c 7B0A      		sbc r7,r27
 750 040e E6E0      		ldi r30,6
 751 0410 AE0E      		add r10,r30
 752 0412 B11C      		adc r11,__zero_reg__
 753 0414 00C0      		rjmp .L43
 754               	.L57:
 755 0416 C801      		movw r24,r16
 756 0418 0E94 0000 		call LoadInt
 757 041c 6C01      		movw r12,r24
 758 041e 9C01      		movw r18,r24
 759 0420 2F5F      		subi r18,-1
 760 0422 3F4F      		sbci r19,-1
 761 0424 D801      		movw r26,r16
 762 0426 8D91      		ld r24,X+
 763 0428 9C91      		ld r25,X
 764 042a 2F3F      		cpi r18,-1
 765 042c 3F47      		sbci r19,127
 766 042e 00F4      		brsh .L45
 767 0430 9601      		movw r18,r12
 768 0432 220F      		lsl r18
 769 0434 331F      		rol r19
 770 0436 40E0      		ldi r20,0
 771 0438 50E0      		ldi r21,0
 772 043a 60E0      		ldi r22,0
 773 043c 70E0      		ldi r23,0
 774 043e 0E94 0000 		call luaM_realloc_
 775 0442 00C0      		rjmp .L46
 776               	.L45:
 777 0444 0E94 0000 		call luaM_toobig
 778               	.L46:
 779 0448 F701      		movw r30,r14
 780 044a 9787      		std Z+15,r25
 781 044c 8687      		std Z+14,r24
GAS LISTING /tmp/ccMWUBCM.s 			page 15


 782 044e D38A      		std Z+19,r13
 783 0450 C28A      		std Z+18,r12
 784 0452 80E0      		ldi r24,0
 785 0454 90E0      		ldi r25,0
 786               	.L47:
 787 0456 8C15      		cp r24,r12
 788 0458 9D05      		cpc r25,r13
 789 045a 04F4      		brge .L58
 790 045c 9C01      		movw r18,r24
 791 045e 220F      		lsl r18
 792 0460 331F      		rol r19
 793 0462 D701      		movw r26,r14
 794 0464 1E96      		adiw r26,14
 795 0466 ED91      		ld r30,X+
 796 0468 FC91      		ld r31,X
 797 046a 1F97      		sbiw r26,14+1
 798 046c E20F      		add r30,r18
 799 046e F31F      		adc r31,r19
 800 0470 1182      		std Z+1,__zero_reg__
 801 0472 1082      		st Z,__zero_reg__
 802 0474 0196      		adiw r24,1
 803 0476 00C0      		rjmp .L47
 804               	.L58:
 805 0478 A12C      		mov r10,__zero_reg__
 806 047a B12C      		mov r11,__zero_reg__
 807               	.L49:
 808 047c AC14      		cp r10,r12
 809 047e BD04      		cpc r11,r13
 810 0480 04F4      		brge .L59
 811 0482 C501      		movw r24,r10
 812 0484 880F      		lsl r24
 813 0486 991F      		rol r25
 814 0488 F701      		movw r30,r14
 815 048a 8684      		ldd r8,Z+14
 816 048c 9784      		ldd r9,Z+15
 817 048e 880E      		add r8,r24
 818 0490 991E      		adc r9,r25
 819 0492 C801      		movw r24,r16
 820 0494 0E94 0000 		call LoadString
 821 0498 D401      		movw r26,r8
 822 049a 8D93      		st X+,r24
 823 049c 9C93      		st X,r25
 824 049e BFEF      		ldi r27,-1
 825 04a0 AB1A      		sub r10,r27
 826 04a2 BB0A      		sbc r11,r27
 827 04a4 00C0      		rjmp .L49
 828               	.L59:
 829 04a6 C701      		movw r24,r14
 830 04a8 0E94 0000 		call luaG_checkcode
 831 04ac 892B      		or r24,r25
 832 04ae 01F4      		brne .L51
 833 04b0 60E0      		ldi r22,lo8(.LC5)
 834 04b2 70E0      		ldi r23,hi8(.LC5)
 835 04b4 C801      		movw r24,r16
 836 04b6 0E94 0000 		call error
 837               	.L51:
 838 04ba D801      		movw r26,r16
GAS LISTING /tmp/ccMWUBCM.s 			page 16


 839 04bc ED91      		ld r30,X+
 840 04be FC91      		ld r31,X
 841 04c0 8581      		ldd r24,Z+5
 842 04c2 9681      		ldd r25,Z+6
 843 04c4 0697      		sbiw r24,6
 844 04c6 9683      		std Z+6,r25
 845 04c8 8583      		std Z+5,r24
 846 04ca 838D      		ldd r24,Z+27
 847 04cc 948D      		ldd r25,Z+28
 848 04ce 0197      		sbiw r24,1
 849 04d0 948F      		std Z+28,r25
 850 04d2 838F      		std Z+27,r24
 851 04d4 C701      		movw r24,r14
 852               	/* epilogue start */
 853 04d6 0F90      		pop __tmp_reg__
 854 04d8 0F90      		pop __tmp_reg__
 855 04da 0F90      		pop __tmp_reg__
 856 04dc 0F90      		pop __tmp_reg__
 857 04de DF91      		pop r29
 858 04e0 CF91      		pop r28
 859 04e2 1F91      		pop r17
 860 04e4 0F91      		pop r16
 861 04e6 FF90      		pop r15
 862 04e8 EF90      		pop r14
 863 04ea DF90      		pop r13
 864 04ec CF90      		pop r12
 865 04ee BF90      		pop r11
 866 04f0 AF90      		pop r10
 867 04f2 9F90      		pop r9
 868 04f4 8F90      		pop r8
 869 04f6 7F90      		pop r7
 870 04f8 6F90      		pop r6
 871 04fa 5F90      		pop r5
 872 04fc 4F90      		pop r4
 873 04fe 3F90      		pop r3
 874 0500 2F90      		pop r2
 875 0502 0895      		ret
 876               		.size	LoadFunction, .-LoadFunction
 877               		.section	.text.luaU_header,"ax",@progbits
 878               	.global	luaU_header
 879               		.hidden	luaU_header
 880               		.type	luaU_header, @function
 881               	luaU_header:
 882               	/* prologue: function */
 883               	/* frame size = 0 */
 884               	/* stack size = 0 */
 885               	.L__stack_usage = 0
 886 0000 FC01      		movw r30,r24
 887 0002 8BE1      		ldi r24,lo8(27)
 888 0004 9CE4      		ldi r25,lo8(76)
 889 0006 A5E7      		ldi r26,lo8(117)
 890 0008 B1E6      		ldi r27,lo8(97)
 891 000a 8083      		st Z,r24
 892 000c 9183      		std Z+1,r25
 893 000e A283      		std Z+2,r26
 894 0010 B383      		std Z+3,r27
 895 0012 81E5      		ldi r24,lo8(81)
GAS LISTING /tmp/ccMWUBCM.s 			page 17


 896 0014 8483      		std Z+4,r24
 897 0016 1582      		std Z+5,__zero_reg__
 898 0018 81E0      		ldi r24,lo8(1)
 899 001a 8683      		std Z+6,r24
 900 001c 92E0      		ldi r25,lo8(2)
 901 001e 9783      		std Z+7,r25
 902 0020 9087      		std Z+8,r25
 903 0022 94E0      		ldi r25,lo8(4)
 904 0024 9187      		std Z+9,r25
 905 0026 9287      		std Z+10,r25
 906 0028 8387      		std Z+11,r24
 907 002a 0895      		ret
 908               		.size	luaU_header, .-luaU_header
 909               		.section	.rodata.str1.1
 910               	.LC6:
 911 005b 6269 6E61 		.string	"binary string"
 911      7279 2073 
 911      7472 696E 
 911      6700 
 912               	.LC7:
 913 0069 6261 6420 		.string	"bad header"
 913      6865 6164 
 913      6572 00
 914               	.LC8:
 915 0074 3D3F 00   		.string	"=?"
 916               		.section	.text.luaU_undump,"ax",@progbits
 917               	.global	luaU_undump
 918               		.hidden	luaU_undump
 919               		.type	luaU_undump, @function
 920               	luaU_undump:
 921 0000 0F93      		push r16
 922 0002 1F93      		push r17
 923 0004 CF93      		push r28
 924 0006 DF93      		push r29
 925 0008 CDB7      		in r28,__SP_L__
 926 000a DEB7      		in r29,__SP_H__
 927 000c A097      		sbiw r28,32
 928 000e 0FB6      		in __tmp_reg__,__SREG__
 929 0010 F894      		cli
 930 0012 DEBF      		out __SP_H__,r29
 931 0014 0FBE      		out __SREG__,__tmp_reg__
 932 0016 CDBF      		out __SP_L__,r28
 933               	/* prologue: function */
 934               	/* frame size = 32 */
 935               	/* stack size = 36 */
 936               	.L__stack_usage = 36
 937 0018 8C01      		movw r16,r24
 938 001a F901      		movw r30,r18
 939 001c 8081      		ld r24,Z
 940 001e 8034      		cpi r24,lo8(64)
 941 0020 01F0      		breq .L62
 942 0022 8D33      		cpi r24,lo8(61)
 943 0024 01F4      		brne .L63
 944               	.L62:
 945 0026 2F5F      		subi r18,-1
 946 0028 3F4F      		sbci r19,-1
 947 002a 00C0      		rjmp .L65
GAS LISTING /tmp/ccMWUBCM.s 			page 18


 948               	.L63:
 949 002c 8B31      		cpi r24,lo8(27)
 950 002e 01F4      		brne .L65
 951 0030 80E0      		ldi r24,lo8(.LC6)
 952 0032 90E0      		ldi r25,hi8(.LC6)
 953 0034 98A3      		std Y+32,r25
 954 0036 8F8F      		std Y+31,r24
 955 0038 00C0      		rjmp .L64
 956               	.L65:
 957 003a 38A3      		std Y+32,r19
 958 003c 2F8F      		std Y+31,r18
 959               	.L64:
 960 003e 1A8F      		std Y+26,r17
 961 0040 098F      		std Y+25,r16
 962 0042 7C8F      		std Y+28,r23
 963 0044 6B8F      		std Y+27,r22
 964 0046 5E8F      		std Y+30,r21
 965 0048 4D8F      		std Y+29,r20
 966 004a CE01      		movw r24,r28
 967 004c 0D96      		adiw r24,13
 968 004e 0E94 0000 		call luaU_header
 969 0052 4CE0      		ldi r20,lo8(12)
 970 0054 50E0      		ldi r21,0
 971 0056 BE01      		movw r22,r28
 972 0058 6F5F      		subi r22,-1
 973 005a 7F4F      		sbci r23,-1
 974 005c CE01      		movw r24,r28
 975 005e 4996      		adiw r24,25
 976 0060 0E94 0000 		call LoadBlock
 977 0064 4CE0      		ldi r20,lo8(12)
 978 0066 50E0      		ldi r21,0
 979 0068 BE01      		movw r22,r28
 980 006a 6F5F      		subi r22,-1
 981 006c 7F4F      		sbci r23,-1
 982 006e CE01      		movw r24,r28
 983 0070 0D96      		adiw r24,13
 984 0072 0E94 0000 		call memcmp
 985 0076 892B      		or r24,r25
 986 0078 01F0      		breq .L66
 987 007a 60E0      		ldi r22,lo8(.LC7)
 988 007c 70E0      		ldi r23,hi8(.LC7)
 989 007e CE01      		movw r24,r28
 990 0080 4996      		adiw r24,25
 991 0082 0E94 0000 		call error
 992               	.L66:
 993 0086 42E0      		ldi r20,lo8(2)
 994 0088 50E0      		ldi r21,0
 995 008a 60E0      		ldi r22,lo8(.LC8)
 996 008c 70E0      		ldi r23,hi8(.LC8)
 997 008e C801      		movw r24,r16
 998 0090 0E94 0000 		call luaS_newlstr
 999 0094 BC01      		movw r22,r24
 1000 0096 CE01      		movw r24,r28
 1001 0098 4996      		adiw r24,25
 1002 009a 0E94 0000 		call LoadFunction
 1003               	/* epilogue start */
 1004 009e A096      		adiw r28,32
GAS LISTING /tmp/ccMWUBCM.s 			page 19


 1005 00a0 0FB6      		in __tmp_reg__,__SREG__
 1006 00a2 F894      		cli
 1007 00a4 DEBF      		out __SP_H__,r29
 1008 00a6 0FBE      		out __SREG__,__tmp_reg__
 1009 00a8 CDBF      		out __SP_L__,r28
 1010 00aa DF91      		pop r29
 1011 00ac CF91      		pop r28
 1012 00ae 1F91      		pop r17
 1013 00b0 0F91      		pop r16
 1014 00b2 0895      		ret
 1015               		.size	luaU_undump, .-luaU_undump
 1016               		.hidden	luaG_checkcode
 1017               		.hidden	luaM_toobig
 1018               		.hidden	luaM_realloc_
 1019               		.hidden	luaD_growstack
 1020               		.hidden	luaF_newproto
 1021               		.hidden	luaS_newlstr
 1022               		.hidden	luaZ_openspace
 1023               		.hidden	luaZ_read
 1024               		.hidden	luaD_throw
 1025               		.hidden	luaO_pushfstring
 1026               		.ident	"GCC: (GNU) 5.3.0"
 1027               	.global __do_copy_data
GAS LISTING /tmp/ccMWUBCM.s 			page 20


DEFINED SYMBOLS
                            *ABS*:0000000000000000 lundump.c
     /tmp/ccMWUBCM.s:2      *ABS*:000000000000003e __SP_H__
     /tmp/ccMWUBCM.s:3      *ABS*:000000000000003d __SP_L__
     /tmp/ccMWUBCM.s:4      *ABS*:000000000000003f __SREG__
     /tmp/ccMWUBCM.s:5      *ABS*:000000000000003b __RAMPZ__
     /tmp/ccMWUBCM.s:6      *ABS*:0000000000000000 __tmp_reg__
     /tmp/ccMWUBCM.s:7      *ABS*:0000000000000001 __zero_reg__
     /tmp/ccMWUBCM.s:13     .text.error:0000000000000000 error
     /tmp/ccMWUBCM.s:58     .text.LoadBlock:0000000000000000 LoadBlock
     /tmp/ccMWUBCM.s:86     .text.LoadChar:0000000000000000 LoadChar
     /tmp/ccMWUBCM.s:117    .text.LoadInt:0000000000000000 LoadInt
     /tmp/ccMWUBCM.s:159    .text.LoadString:0000000000000000 LoadString
     /tmp/ccMWUBCM.s:232    .text.LoadFunction:0000000000000000 LoadFunction
     /tmp/ccMWUBCM.s:881    .text.luaU_header:0000000000000000 luaU_header
     /tmp/ccMWUBCM.s:920    .text.luaU_undump:0000000000000000 luaU_undump

UNDEFINED SYMBOLS
luaO_pushfstring
luaD_throw
luaZ_read
luaZ_openspace
luaS_newlstr
luaF_newproto
luaD_growstack
luaM_realloc_
luaM_toobig
luaG_checkcode
memcmp
__do_copy_data
