GAS LISTING /tmp/ccRBarYT.s 			page 1


   1               		.file	"lvm.c"
   2               	__SP_H__ = 0x3e
   3               	__SP_L__ = 0x3d
   4               	__SREG__ = 0x3f
   5               	__RAMPZ__ = 0x3b
   6               	__tmp_reg__ = 0
   7               	__zero_reg__ = 1
   8               		.section	.text.callTMres,"ax",@progbits
   9               		.type	callTMres, @function
  10               	callTMres:
  11 0000 8F92      		push r8
  12 0002 9F92      		push r9
  13 0004 AF92      		push r10
  14 0006 BF92      		push r11
  15 0008 EF92      		push r14
  16 000a FF92      		push r15
  17 000c 0F93      		push r16
  18 000e 1F93      		push r17
  19 0010 CF93      		push r28
  20 0012 DF93      		push r29
  21               	/* prologue: function */
  22               	/* frame size = 0 */
  23               	/* stack size = 10 */
  24               	.L__stack_usage = 10
  25 0014 EC01      		movw r28,r24
  26 0016 8989      		ldd r24,Y+17
  27 0018 9A89      		ldd r25,Y+18
  28 001a 7B01      		movw r14,r22
  29 001c E81A      		sub r14,r24
  30 001e F90A      		sbc r15,r25
  31 0020 ED81      		ldd r30,Y+5
  32 0022 FE81      		ldd r31,Y+6
  33 0024 DA01      		movw r26,r20
  34 0026 8D90      		ld r8,X+
  35 0028 9D90      		ld r9,X+
  36 002a AD90      		ld r10,X+
  37 002c BC90      		ld r11,X
  38 002e 1397      		sbiw r26,3
  39 0030 8082      		st Z,r8
  40 0032 9182      		std Z+1,r9
  41 0034 A282      		std Z+2,r10
  42 0036 B382      		std Z+3,r11
  43 0038 1496      		adiw r26,4
  44 003a 8D91      		ld r24,X+
  45 003c 9C91      		ld r25,X
  46 003e 1597      		sbiw r26,4+1
  47 0040 9583      		std Z+5,r25
  48 0042 8483      		std Z+4,r24
  49 0044 D901      		movw r26,r18
  50 0046 4D91      		ld r20,X+
  51 0048 5D91      		ld r21,X+
  52 004a 6D91      		ld r22,X+
  53 004c 7C91      		ld r23,X
  54 004e 1397      		sbiw r26,3
  55 0050 4683      		std Z+6,r20
  56 0052 5783      		std Z+7,r21
  57 0054 6087      		std Z+8,r22
GAS LISTING /tmp/ccRBarYT.s 			page 2


  58 0056 7187      		std Z+9,r23
  59 0058 1496      		adiw r26,4
  60 005a 8D91      		ld r24,X+
  61 005c 9C91      		ld r25,X
  62 005e 1597      		sbiw r26,4+1
  63 0060 9387      		std Z+11,r25
  64 0062 8287      		std Z+10,r24
  65 0064 D801      		movw r26,r16
  66 0066 4D91      		ld r20,X+
  67 0068 5D91      		ld r21,X+
  68 006a 6D91      		ld r22,X+
  69 006c 7C91      		ld r23,X
  70 006e 1397      		sbiw r26,3
  71 0070 4487      		std Z+12,r20
  72 0072 5587      		std Z+13,r21
  73 0074 6687      		std Z+14,r22
  74 0076 7787      		std Z+15,r23
  75 0078 1496      		adiw r26,4
  76 007a 8D91      		ld r24,X+
  77 007c 9C91      		ld r25,X
  78 007e 1597      		sbiw r26,4+1
  79 0080 918B      		std Z+17,r25
  80 0082 808B      		std Z+16,r24
  81 0084 8F85      		ldd r24,Y+15
  82 0086 9889      		ldd r25,Y+16
  83 0088 8E1B      		sub r24,r30
  84 008a 9F0B      		sbc r25,r31
  85 008c 4397      		sbiw r24,19
  86 008e 04F4      		brge .L2
  87 0090 63E0      		ldi r22,lo8(3)
  88 0092 70E0      		ldi r23,0
  89 0094 CE01      		movw r24,r28
  90 0096 0E94 0000 		call luaD_growstack
  91               	.L2:
  92 009a 6D81      		ldd r22,Y+5
  93 009c 7E81      		ldd r23,Y+6
  94 009e CB01      		movw r24,r22
  95 00a0 4296      		adiw r24,18
  96 00a2 9E83      		std Y+6,r25
  97 00a4 8D83      		std Y+5,r24
  98 00a6 41E0      		ldi r20,lo8(1)
  99 00a8 50E0      		ldi r21,0
 100 00aa CE01      		movw r24,r28
 101 00ac 0E94 0000 		call luaD_call
 102 00b0 A989      		ldd r26,Y+17
 103 00b2 BA89      		ldd r27,Y+18
 104 00b4 AE0D      		add r26,r14
 105 00b6 BF1D      		adc r27,r15
 106 00b8 ED81      		ldd r30,Y+5
 107 00ba FE81      		ldd r31,Y+6
 108 00bc 3697      		sbiw r30,6
 109 00be FE83      		std Y+6,r31
 110 00c0 ED83      		std Y+5,r30
 111 00c2 4081      		ld r20,Z
 112 00c4 5181      		ldd r21,Z+1
 113 00c6 6281      		ldd r22,Z+2
 114 00c8 7381      		ldd r23,Z+3
GAS LISTING /tmp/ccRBarYT.s 			page 3


 115 00ca 4D93      		st X+,r20
 116 00cc 5D93      		st X+,r21
 117 00ce 6D93      		st X+,r22
 118 00d0 7C93      		st X,r23
 119 00d2 1397      		sbiw r26,3
 120 00d4 8481      		ldd r24,Z+4
 121 00d6 9581      		ldd r25,Z+5
 122 00d8 1596      		adiw r26,4+1
 123 00da 9C93      		st X,r25
 124 00dc 8E93      		st -X,r24
 125 00de 1497      		sbiw r26,4
 126               	/* epilogue start */
 127 00e0 DF91      		pop r29
 128 00e2 CF91      		pop r28
 129 00e4 1F91      		pop r17
 130 00e6 0F91      		pop r16
 131 00e8 FF90      		pop r15
 132 00ea EF90      		pop r14
 133 00ec BF90      		pop r11
 134 00ee AF90      		pop r10
 135 00f0 9F90      		pop r9
 136 00f2 8F90      		pop r8
 137 00f4 0895      		ret
 138               		.size	callTMres, .-callTMres
 139               		.section	.text.call_binTM,"ax",@progbits
 140               		.type	call_binTM, @function
 141               	call_binTM:
 142 0000 AF92      		push r10
 143 0002 BF92      		push r11
 144 0004 CF92      		push r12
 145 0006 DF92      		push r13
 146 0008 EF92      		push r14
 147 000a FF92      		push r15
 148 000c 0F93      		push r16
 149 000e 1F93      		push r17
 150 0010 CF93      		push r28
 151 0012 DF93      		push r29
 152               	/* prologue: function */
 153               	/* frame size = 0 */
 154               	/* stack size = 10 */
 155               	.L__stack_usage = 10
 156 0014 EC01      		movw r28,r24
 157 0016 7B01      		movw r14,r22
 158 0018 6A01      		movw r12,r20
 159 001a 5901      		movw r10,r18
 160 001c A801      		movw r20,r16
 161 001e 0E94 0000 		call luaT_gettmbyobj
 162 0022 FC01      		movw r30,r24
 163 0024 2481      		ldd r18,Z+4
 164 0026 3581      		ldd r19,Z+5
 165 0028 232B      		or r18,r19
 166 002a 01F4      		brne .L5
 167 002c A801      		movw r20,r16
 168 002e B601      		movw r22,r12
 169 0030 CE01      		movw r24,r28
 170 0032 0E94 0000 		call luaT_gettmbyobj
 171               	.L5:
GAS LISTING /tmp/ccRBarYT.s 			page 4


 172 0036 FC01      		movw r30,r24
 173 0038 2481      		ldd r18,Z+4
 174 003a 3581      		ldd r19,Z+5
 175 003c 2115      		cp r18,__zero_reg__
 176 003e 3105      		cpc r19,__zero_reg__
 177 0040 01F0      		breq .L6
 178 0042 8601      		movw r16,r12
 179 0044 9701      		movw r18,r14
 180 0046 AC01      		movw r20,r24
 181 0048 B501      		movw r22,r10
 182 004a CE01      		movw r24,r28
 183 004c 0E94 0000 		call callTMres
 184 0050 21E0      		ldi r18,lo8(1)
 185 0052 30E0      		ldi r19,0
 186               	.L6:
 187 0054 C901      		movw r24,r18
 188               	/* epilogue start */
 189 0056 DF91      		pop r29
 190 0058 CF91      		pop r28
 191 005a 1F91      		pop r17
 192 005c 0F91      		pop r16
 193 005e FF90      		pop r15
 194 0060 EF90      		pop r14
 195 0062 DF90      		pop r13
 196 0064 CF90      		pop r12
 197 0066 BF90      		pop r11
 198 0068 AF90      		pop r10
 199 006a 0895      		ret
 200               		.size	call_binTM, .-call_binTM
 201               		.section	.text.l_strcmp,"ax",@progbits
 202               		.type	l_strcmp, @function
 203               	l_strcmp:
 204 0000 CF92      		push r12
 205 0002 DF92      		push r13
 206 0004 EF92      		push r14
 207 0006 FF92      		push r15
 208 0008 0F93      		push r16
 209 000a 1F93      		push r17
 210 000c CF93      		push r28
 211 000e DF93      		push r29
 212               	/* prologue: function */
 213               	/* frame size = 0 */
 214               	/* stack size = 8 */
 215               	.L__stack_usage = 8
 216 0010 EC01      		movw r28,r24
 217 0012 2996      		adiw r28,9
 218 0014 FC01      		movw r30,r24
 219 0016 E780      		ldd r14,Z+7
 220 0018 F084      		ldd r15,Z+8
 221 001a 6B01      		movw r12,r22
 222 001c F9E0      		ldi r31,9
 223 001e CF0E      		add r12,r31
 224 0020 D11C      		adc r13,__zero_reg__
 225 0022 FB01      		movw r30,r22
 226 0024 0781      		ldd r16,Z+7
 227 0026 1085      		ldd r17,Z+8
 228               	.L14:
GAS LISTING /tmp/ccRBarYT.s 			page 5


 229 0028 B601      		movw r22,r12
 230 002a CE01      		movw r24,r28
 231 002c 0E94 0000 		call strcmp
 232 0030 0097      		sbiw r24,0
 233 0032 01F4      		brne .L11
 234 0034 FE01      		movw r30,r28
 235               		0:
 236 0036 0190      		ld __tmp_reg__,Z+
 237 0038 0020      		tst __tmp_reg__
 238 003a 01F4      		brne 0b
 239 003c 3197      		sbiw r30,1
 240 003e CF01      		movw r24,r30
 241 0040 8C1B      		sub r24,r28
 242 0042 9D0B      		sbc r25,r29
 243 0044 0817      		cp r16,r24
 244 0046 1907      		cpc r17,r25
 245 0048 01F4      		brne .L12
 246 004a 81E0      		ldi r24,lo8(1)
 247 004c 90E0      		ldi r25,0
 248 004e E016      		cp r14,r16
 249 0050 F106      		cpc r15,r17
 250 0052 01F4      		brne .L11
 251 0054 80E0      		ldi r24,0
 252 0056 00C0      		rjmp .L11
 253               	.L12:
 254 0058 E816      		cp r14,r24
 255 005a F906      		cpc r15,r25
 256 005c 01F0      		breq .L16
 257 005e 0196      		adiw r24,1
 258 0060 C80F      		add r28,r24
 259 0062 D91F      		adc r29,r25
 260 0064 E81A      		sub r14,r24
 261 0066 F90A      		sbc r15,r25
 262 0068 C80E      		add r12,r24
 263 006a D91E      		adc r13,r25
 264 006c 081B      		sub r16,r24
 265 006e 190B      		sbc r17,r25
 266 0070 00C0      		rjmp .L14
 267               	.L16:
 268 0072 8FEF      		ldi r24,lo8(-1)
 269 0074 9FEF      		ldi r25,lo8(-1)
 270               	.L11:
 271               	/* epilogue start */
 272 0076 DF91      		pop r29
 273 0078 CF91      		pop r28
 274 007a 1F91      		pop r17
 275 007c 0F91      		pop r16
 276 007e FF90      		pop r15
 277 0080 EF90      		pop r14
 278 0082 DF90      		pop r13
 279 0084 CF90      		pop r12
 280 0086 0895      		ret
 281               		.size	l_strcmp, .-l_strcmp
 282               		.section	.text.call_orderTM,"ax",@progbits
 283               		.type	call_orderTM, @function
 284               	call_orderTM:
 285 0000 AF92      		push r10
GAS LISTING /tmp/ccRBarYT.s 			page 6


 286 0002 BF92      		push r11
 287 0004 CF92      		push r12
 288 0006 DF92      		push r13
 289 0008 EF92      		push r14
 290 000a FF92      		push r15
 291 000c 0F93      		push r16
 292 000e 1F93      		push r17
 293 0010 CF93      		push r28
 294 0012 DF93      		push r29
 295               	/* prologue: function */
 296               	/* frame size = 0 */
 297               	/* stack size = 10 */
 298               	.L__stack_usage = 10
 299 0014 EC01      		movw r28,r24
 300 0016 6B01      		movw r12,r22
 301 0018 8A01      		movw r16,r20
 302 001a 5901      		movw r10,r18
 303 001c A901      		movw r20,r18
 304 001e 0E94 0000 		call luaT_gettmbyobj
 305 0022 7C01      		movw r14,r24
 306 0024 FC01      		movw r30,r24
 307 0026 8481      		ldd r24,Z+4
 308 0028 9581      		ldd r25,Z+5
 309 002a 892B      		or r24,r25
 310 002c 01F4      		brne .L18
 311               	.L20:
 312 002e 8FEF      		ldi r24,lo8(-1)
 313 0030 9FEF      		ldi r25,lo8(-1)
 314 0032 00C0      		rjmp .L19
 315               	.L18:
 316 0034 A501      		movw r20,r10
 317 0036 B801      		movw r22,r16
 318 0038 CE01      		movw r24,r28
 319 003a 0E94 0000 		call luaT_gettmbyobj
 320 003e BC01      		movw r22,r24
 321 0040 C701      		movw r24,r14
 322 0042 0E94 0000 		call luaO_rawequalObj
 323 0046 892B      		or r24,r25
 324 0048 01F0      		breq .L20
 325 004a 6D81      		ldd r22,Y+5
 326 004c 7E81      		ldd r23,Y+6
 327 004e 9601      		movw r18,r12
 328 0050 A701      		movw r20,r14
 329 0052 CE01      		movw r24,r28
 330 0054 0E94 0000 		call callTMres
 331 0058 ED81      		ldd r30,Y+5
 332 005a FE81      		ldd r31,Y+6
 333 005c 8481      		ldd r24,Z+4
 334 005e 9581      		ldd r25,Z+5
 335 0060 0097      		sbiw r24,0
 336 0062 01F0      		breq .L19
 337 0064 0197      		sbiw r24,1
 338 0066 01F4      		brne .L22
 339 0068 31E0      		ldi r19,lo8(1)
 340 006a 20E0      		ldi r18,0
 341 006c 8081      		ld r24,Z
 342 006e 9181      		ldd r25,Z+1
GAS LISTING /tmp/ccRBarYT.s 			page 7


 343 0070 892B      		or r24,r25
 344 0072 01F4      		brne .L21
 345 0074 30E0      		ldi r19,0
 346               	.L21:
 347 0076 832F      		mov r24,r19
 348 0078 922F      		mov r25,r18
 349 007a 00C0      		rjmp .L19
 350               	.L22:
 351 007c 81E0      		ldi r24,lo8(1)
 352 007e 90E0      		ldi r25,0
 353               	.L19:
 354               	/* epilogue start */
 355 0080 DF91      		pop r29
 356 0082 CF91      		pop r28
 357 0084 1F91      		pop r17
 358 0086 0F91      		pop r16
 359 0088 FF90      		pop r15
 360 008a EF90      		pop r14
 361 008c DF90      		pop r13
 362 008e CF90      		pop r12
 363 0090 BF90      		pop r11
 364 0092 AF90      		pop r10
 365 0094 0895      		ret
 366               		.size	call_orderTM, .-call_orderTM
 367               		.section	.text.get_compTM.isra.0.constprop.5,"ax",@progbits
 368               		.type	get_compTM.isra.0.constprop.5, @function
 369               	get_compTM.isra.0.constprop.5:
 370 0000 CF92      		push r12
 371 0002 DF92      		push r13
 372 0004 EF92      		push r14
 373 0006 FF92      		push r15
 374 0008 0F93      		push r16
 375 000a 1F93      		push r17
 376 000c CF93      		push r28
 377 000e DF93      		push r29
 378               	/* prologue: function */
 379               	/* frame size = 0 */
 380               	/* stack size = 8 */
 381               	.L__stack_usage = 8
 382 0010 6C01      		movw r12,r24
 383 0012 7B01      		movw r14,r22
 384 0014 8A01      		movw r16,r20
 385 0016 6115      		cp r22,__zero_reg__
 386 0018 7105      		cpc r23,__zero_reg__
 387 001a 01F4      		brne .L30
 388               	.L32:
 389 001c 80E0      		ldi r24,0
 390 001e 90E0      		ldi r25,0
 391 0020 00C0      		rjmp .L31
 392               	.L30:
 393 0022 DB01      		movw r26,r22
 394 0024 1496      		adiw r26,4
 395 0026 8C91      		ld r24,X
 396 0028 84FD      		sbrc r24,4
 397 002a 00C0      		rjmp .L32
 398 002c D601      		movw r26,r12
 399 002e ED91      		ld r30,X+
GAS LISTING /tmp/ccRBarYT.s 			page 8


 400 0030 FC91      		ld r31,X
 401 0032 E659      		subi r30,-106
 402 0034 FF4F      		sbci r31,-1
 403 0036 4081      		ld r20,Z
 404 0038 5181      		ldd r21,Z+1
 405 003a 64E0      		ldi r22,lo8(4)
 406 003c 70E0      		ldi r23,0
 407 003e C701      		movw r24,r14
 408 0040 0E94 0000 		call luaT_gettm
 409 0044 EC01      		movw r28,r24
 410 0046 892B      		or r24,r25
 411 0048 01F0      		breq .L32
 412 004a E016      		cp r14,r16
 413 004c F106      		cpc r15,r17
 414 004e 01F0      		breq .L33
 415 0050 0115      		cp r16,__zero_reg__
 416 0052 1105      		cpc r17,__zero_reg__
 417 0054 01F0      		breq .L32
 418 0056 F801      		movw r30,r16
 419 0058 8481      		ldd r24,Z+4
 420 005a 84FD      		sbrc r24,4
 421 005c 00C0      		rjmp .L32
 422 005e D601      		movw r26,r12
 423 0060 ED91      		ld r30,X+
 424 0062 FC91      		ld r31,X
 425 0064 E659      		subi r30,-106
 426 0066 FF4F      		sbci r31,-1
 427 0068 4081      		ld r20,Z
 428 006a 5181      		ldd r21,Z+1
 429 006c 64E0      		ldi r22,lo8(4)
 430 006e 70E0      		ldi r23,0
 431 0070 C801      		movw r24,r16
 432 0072 0E94 0000 		call luaT_gettm
 433 0076 0097      		sbiw r24,0
 434 0078 01F0      		breq .L32
 435 007a BC01      		movw r22,r24
 436 007c CE01      		movw r24,r28
 437 007e 0E94 0000 		call luaO_rawequalObj
 438 0082 892B      		or r24,r25
 439 0084 01F0      		breq .L32
 440               	.L33:
 441 0086 CE01      		movw r24,r28
 442               	.L31:
 443               	/* epilogue start */
 444 0088 DF91      		pop r29
 445 008a CF91      		pop r28
 446 008c 1F91      		pop r17
 447 008e 0F91      		pop r16
 448 0090 FF90      		pop r15
 449 0092 EF90      		pop r14
 450 0094 DF90      		pop r13
 451 0096 CF90      		pop r12
 452 0098 0895      		ret
 453               		.size	get_compTM.isra.0.constprop.5, .-get_compTM.isra.0.constprop.5
 454               		.section	.text.luaV_tonumber,"ax",@progbits
 455               	.global	luaV_tonumber
 456               		.hidden	luaV_tonumber
GAS LISTING /tmp/ccRBarYT.s 			page 9


 457               		.type	luaV_tonumber, @function
 458               	luaV_tonumber:
 459 0000 0F93      		push r16
 460 0002 1F93      		push r17
 461 0004 CF93      		push r28
 462 0006 DF93      		push r29
 463 0008 00D0      		rcall .
 464 000a 1F92      		push __zero_reg__
 465 000c CDB7      		in r28,__SP_L__
 466 000e DEB7      		in r29,__SP_H__
 467               	/* prologue: function */
 468               	/* frame size = 4 */
 469               	/* stack size = 8 */
 470               	.L__stack_usage = 8
 471 0010 8B01      		movw r16,r22
 472 0012 FC01      		movw r30,r24
 473 0014 2481      		ldd r18,Z+4
 474 0016 3581      		ldd r19,Z+5
 475 0018 2530      		cpi r18,5
 476 001a 3105      		cpc r19,__zero_reg__
 477 001c 01F0      		breq .L47
 478 001e 2630      		cpi r18,6
 479 0020 3105      		cpc r19,__zero_reg__
 480 0022 01F4      		brne .L50
 481 0024 8081      		ld r24,Z
 482 0026 9181      		ldd r25,Z+1
 483 0028 BE01      		movw r22,r28
 484 002a 6F5F      		subi r22,-1
 485 002c 7F4F      		sbci r23,-1
 486 002e 0996      		adiw r24,9
 487 0030 0E94 0000 		call luaO_str2d
 488 0034 892B      		or r24,r25
 489 0036 01F0      		breq .L50
 490 0038 8981      		ldd r24,Y+1
 491 003a 9A81      		ldd r25,Y+2
 492 003c AB81      		ldd r26,Y+3
 493 003e BC81      		ldd r27,Y+4
 494 0040 F801      		movw r30,r16
 495 0042 8083      		st Z,r24
 496 0044 9183      		std Z+1,r25
 497 0046 A283      		std Z+2,r26
 498 0048 B383      		std Z+3,r27
 499 004a 85E0      		ldi r24,lo8(5)
 500 004c 90E0      		ldi r25,0
 501 004e 9583      		std Z+5,r25
 502 0050 8483      		std Z+4,r24
 503 0052 C801      		movw r24,r16
 504 0054 00C0      		rjmp .L47
 505               	.L50:
 506 0056 80E0      		ldi r24,0
 507 0058 90E0      		ldi r25,0
 508               	.L47:
 509               	/* epilogue start */
 510 005a 0F90      		pop __tmp_reg__
 511 005c 0F90      		pop __tmp_reg__
 512 005e 0F90      		pop __tmp_reg__
 513 0060 0F90      		pop __tmp_reg__
GAS LISTING /tmp/ccRBarYT.s 			page 10


 514 0062 DF91      		pop r29
 515 0064 CF91      		pop r28
 516 0066 1F91      		pop r17
 517 0068 0F91      		pop r16
 518 006a 0895      		ret
 519               		.size	luaV_tonumber, .-luaV_tonumber
 520               	.global	__floatsisf
 521               	.global	__addsf3
 522               	.global	__fixsfsi
 523               		.section	.text.Arith,"ax",@progbits
 524               		.type	Arith, @function
 525               	Arith:
 526 0000 4F92      		push r4
 527 0002 5F92      		push r5
 528 0004 6F92      		push r6
 529 0006 7F92      		push r7
 530 0008 8F92      		push r8
 531 000a 9F92      		push r9
 532 000c AF92      		push r10
 533 000e BF92      		push r11
 534 0010 EF92      		push r14
 535 0012 FF92      		push r15
 536 0014 0F93      		push r16
 537 0016 1F93      		push r17
 538 0018 CF93      		push r28
 539 001a DF93      		push r29
 540 001c CDB7      		in r28,__SP_L__
 541 001e DEB7      		in r29,__SP_H__
 542 0020 6097      		sbiw r28,16
 543 0022 0FB6      		in __tmp_reg__,__SREG__
 544 0024 F894      		cli
 545 0026 DEBF      		out __SP_H__,r29
 546 0028 0FBE      		out __SREG__,__tmp_reg__
 547 002a CDBF      		out __SP_L__,r28
 548               	/* prologue: function */
 549               	/* frame size = 16 */
 550               	/* stack size = 30 */
 551               	.L__stack_usage = 30
 552 002c 3C01      		movw r6,r24
 553 002e 7B01      		movw r14,r22
 554 0030 5A01      		movw r10,r20
 555 0032 4901      		movw r8,r18
 556 0034 BE01      		movw r22,r28
 557 0036 695F      		subi r22,-7
 558 0038 7F4F      		sbci r23,-1
 559 003a CA01      		movw r24,r20
 560 003c 0E94 0000 		call luaV_tonumber
 561 0040 2C01      		movw r4,r24
 562 0042 892B      		or r24,r25
 563 0044 01F4      		brne .+2
 564 0046 00C0      		rjmp .L53
 565 0048 BE01      		movw r22,r28
 566 004a 6F5F      		subi r22,-1
 567 004c 7F4F      		sbci r23,-1
 568 004e C401      		movw r24,r8
 569 0050 0E94 0000 		call luaV_tonumber
 570 0054 0097      		sbiw r24,0
GAS LISTING /tmp/ccRBarYT.s 			page 11


 571 0056 01F4      		brne .+2
 572 0058 00C0      		rjmp .L53
 573 005a F201      		movw r30,r4
 574 005c 8080      		ld r8,Z
 575 005e 9180      		ldd r9,Z+1
 576 0060 A280      		ldd r10,Z+2
 577 0062 B380      		ldd r11,Z+3
 578 0064 FC01      		movw r30,r24
 579 0066 4080      		ld r4,Z
 580 0068 5180      		ldd r5,Z+1
 581 006a 6280      		ldd r6,Z+2
 582 006c 7380      		ldd r7,Z+3
 583 006e F801      		movw r30,r16
 584 0070 3597      		sbiw r30,5
 585 0072 E730      		cpi r30,7
 586 0074 F105      		cpc r31,__zero_reg__
 587 0076 00F0      		brlo .+2
 588 0078 00C0      		rjmp .L52
 589 007a 8827      		clr r24
 590 007c E050      		subi r30,pm_lo8(-(.L56))
 591 007e F040      		sbci r31,pm_hi8(-(.L56))
 592 0080 8040      		sbci r24,pm_hh8(-(.L56))
 593 0082 0C94 0000 		jmp __tablejump2__
 594               		.section	.progmem.gcc_sw_table.Arith,"a",@progbits
 595               		.p2align	1
 596               	.L56:
 597 0000 0000      		.word gs(.L55)
 598 0002 0000      		.word gs(.L57)
 599 0004 0000      		.word gs(.L58)
 600 0006 0000      		.word gs(.L59)
 601 0008 0000      		.word gs(.L60)
 602 000a 0000      		.word gs(.L61)
 603 000c 0000      		.word gs(.L62)
 604               		.section	.text.Arith
 605               	.L55:
 606 0086 840C      		add r8,r4
 607 0088 951C      		adc r9,r5
 608 008a A61C      		adc r10,r6
 609 008c B71C      		adc r11,r7
 610 008e 00C0      		rjmp .L69
 611               	.L57:
 612 0090 8418      		sub r8,r4
 613 0092 9508      		sbc r9,r5
 614 0094 A608      		sbc r10,r6
 615 0096 B708      		sbc r11,r7
 616               	.L69:
 617 0098 F701      		movw r30,r14
 618 009a 8082      		st Z,r8
 619 009c 9182      		std Z+1,r9
 620 009e A282      		std Z+2,r10
 621 00a0 B382      		std Z+3,r11
 622               	.L70:
 623 00a2 85E0      		ldi r24,lo8(5)
 624 00a4 90E0      		ldi r25,0
 625 00a6 9583      		std Z+5,r25
 626 00a8 8483      		std Z+4,r24
 627 00aa 00C0      		rjmp .L52
GAS LISTING /tmp/ccRBarYT.s 			page 12


 628               	.L58:
 629 00ac A501      		movw r20,r10
 630 00ae 9401      		movw r18,r8
 631 00b0 C301      		movw r24,r6
 632 00b2 B201      		movw r22,r4
 633 00b4 0E94 0000 		call __mulsi3
 634 00b8 00C0      		rjmp .L71
 635               	.L59:
 636 00ba C501      		movw r24,r10
 637 00bc B401      		movw r22,r8
 638 00be A301      		movw r20,r6
 639 00c0 9201      		movw r18,r4
 640 00c2 0E94 0000 		call __divmodsi4
 641 00c6 F701      		movw r30,r14
 642 00c8 2083      		st Z,r18
 643 00ca 3183      		std Z+1,r19
 644 00cc 4283      		std Z+2,r20
 645 00ce 5383      		std Z+3,r21
 646 00d0 00C0      		rjmp .L70
 647               	.L60:
 648 00d2 C501      		movw r24,r10
 649 00d4 B401      		movw r22,r8
 650 00d6 A301      		movw r20,r6
 651 00d8 9201      		movw r18,r4
 652 00da 0E94 0000 		call __divmodsi4
 653               	.L71:
 654 00de F701      		movw r30,r14
 655 00e0 6083      		st Z,r22
 656 00e2 7183      		std Z+1,r23
 657 00e4 8283      		std Z+2,r24
 658 00e6 9383      		std Z+3,r25
 659 00e8 00C0      		rjmp .L70
 660               	.L61:
 661 00ea C301      		movw r24,r6
 662 00ec B201      		movw r22,r4
 663 00ee 0E94 0000 		call __floatsisf
 664 00f2 9B01      		movw r18,r22
 665 00f4 AC01      		movw r20,r24
 666 00f6 C501      		movw r24,r10
 667 00f8 B401      		movw r22,r8
 668 00fa 2D87      		std Y+13,r18
 669 00fc 3E87      		std Y+14,r19
 670 00fe 4F87      		std Y+15,r20
 671 0100 588B      		std Y+16,r21
 672 0102 0E94 0000 		call __floatsisf
 673 0106 2D85      		ldd r18,Y+13
 674 0108 3E85      		ldd r19,Y+14
 675 010a 4F85      		ldd r20,Y+15
 676 010c 5889      		ldd r21,Y+16
 677 010e 0E94 0000 		call pow
 678 0112 20E0      		ldi r18,0
 679 0114 30E0      		ldi r19,0
 680 0116 40E0      		ldi r20,0
 681 0118 5FE3      		ldi r21,lo8(63)
 682 011a 0E94 0000 		call __addsf3
 683 011e 0E94 0000 		call __fixsfsi
 684 0122 CB01      		movw r24,r22
GAS LISTING /tmp/ccRBarYT.s 			page 13


 685 0124 770F      		lsl r23
 686 0126 AA0B      		sbc r26,r26
 687 0128 BB0B      		sbc r27,r27
 688 012a F701      		movw r30,r14
 689 012c 8083      		st Z,r24
 690 012e 9183      		std Z+1,r25
 691 0130 A283      		std Z+2,r26
 692 0132 B383      		std Z+3,r27
 693 0134 00C0      		rjmp .L70
 694               	.L62:
 695 0136 B094      		com r11
 696 0138 A094      		com r10
 697 013a 9094      		com r9
 698 013c 8094      		com r8
 699 013e 811C      		adc r8,__zero_reg__
 700 0140 911C      		adc r9,__zero_reg__
 701 0142 A11C      		adc r10,__zero_reg__
 702 0144 B11C      		adc r11,__zero_reg__
 703 0146 00C0      		rjmp .L69
 704               	.L53:
 705 0148 9701      		movw r18,r14
 706 014a A401      		movw r20,r8
 707 014c B501      		movw r22,r10
 708 014e C301      		movw r24,r6
 709 0150 0E94 0000 		call call_binTM
 710 0154 892B      		or r24,r25
 711 0156 01F4      		brne .L52
 712 0158 A401      		movw r20,r8
 713 015a B501      		movw r22,r10
 714 015c C301      		movw r24,r6
 715 015e 0E94 0000 		call luaG_aritherror
 716               	.L52:
 717               	/* epilogue start */
 718 0162 6096      		adiw r28,16
 719 0164 0FB6      		in __tmp_reg__,__SREG__
 720 0166 F894      		cli
 721 0168 DEBF      		out __SP_H__,r29
 722 016a 0FBE      		out __SREG__,__tmp_reg__
 723 016c CDBF      		out __SP_L__,r28
 724 016e DF91      		pop r29
 725 0170 CF91      		pop r28
 726 0172 1F91      		pop r17
 727 0174 0F91      		pop r16
 728 0176 FF90      		pop r15
 729 0178 EF90      		pop r14
 730 017a BF90      		pop r11
 731 017c AF90      		pop r10
 732 017e 9F90      		pop r9
 733 0180 8F90      		pop r8
 734 0182 7F90      		pop r7
 735 0184 6F90      		pop r6
 736 0186 5F90      		pop r5
 737 0188 4F90      		pop r4
 738 018a 0895      		ret
 739               		.size	Arith, .-Arith
 740               		.section	.rodata.str1.1,"aMS",@progbits,1
 741               	.LC0:
GAS LISTING /tmp/ccRBarYT.s 			page 14


 742 0000 256C 6400 		.string	"%ld"
 743               		.section	.text.luaV_tostring,"ax",@progbits
 744               	.global	luaV_tostring
 745               		.hidden	luaV_tostring
 746               		.type	luaV_tostring, @function
 747               	luaV_tostring:
 748 0000 CF92      		push r12
 749 0002 DF92      		push r13
 750 0004 EF92      		push r14
 751 0006 FF92      		push r15
 752 0008 0F93      		push r16
 753 000a 1F93      		push r17
 754 000c CF93      		push r28
 755 000e DF93      		push r29
 756 0010 CDB7      		in r28,__SP_L__
 757 0012 DEB7      		in r29,__SP_H__
 758 0014 2C97      		sbiw r28,12
 759 0016 0FB6      		in __tmp_reg__,__SREG__
 760 0018 F894      		cli
 761 001a DEBF      		out __SP_H__,r29
 762 001c 0FBE      		out __SREG__,__tmp_reg__
 763 001e CDBF      		out __SP_L__,r28
 764               	/* prologue: function */
 765               	/* frame size = 12 */
 766               	/* stack size = 20 */
 767               	.L__stack_usage = 20
 768 0020 6C01      		movw r12,r24
 769 0022 8B01      		movw r16,r22
 770 0024 FB01      		movw r30,r22
 771 0026 8481      		ldd r24,Z+4
 772 0028 9581      		ldd r25,Z+5
 773 002a 0597      		sbiw r24,5
 774 002c 01F4      		brne .L74
 775 002e 8381      		ldd r24,Z+3
 776 0030 8F93      		push r24
 777 0032 8281      		ldd r24,Z+2
 778 0034 8F93      		push r24
 779 0036 8181      		ldd r24,Z+1
 780 0038 8F93      		push r24
 781 003a 8081      		ld r24,Z
 782 003c 8F93      		push r24
 783 003e 80E0      		ldi r24,lo8(.LC0)
 784 0040 90E0      		ldi r25,hi8(.LC0)
 785 0042 9F93      		push r25
 786 0044 8F93      		push r24
 787 0046 CE01      		movw r24,r28
 788 0048 0196      		adiw r24,1
 789 004a 7C01      		movw r14,r24
 790 004c 9F93      		push r25
 791 004e 8F93      		push r24
 792 0050 0E94 0000 		call sprintf
 793 0054 F701      		movw r30,r14
 794               		0:
 795 0056 0190      		ld __tmp_reg__,Z+
 796 0058 0020      		tst __tmp_reg__
 797 005a 01F4      		brne 0b
 798 005c 3197      		sbiw r30,1
GAS LISTING /tmp/ccRBarYT.s 			page 15


 799 005e AF01      		movw r20,r30
 800 0060 4E19      		sub r20,r14
 801 0062 5F09      		sbc r21,r15
 802 0064 B701      		movw r22,r14
 803 0066 C601      		movw r24,r12
 804 0068 0E94 0000 		call luaS_newlstr
 805 006c F801      		movw r30,r16
 806 006e 9183      		std Z+1,r25
 807 0070 8083      		st Z,r24
 808 0072 86E0      		ldi r24,lo8(6)
 809 0074 90E0      		ldi r25,0
 810 0076 9583      		std Z+5,r25
 811 0078 8483      		std Z+4,r24
 812 007a 0FB6      		in __tmp_reg__,__SREG__
 813 007c F894      		cli
 814 007e DEBF      		out __SP_H__,r29
 815 0080 0FBE      		out __SREG__,__tmp_reg__
 816 0082 CDBF      		out __SP_L__,r28
 817 0084 81E0      		ldi r24,lo8(1)
 818 0086 90E0      		ldi r25,0
 819 0088 00C0      		rjmp .L73
 820               	.L74:
 821 008a 80E0      		ldi r24,0
 822 008c 90E0      		ldi r25,0
 823               	.L73:
 824               	/* epilogue start */
 825 008e 2C96      		adiw r28,12
 826 0090 0FB6      		in __tmp_reg__,__SREG__
 827 0092 F894      		cli
 828 0094 DEBF      		out __SP_H__,r29
 829 0096 0FBE      		out __SREG__,__tmp_reg__
 830 0098 CDBF      		out __SP_L__,r28
 831 009a DF91      		pop r29
 832 009c CF91      		pop r28
 833 009e 1F91      		pop r17
 834 00a0 0F91      		pop r16
 835 00a2 FF90      		pop r15
 836 00a4 EF90      		pop r14
 837 00a6 DF90      		pop r13
 838 00a8 CF90      		pop r12
 839 00aa 0895      		ret
 840               		.size	luaV_tostring, .-luaV_tostring
 841               		.section	.rodata.str1.1
 842               	.LC1:
 843 0004 696E 6465 		.string	"index"
 843      7800 
 844               	.LC2:
 845 000a 6C6F 6F70 		.string	"loop in gettable"
 845      2069 6E20 
 845      6765 7474 
 845      6162 6C65 
 845      00
 846               		.section	.text.luaV_gettable,"ax",@progbits
 847               	.global	luaV_gettable
 848               		.hidden	luaV_gettable
 849               		.type	luaV_gettable, @function
 850               	luaV_gettable:
GAS LISTING /tmp/ccRBarYT.s 			page 16


 851 0000 4F92      		push r4
 852 0002 5F92      		push r5
 853 0004 6F92      		push r6
 854 0006 7F92      		push r7
 855 0008 8F92      		push r8
 856 000a 9F92      		push r9
 857 000c AF92      		push r10
 858 000e BF92      		push r11
 859 0010 CF92      		push r12
 860 0012 DF92      		push r13
 861 0014 EF92      		push r14
 862 0016 FF92      		push r15
 863 0018 0F93      		push r16
 864 001a 1F93      		push r17
 865 001c CF93      		push r28
 866 001e DF93      		push r29
 867 0020 CDB7      		in r28,__SP_L__
 868 0022 DEB7      		in r29,__SP_H__
 869 0024 6297      		sbiw r28,18
 870 0026 0FB6      		in __tmp_reg__,__SREG__
 871 0028 F894      		cli
 872 002a DEBF      		out __SP_H__,r29
 873 002c 0FBE      		out __SREG__,__tmp_reg__
 874 002e CDBF      		out __SP_L__,r28
 875               	/* prologue: function */
 876               	/* frame size = 18 */
 877               	/* stack size = 34 */
 878               	.L__stack_usage = 34
 879 0030 5C01      		movw r10,r24
 880 0032 6B01      		movw r12,r22
 881 0034 8A01      		movw r16,r20
 882 0036 7901      		movw r14,r18
 883 0038 DB01      		movw r26,r22
 884 003a 1496      		adiw r26,4
 885 003c 8D91      		ld r24,X+
 886 003e 9C91      		ld r25,X
 887 0040 1597      		sbiw r26,4+1
 888 0042 0297      		sbiw r24,2
 889 0044 01F0      		breq .+2
 890 0046 00C0      		rjmp .L76
 891 0048 F901      		movw r30,r18
 892 004a 1582      		std Z+5,__zero_reg__
 893 004c 1482      		std Z+4,__zero_reg__
 894 004e DA01      		movw r26,r20
 895 0050 1496      		adiw r26,4
 896 0052 8D91      		ld r24,X+
 897 0054 9C91      		ld r25,X
 898 0056 1597      		sbiw r26,4+1
 899 0058 0697      		sbiw r24,6
 900 005a 01F0      		breq .+2
 901 005c 00C0      		rjmp .L75
 902 005e 0D91      		ld r16,X+
 903 0060 1C91      		ld r17,X
 904 0062 F801      		movw r30,r16
 905 0064 4781      		ldd r20,Z+7
 906 0066 5085      		ldd r21,Z+8
 907 0068 CA01      		movw r24,r20
GAS LISTING /tmp/ccRBarYT.s 			page 17


 908 006a 0196      		adiw r24,1
 909 006c 4197      		sbiw r24,17
 910 006e 00F0      		brlo .L78
 911 0070 1982      		std Y+1,__zero_reg__
 912 0072 00C0      		rjmp .L79
 913               	.L78:
 914 0074 B801      		movw r22,r16
 915 0076 675F      		subi r22,-9
 916 0078 7F4F      		sbci r23,-1
 917 007a CE01      		movw r24,r28
 918 007c 0196      		adiw r24,1
 919 007e 0E94 0000 		call memcpy
 920 0082 D801      		movw r26,r16
 921 0084 1796      		adiw r26,7
 922 0086 ED91      		ld r30,X+
 923 0088 FC91      		ld r31,X
 924 008a 1897      		sbiw r26,7+1
 925 008c 81E0      		ldi r24,lo8(1)
 926 008e 90E0      		ldi r25,0
 927 0090 8C0F      		add r24,r28
 928 0092 9D1F      		adc r25,r29
 929 0094 E80F      		add r30,r24
 930 0096 F91F      		adc r31,r25
 931 0098 1082      		st Z,__zero_reg__
 932               	.L79:
 933 009a AE01      		movw r20,r28
 934 009c 4E5E      		subi r20,-18
 935 009e 5F4F      		sbci r21,-1
 936 00a0 BE01      		movw r22,r28
 937 00a2 6F5F      		subi r22,-1
 938 00a4 7F4F      		sbci r23,-1
 939 00a6 D601      		movw r26,r12
 940 00a8 8D91      		ld r24,X+
 941 00aa 9C91      		ld r25,X
 942 00ac 0E94 0000 		call luaR_findentry
 943 00b0 2A89      		ldd r18,Y+18
 944 00b2 2330      		cpi r18,lo8(3)
 945 00b4 01F4      		brne .L80
 946 00b6 F701      		movw r30,r14
 947 00b8 7183      		std Z+1,r23
 948 00ba 6083      		st Z,r22
 949 00bc 83E0      		ldi r24,lo8(3)
 950 00be 90E0      		ldi r25,0
 951 00c0 00C0      		rjmp .L99
 952               	.L80:
 953 00c2 2530      		cpi r18,lo8(5)
 954 00c4 01F0      		breq .+2
 955 00c6 00C0      		rjmp .L75
 956 00c8 D701      		movw r26,r14
 957 00ca 6D93      		st X+,r22
 958 00cc 7D93      		st X+,r23
 959 00ce 8D93      		st X+,r24
 960 00d0 9C93      		st X,r25
 961 00d2 1397      		sbiw r26,3
 962 00d4 85E0      		ldi r24,lo8(5)
 963 00d6 90E0      		ldi r25,0
 964 00d8 1596      		adiw r26,4+1
GAS LISTING /tmp/ccRBarYT.s 			page 18


 965 00da 9C93      		st X,r25
 966 00dc 8E93      		st -X,r24
 967 00de 1497      		sbiw r26,4
 968 00e0 00C0      		rjmp .L75
 969               	.L76:
 970 00e2 84E6      		ldi r24,lo8(100)
 971 00e4 682E      		mov r6,r24
 972 00e6 712C      		mov r7,__zero_reg__
 973               	.L88:
 974 00e8 F601      		movw r30,r12
 975 00ea 8481      		ldd r24,Z+4
 976 00ec 9581      		ldd r25,Z+5
 977 00ee 0797      		sbiw r24,7
 978 00f0 01F4      		brne .L82
 979 00f2 8080      		ld r8,Z
 980 00f4 9180      		ldd r9,Z+1
 981 00f6 B801      		movw r22,r16
 982 00f8 C401      		movw r24,r8
 983 00fa 0E94 0000 		call luaH_get
 984 00fe 2C01      		movw r4,r24
 985 0100 DC01      		movw r26,r24
 986 0102 1496      		adiw r26,4
 987 0104 8D91      		ld r24,X+
 988 0106 9C91      		ld r25,X
 989 0108 1597      		sbiw r26,4+1
 990 010a 892B      		or r24,r25
 991 010c 01F0      		breq .L83
 992               	.L84:
 993 010e F201      		movw r30,r4
 994 0110 8081      		ld r24,Z
 995 0112 9181      		ldd r25,Z+1
 996 0114 A281      		ldd r26,Z+2
 997 0116 B381      		ldd r27,Z+3
 998 0118 F701      		movw r30,r14
 999 011a 8083      		st Z,r24
 1000 011c 9183      		std Z+1,r25
 1001 011e A283      		std Z+2,r26
 1002 0120 B383      		std Z+3,r27
 1003 0122 D201      		movw r26,r4
 1004 0124 1496      		adiw r26,4
 1005 0126 8D91      		ld r24,X+
 1006 0128 9C91      		ld r25,X
 1007 012a 1597      		sbiw r26,4+1
 1008               	.L99:
 1009 012c 9583      		std Z+5,r25
 1010 012e 8483      		std Z+4,r24
 1011 0130 00C0      		rjmp .L75
 1012               	.L83:
 1013 0132 F401      		movw r30,r8
 1014 0134 8681      		ldd r24,Z+6
 1015 0136 9781      		ldd r25,Z+7
 1016 0138 0097      		sbiw r24,0
 1017 013a 01F0      		breq .L84
 1018 013c DC01      		movw r26,r24
 1019 013e 1496      		adiw r26,4
 1020 0140 2C91      		ld r18,X
 1021 0142 20FD      		sbrc r18,0
GAS LISTING /tmp/ccRBarYT.s 			page 19


 1022 0144 00C0      		rjmp .L84
 1023 0146 D501      		movw r26,r10
 1024 0148 1996      		adiw r26,9
 1025 014a ED91      		ld r30,X+
 1026 014c FC91      		ld r31,X
 1027 014e 1A97      		sbiw r26,9+1
 1028 0150 EE59      		subi r30,-98
 1029 0152 FF4F      		sbci r31,-1
 1030 0154 4081      		ld r20,Z
 1031 0156 5181      		ldd r21,Z+1
 1032 0158 60E0      		ldi r22,0
 1033 015a 70E0      		ldi r23,0
 1034 015c 0E94 0000 		call luaT_gettm
 1035 0160 4C01      		movw r8,r24
 1036 0162 892B      		or r24,r25
 1037 0164 01F4      		brne .L85
 1038 0166 00C0      		rjmp .L84
 1039               	.L82:
 1040 0168 40E0      		ldi r20,0
 1041 016a 50E0      		ldi r21,0
 1042 016c B601      		movw r22,r12
 1043 016e C501      		movw r24,r10
 1044 0170 0E94 0000 		call luaT_gettmbyobj
 1045 0174 4C01      		movw r8,r24
 1046 0176 FC01      		movw r30,r24
 1047 0178 8481      		ldd r24,Z+4
 1048 017a 9581      		ldd r25,Z+5
 1049 017c 892B      		or r24,r25
 1050 017e 01F4      		brne .L85
 1051 0180 40E0      		ldi r20,lo8(.LC1)
 1052 0182 50E0      		ldi r21,hi8(.LC1)
 1053 0184 B601      		movw r22,r12
 1054 0186 C501      		movw r24,r10
 1055 0188 0E94 0000 		call luaG_typeerror
 1056               	.L85:
 1057 018c D401      		movw r26,r8
 1058 018e 1496      		adiw r26,4
 1059 0190 8D91      		ld r24,X+
 1060 0192 9C91      		ld r25,X
 1061 0194 1597      		sbiw r26,4+1
 1062 0196 8830      		cpi r24,8
 1063 0198 9105      		cpc r25,__zero_reg__
 1064 019a 01F4      		brne .L86
 1065               	.L87:
 1066 019c 9601      		movw r18,r12
 1067 019e A401      		movw r20,r8
 1068 01a0 B701      		movw r22,r14
 1069 01a2 C501      		movw r24,r10
 1070 01a4 0E94 0000 		call callTMres
 1071 01a8 00C0      		rjmp .L75
 1072               	.L86:
 1073 01aa 0397      		sbiw r24,3
 1074 01ac 01F0      		breq .L87
 1075 01ae B1E0      		ldi r27,1
 1076 01b0 6B1A      		sub r6,r27
 1077 01b2 7108      		sbc r7,__zero_reg__
 1078 01b4 01F0      		breq .L100
GAS LISTING /tmp/ccRBarYT.s 			page 20


 1079 01b6 6401      		movw r12,r8
 1080 01b8 00C0      		rjmp .L88
 1081               	.L100:
 1082 01ba 80E0      		ldi r24,lo8(.LC2)
 1083 01bc 90E0      		ldi r25,hi8(.LC2)
 1084 01be 9F93      		push r25
 1085 01c0 8F93      		push r24
 1086 01c2 BF92      		push r11
 1087 01c4 AF92      		push r10
 1088 01c6 0E94 0000 		call luaG_runerror
 1089 01ca 0F90      		pop __tmp_reg__
 1090 01cc 0F90      		pop __tmp_reg__
 1091 01ce 0F90      		pop __tmp_reg__
 1092 01d0 0F90      		pop __tmp_reg__
 1093               	.L75:
 1094               	/* epilogue start */
 1095 01d2 6296      		adiw r28,18
 1096 01d4 0FB6      		in __tmp_reg__,__SREG__
 1097 01d6 F894      		cli
 1098 01d8 DEBF      		out __SP_H__,r29
 1099 01da 0FBE      		out __SREG__,__tmp_reg__
 1100 01dc CDBF      		out __SP_L__,r28
 1101 01de DF91      		pop r29
 1102 01e0 CF91      		pop r28
 1103 01e2 1F91      		pop r17
 1104 01e4 0F91      		pop r16
 1105 01e6 FF90      		pop r15
 1106 01e8 EF90      		pop r14
 1107 01ea DF90      		pop r13
 1108 01ec CF90      		pop r12
 1109 01ee BF90      		pop r11
 1110 01f0 AF90      		pop r10
 1111 01f2 9F90      		pop r9
 1112 01f4 8F90      		pop r8
 1113 01f6 7F90      		pop r7
 1114 01f8 6F90      		pop r6
 1115 01fa 5F90      		pop r5
 1116 01fc 4F90      		pop r4
 1117 01fe 0895      		ret
 1118               		.size	luaV_gettable, .-luaV_gettable
 1119               		.section	.rodata.str1.1
 1120               	.LC3:
 1121 001b 6C6F 6F70 		.string	"loop in settable"
 1121      2069 6E20 
 1121      7365 7474 
 1121      6162 6C65 
 1121      00
 1122               		.section	.text.luaV_settable,"ax",@progbits
 1123               	.global	luaV_settable
 1124               		.hidden	luaV_settable
 1125               		.type	luaV_settable, @function
 1126               	luaV_settable:
 1127 0000 4F92      		push r4
 1128 0002 5F92      		push r5
 1129 0004 6F92      		push r6
 1130 0006 7F92      		push r7
 1131 0008 8F92      		push r8
GAS LISTING /tmp/ccRBarYT.s 			page 21


 1132 000a 9F92      		push r9
 1133 000c AF92      		push r10
 1134 000e BF92      		push r11
 1135 0010 CF92      		push r12
 1136 0012 DF92      		push r13
 1137 0014 EF92      		push r14
 1138 0016 FF92      		push r15
 1139 0018 0F93      		push r16
 1140 001a 1F93      		push r17
 1141 001c CF93      		push r28
 1142 001e DF93      		push r29
 1143               	/* prologue: function */
 1144               	/* frame size = 0 */
 1145               	/* stack size = 16 */
 1146               	.L__stack_usage = 16
 1147 0020 EC01      		movw r28,r24
 1148 0022 8B01      		movw r16,r22
 1149 0024 5A01      		movw r10,r20
 1150 0026 7901      		movw r14,r18
 1151 0028 84E6      		ldi r24,lo8(100)
 1152 002a 482E      		mov r4,r24
 1153 002c 512C      		mov r5,__zero_reg__
 1154               	.L110:
 1155 002e D801      		movw r26,r16
 1156 0030 1496      		adiw r26,4
 1157 0032 8D91      		ld r24,X+
 1158 0034 9C91      		ld r25,X
 1159 0036 1597      		sbiw r26,4+1
 1160 0038 0797      		sbiw r24,7
 1161 003a 01F0      		breq .+2
 1162 003c 00C0      		rjmp .L102
 1163 003e CD90      		ld r12,X+
 1164 0040 DC90      		ld r13,X
 1165 0042 A501      		movw r20,r10
 1166 0044 B601      		movw r22,r12
 1167 0046 CE01      		movw r24,r28
 1168 0048 0E94 0000 		call luaH_set
 1169 004c 4C01      		movw r8,r24
 1170 004e FC01      		movw r30,r24
 1171 0050 8481      		ldd r24,Z+4
 1172 0052 9581      		ldd r25,Z+5
 1173 0054 892B      		or r24,r25
 1174 0056 01F0      		breq .L103
 1175               	.L106:
 1176 0058 F701      		movw r30,r14
 1177 005a 8081      		ld r24,Z
 1178 005c 9181      		ldd r25,Z+1
 1179 005e A281      		ldd r26,Z+2
 1180 0060 B381      		ldd r27,Z+3
 1181 0062 F401      		movw r30,r8
 1182 0064 8083      		st Z,r24
 1183 0066 9183      		std Z+1,r25
 1184 0068 A283      		std Z+2,r26
 1185 006a B383      		std Z+3,r27
 1186 006c D701      		movw r26,r14
 1187 006e 1496      		adiw r26,4
 1188 0070 8D91      		ld r24,X+
GAS LISTING /tmp/ccRBarYT.s 			page 22


 1189 0072 9C91      		ld r25,X
 1190 0074 1597      		sbiw r26,4+1
 1191 0076 9583      		std Z+5,r25
 1192 0078 8483      		std Z+4,r24
 1193 007a 1496      		adiw r26,4
 1194 007c 8D91      		ld r24,X+
 1195 007e 9C91      		ld r25,X
 1196 0080 1597      		sbiw r26,4+1
 1197 0082 0697      		sbiw r24,6
 1198 0084 04F4      		brge .L104
 1199 0086 00C0      		rjmp .L101
 1200               	.L103:
 1201 0088 F601      		movw r30,r12
 1202 008a 8681      		ldd r24,Z+6
 1203 008c 9781      		ldd r25,Z+7
 1204 008e 0097      		sbiw r24,0
 1205 0090 01F0      		breq .L106
 1206 0092 DC01      		movw r26,r24
 1207 0094 1496      		adiw r26,4
 1208 0096 2C91      		ld r18,X
 1209 0098 21FD      		sbrc r18,1
 1210 009a 00C0      		rjmp .L106
 1211 009c E985      		ldd r30,Y+9
 1212 009e FA85      		ldd r31,Y+10
 1213 00a0 EC59      		subi r30,-100
 1214 00a2 FF4F      		sbci r31,-1
 1215 00a4 4081      		ld r20,Z
 1216 00a6 5181      		ldd r21,Z+1
 1217 00a8 61E0      		ldi r22,lo8(1)
 1218 00aa 70E0      		ldi r23,0
 1219 00ac 0E94 0000 		call luaT_gettm
 1220 00b0 3C01      		movw r6,r24
 1221 00b2 892B      		or r24,r25
 1222 00b4 01F4      		brne .L107
 1223 00b6 00C0      		rjmp .L106
 1224               	.L104:
 1225 00b8 D701      		movw r26,r14
 1226 00ba ED91      		ld r30,X+
 1227 00bc FC91      		ld r31,X
 1228 00be 8381      		ldd r24,Z+3
 1229 00c0 8370      		andi r24,lo8(3)
 1230 00c2 01F4      		brne .+2
 1231 00c4 00C0      		rjmp .L101
 1232 00c6 F601      		movw r30,r12
 1233 00c8 8381      		ldd r24,Z+3
 1234 00ca 82FF      		sbrs r24,2
 1235 00cc 00C0      		rjmp .L101
 1236 00ce B601      		movw r22,r12
 1237 00d0 CE01      		movw r24,r28
 1238               	/* epilogue start */
 1239 00d2 DF91      		pop r29
 1240 00d4 CF91      		pop r28
 1241 00d6 1F91      		pop r17
 1242 00d8 0F91      		pop r16
 1243 00da FF90      		pop r15
 1244 00dc EF90      		pop r14
 1245 00de DF90      		pop r13
GAS LISTING /tmp/ccRBarYT.s 			page 23


 1246 00e0 CF90      		pop r12
 1247 00e2 BF90      		pop r11
 1248 00e4 AF90      		pop r10
 1249 00e6 9F90      		pop r9
 1250 00e8 8F90      		pop r8
 1251 00ea 7F90      		pop r7
 1252 00ec 6F90      		pop r6
 1253 00ee 5F90      		pop r5
 1254 00f0 4F90      		pop r4
 1255 00f2 0C94 0000 		jmp luaC_barrierback
 1256               	.L102:
 1257 00f6 41E0      		ldi r20,lo8(1)
 1258 00f8 50E0      		ldi r21,0
 1259 00fa B801      		movw r22,r16
 1260 00fc CE01      		movw r24,r28
 1261 00fe 0E94 0000 		call luaT_gettmbyobj
 1262 0102 3C01      		movw r6,r24
 1263 0104 DC01      		movw r26,r24
 1264 0106 1496      		adiw r26,4
 1265 0108 8D91      		ld r24,X+
 1266 010a 9C91      		ld r25,X
 1267 010c 1597      		sbiw r26,4+1
 1268 010e 892B      		or r24,r25
 1269 0110 01F4      		brne .L107
 1270 0112 40E0      		ldi r20,lo8(.LC1)
 1271 0114 50E0      		ldi r21,hi8(.LC1)
 1272 0116 B801      		movw r22,r16
 1273 0118 CE01      		movw r24,r28
 1274 011a 0E94 0000 		call luaG_typeerror
 1275               	.L107:
 1276 011e F301      		movw r30,r6
 1277 0120 8481      		ldd r24,Z+4
 1278 0122 9581      		ldd r25,Z+5
 1279 0124 8830      		cpi r24,8
 1280 0126 9105      		cpc r25,__zero_reg__
 1281 0128 01F0      		breq .+2
 1282 012a 00C0      		rjmp .L108
 1283 012c ED81      		ldd r30,Y+5
 1284 012e FE81      		ldd r31,Y+6
 1285 0130 D301      		movw r26,r6
 1286 0132 4D91      		ld r20,X+
 1287 0134 5D91      		ld r21,X+
 1288 0136 6D91      		ld r22,X+
 1289 0138 7C91      		ld r23,X
 1290 013a 4083      		st Z,r20
 1291 013c 5183      		std Z+1,r21
 1292 013e 6283      		std Z+2,r22
 1293 0140 7383      		std Z+3,r23
 1294 0142 9583      		std Z+5,r25
 1295 0144 8483      		std Z+4,r24
 1296 0146 D801      		movw r26,r16
 1297 0148 4D91      		ld r20,X+
 1298 014a 5D91      		ld r21,X+
 1299 014c 6D91      		ld r22,X+
 1300 014e 7C91      		ld r23,X
 1301 0150 1397      		sbiw r26,3
 1302 0152 4683      		std Z+6,r20
GAS LISTING /tmp/ccRBarYT.s 			page 24


 1303 0154 5783      		std Z+7,r21
 1304 0156 6087      		std Z+8,r22
 1305 0158 7187      		std Z+9,r23
 1306 015a 1496      		adiw r26,4
 1307 015c 8D91      		ld r24,X+
 1308 015e 9C91      		ld r25,X
 1309 0160 1597      		sbiw r26,4+1
 1310 0162 9387      		std Z+11,r25
 1311 0164 8287      		std Z+10,r24
 1312 0166 D501      		movw r26,r10
 1313 0168 4D91      		ld r20,X+
 1314 016a 5D91      		ld r21,X+
 1315 016c 6D91      		ld r22,X+
 1316 016e 7C91      		ld r23,X
 1317 0170 1397      		sbiw r26,3
 1318 0172 4487      		std Z+12,r20
 1319 0174 5587      		std Z+13,r21
 1320 0176 6687      		std Z+14,r22
 1321 0178 7787      		std Z+15,r23
 1322 017a 1496      		adiw r26,4
 1323 017c 8D91      		ld r24,X+
 1324 017e 9C91      		ld r25,X
 1325 0180 1597      		sbiw r26,4+1
 1326 0182 918B      		std Z+17,r25
 1327 0184 808B      		std Z+16,r24
 1328 0186 D701      		movw r26,r14
 1329 0188 4D91      		ld r20,X+
 1330 018a 5D91      		ld r21,X+
 1331 018c 6D91      		ld r22,X+
 1332 018e 7C91      		ld r23,X
 1333 0190 1397      		sbiw r26,3
 1334 0192 428B      		std Z+18,r20
 1335 0194 538B      		std Z+19,r21
 1336 0196 648B      		std Z+20,r22
 1337 0198 758B      		std Z+21,r23
 1338 019a 1496      		adiw r26,4
 1339 019c 8D91      		ld r24,X+
 1340 019e 9C91      		ld r25,X
 1341 01a0 1597      		sbiw r26,4+1
 1342 01a2 978B      		std Z+23,r25
 1343 01a4 868B      		std Z+22,r24
 1344 01a6 8F85      		ldd r24,Y+15
 1345 01a8 9889      		ldd r25,Y+16
 1346 01aa 8E1B      		sub r24,r30
 1347 01ac 9F0B      		sbc r25,r31
 1348 01ae 4997      		sbiw r24,25
 1349 01b0 04F4      		brge .L109
 1350 01b2 64E0      		ldi r22,lo8(4)
 1351 01b4 70E0      		ldi r23,0
 1352 01b6 CE01      		movw r24,r28
 1353 01b8 0E94 0000 		call luaD_growstack
 1354               	.L109:
 1355 01bc 6D81      		ldd r22,Y+5
 1356 01be 7E81      		ldd r23,Y+6
 1357 01c0 CB01      		movw r24,r22
 1358 01c2 4896      		adiw r24,24
 1359 01c4 9E83      		std Y+6,r25
GAS LISTING /tmp/ccRBarYT.s 			page 25


 1360 01c6 8D83      		std Y+5,r24
 1361 01c8 40E0      		ldi r20,0
 1362 01ca 50E0      		ldi r21,0
 1363 01cc CE01      		movw r24,r28
 1364               	/* epilogue start */
 1365 01ce DF91      		pop r29
 1366 01d0 CF91      		pop r28
 1367 01d2 1F91      		pop r17
 1368 01d4 0F91      		pop r16
 1369 01d6 FF90      		pop r15
 1370 01d8 EF90      		pop r14
 1371 01da DF90      		pop r13
 1372 01dc CF90      		pop r12
 1373 01de BF90      		pop r11
 1374 01e0 AF90      		pop r10
 1375 01e2 9F90      		pop r9
 1376 01e4 8F90      		pop r8
 1377 01e6 7F90      		pop r7
 1378 01e8 6F90      		pop r6
 1379 01ea 5F90      		pop r5
 1380 01ec 4F90      		pop r4
 1381 01ee 0C94 0000 		jmp luaD_call
 1382               	.L108:
 1383 01f2 B1E0      		ldi r27,1
 1384 01f4 4B1A      		sub r4,r27
 1385 01f6 5108      		sbc r5,__zero_reg__
 1386 01f8 01F0      		breq .L124
 1387 01fa 8301      		movw r16,r6
 1388 01fc 00C0      		rjmp .L110
 1389               	.L124:
 1390 01fe 80E0      		ldi r24,lo8(.LC3)
 1391 0200 90E0      		ldi r25,hi8(.LC3)
 1392 0202 9F93      		push r25
 1393 0204 8F93      		push r24
 1394 0206 DF93      		push r29
 1395 0208 CF93      		push r28
 1396 020a 0E94 0000 		call luaG_runerror
 1397 020e 0F90      		pop __tmp_reg__
 1398 0210 0F90      		pop __tmp_reg__
 1399 0212 0F90      		pop __tmp_reg__
 1400 0214 0F90      		pop __tmp_reg__
 1401               	.L101:
 1402               	/* epilogue start */
 1403 0216 DF91      		pop r29
 1404 0218 CF91      		pop r28
 1405 021a 1F91      		pop r17
 1406 021c 0F91      		pop r16
 1407 021e FF90      		pop r15
 1408 0220 EF90      		pop r14
 1409 0222 DF90      		pop r13
 1410 0224 CF90      		pop r12
 1411 0226 BF90      		pop r11
 1412 0228 AF90      		pop r10
 1413 022a 9F90      		pop r9
 1414 022c 8F90      		pop r8
 1415 022e 7F90      		pop r7
 1416 0230 6F90      		pop r6
GAS LISTING /tmp/ccRBarYT.s 			page 26


 1417 0232 5F90      		pop r5
 1418 0234 4F90      		pop r4
 1419 0236 0895      		ret
 1420               		.size	luaV_settable, .-luaV_settable
 1421               		.section	.text.luaV_lessthan,"ax",@progbits
 1422               	.global	luaV_lessthan
 1423               		.hidden	luaV_lessthan
 1424               		.type	luaV_lessthan, @function
 1425               	luaV_lessthan:
 1426 0000 EF92      		push r14
 1427 0002 FF92      		push r15
 1428 0004 0F93      		push r16
 1429 0006 1F93      		push r17
 1430 0008 CF93      		push r28
 1431 000a DF93      		push r29
 1432               	/* prologue: function */
 1433               	/* frame size = 0 */
 1434               	/* stack size = 6 */
 1435               	.L__stack_usage = 6
 1436 000c 7C01      		movw r14,r24
 1437 000e EB01      		movw r28,r22
 1438 0010 8A01      		movw r16,r20
 1439 0012 8C81      		ldd r24,Y+4
 1440 0014 9D81      		ldd r25,Y+5
 1441 0016 FA01      		movw r30,r20
 1442 0018 2481      		ldd r18,Z+4
 1443 001a 3581      		ldd r19,Z+5
 1444 001c 8217      		cp r24,r18
 1445 001e 9307      		cpc r25,r19
 1446 0020 01F4      		brne .L132
 1447 0022 8530      		cpi r24,5
 1448 0024 9105      		cpc r25,__zero_reg__
 1449 0026 01F4      		brne .L127
 1450 0028 31E0      		ldi r19,lo8(1)
 1451 002a 20E0      		ldi r18,0
 1452 002c 4881      		ld r20,Y
 1453 002e 5981      		ldd r21,Y+1
 1454 0030 6A81      		ldd r22,Y+2
 1455 0032 7B81      		ldd r23,Y+3
 1456 0034 F801      		movw r30,r16
 1457 0036 8081      		ld r24,Z
 1458 0038 9181      		ldd r25,Z+1
 1459 003a A281      		ldd r26,Z+2
 1460 003c B381      		ldd r27,Z+3
 1461 003e 4817      		cp r20,r24
 1462 0040 5907      		cpc r21,r25
 1463 0042 6A07      		cpc r22,r26
 1464 0044 7B07      		cpc r23,r27
 1465 0046 04F0      		brlt .L128
 1466 0048 30E0      		ldi r19,0
 1467               	.L128:
 1468 004a 832F      		mov r24,r19
 1469 004c 922F      		mov r25,r18
 1470 004e 00C0      		rjmp .L129
 1471               	.L127:
 1472 0050 0697      		sbiw r24,6
 1473 0052 01F4      		brne .L130
GAS LISTING /tmp/ccRBarYT.s 			page 27


 1474 0054 FA01      		movw r30,r20
 1475 0056 6081      		ld r22,Z
 1476 0058 7181      		ldd r23,Z+1
 1477 005a 8881      		ld r24,Y
 1478 005c 9981      		ldd r25,Y+1
 1479 005e 0E94 0000 		call l_strcmp
 1480 0062 991F      		rol r25
 1481 0064 9927      		clr r25
 1482 0066 991F      		rol r25
 1483 0068 892F      		mov r24,r25
 1484 006a 90E0      		ldi r25,0
 1485 006c 00C0      		rjmp .L129
 1486               	.L130:
 1487 006e 2DE0      		ldi r18,lo8(13)
 1488 0070 30E0      		ldi r19,0
 1489 0072 C701      		movw r24,r14
 1490 0074 0E94 0000 		call call_orderTM
 1491 0078 8F3F      		cpi r24,-1
 1492 007a FFEF      		ldi r31,-1
 1493 007c 9F07      		cpc r25,r31
 1494 007e 01F4      		brne .L129
 1495               	.L132:
 1496 0080 A801      		movw r20,r16
 1497 0082 BE01      		movw r22,r28
 1498 0084 C701      		movw r24,r14
 1499               	/* epilogue start */
 1500 0086 DF91      		pop r29
 1501 0088 CF91      		pop r28
 1502 008a 1F91      		pop r17
 1503 008c 0F91      		pop r16
 1504 008e FF90      		pop r15
 1505 0090 EF90      		pop r14
 1506 0092 0C94 0000 		jmp luaG_ordererror
 1507               	.L129:
 1508               	/* epilogue start */
 1509 0096 DF91      		pop r29
 1510 0098 CF91      		pop r28
 1511 009a 1F91      		pop r17
 1512 009c 0F91      		pop r16
 1513 009e FF90      		pop r15
 1514 00a0 EF90      		pop r14
 1515 00a2 0895      		ret
 1516               		.size	luaV_lessthan, .-luaV_lessthan
 1517               		.section	.text.luaV_equalval,"ax",@progbits
 1518               	.global	luaV_equalval
 1519               		.hidden	luaV_equalval
 1520               		.type	luaV_equalval, @function
 1521               	luaV_equalval:
 1522 0000 CF92      		push r12
 1523 0002 DF92      		push r13
 1524 0004 EF92      		push r14
 1525 0006 FF92      		push r15
 1526 0008 0F93      		push r16
 1527 000a 1F93      		push r17
 1528 000c CF93      		push r28
 1529 000e DF93      		push r29
 1530               	/* prologue: function */
GAS LISTING /tmp/ccRBarYT.s 			page 28


 1531               	/* frame size = 0 */
 1532               	/* stack size = 8 */
 1533               	.L__stack_usage = 8
 1534 0010 7C01      		movw r14,r24
 1535 0012 EB01      		movw r28,r22
 1536 0014 8A01      		movw r16,r20
 1537 0016 EC81      		ldd r30,Y+4
 1538 0018 FD81      		ldd r31,Y+5
 1539 001a EA30      		cpi r30,10
 1540 001c F105      		cpc r31,__zero_reg__
 1541 001e 00F0      		brlo .+2
 1542 0020 00C0      		rjmp .L134
 1543 0022 8827      		clr r24
 1544 0024 E050      		subi r30,pm_lo8(-(.L136))
 1545 0026 F040      		sbci r31,pm_hi8(-(.L136))
 1546 0028 8040      		sbci r24,pm_hh8(-(.L136))
 1547 002a 0C94 0000 		jmp __tablejump2__
 1548               		.section	.progmem.gcc_sw_table.luaV_equalval,"a",@progbits
 1549               		.p2align	1
 1550               	.L136:
 1551 0000 0000      		.word gs(.L150)
 1552 0002 0000      		.word gs(.L134)
 1553 0004 0000      		.word gs(.L138)
 1554 0006 0000      		.word gs(.L138)
 1555 0008 0000      		.word gs(.L138)
 1556 000a 0000      		.word gs(.L139)
 1557 000c 0000      		.word gs(.L134)
 1558 000e 0000      		.word gs(.L140)
 1559 0010 0000      		.word gs(.L134)
 1560 0012 0000      		.word gs(.L141)
 1561               		.section	.text.luaV_equalval
 1562               	.L139:
 1563 002e 81E0      		ldi r24,lo8(1)
 1564 0030 90E0      		ldi r25,0
 1565 0032 C880      		ld r12,Y
 1566 0034 D980      		ldd r13,Y+1
 1567 0036 EA80      		ldd r14,Y+2
 1568 0038 FB80      		ldd r15,Y+3
 1569 003a DA01      		movw r26,r20
 1570 003c 4D91      		ld r20,X+
 1571 003e 5D91      		ld r21,X+
 1572 0040 6D91      		ld r22,X+
 1573 0042 7C91      		ld r23,X
 1574 0044 C416      		cp r12,r20
 1575 0046 D506      		cpc r13,r21
 1576 0048 E606      		cpc r14,r22
 1577 004a F706      		cpc r15,r23
 1578 004c 01F4      		brne .L158
 1579 004e 00C0      		rjmp .L135
 1580               	.L138:
 1581 0050 81E0      		ldi r24,lo8(1)
 1582 0052 90E0      		ldi r25,0
 1583 0054 4881      		ld r20,Y
 1584 0056 5981      		ldd r21,Y+1
 1585 0058 D801      		movw r26,r16
 1586 005a 2D91      		ld r18,X+
 1587 005c 3C91      		ld r19,X
GAS LISTING /tmp/ccRBarYT.s 			page 29


 1588 005e 00C0      		rjmp .L159
 1589               	.L141:
 1590 0060 8881      		ld r24,Y
 1591 0062 9981      		ldd r25,Y+1
 1592 0064 FA01      		movw r30,r20
 1593 0066 A081      		ld r26,Z
 1594 0068 B181      		ldd r27,Z+1
 1595 006a 8A17      		cp r24,r26
 1596 006c 9B07      		cpc r25,r27
 1597 006e 01F4      		brne .+2
 1598 0070 00C0      		rjmp .L150
 1599 0072 1496      		adiw r26,4
 1600 0074 4D91      		ld r20,X+
 1601 0076 5C91      		ld r21,X
 1602 0078 1597      		sbiw r26,4+1
 1603 007a DC01      		movw r26,r24
 1604 007c 1496      		adiw r26,4
 1605 007e 6D91      		ld r22,X+
 1606 0080 7C91      		ld r23,X
 1607 0082 1597      		sbiw r26,4+1
 1608 0084 00C0      		rjmp .L157
 1609               	.L140:
 1610 0086 8881      		ld r24,Y
 1611 0088 9981      		ldd r25,Y+1
 1612 008a FA01      		movw r30,r20
 1613 008c A081      		ld r26,Z
 1614 008e B181      		ldd r27,Z+1
 1615 0090 8A17      		cp r24,r26
 1616 0092 9B07      		cpc r25,r27
 1617 0094 01F0      		breq .L150
 1618 0096 1696      		adiw r26,6
 1619 0098 4D91      		ld r20,X+
 1620 009a 5C91      		ld r21,X
 1621 009c 1797      		sbiw r26,6+1
 1622 009e DC01      		movw r26,r24
 1623 00a0 1696      		adiw r26,6
 1624 00a2 6D91      		ld r22,X+
 1625 00a4 7C91      		ld r23,X
 1626 00a6 1797      		sbiw r26,6+1
 1627               	.L157:
 1628 00a8 C701      		movw r24,r14
 1629 00aa 0996      		adiw r24,9
 1630 00ac 0E94 0000 		call get_compTM.isra.0.constprop.5
 1631 00b0 0097      		sbiw r24,0
 1632 00b2 01F4      		brne .L161
 1633 00b4 00C0      		rjmp .L149
 1634               	.L134:
 1635 00b6 81E0      		ldi r24,lo8(1)
 1636 00b8 90E0      		ldi r25,0
 1637 00ba 4881      		ld r20,Y
 1638 00bc 5981      		ldd r21,Y+1
 1639 00be F801      		movw r30,r16
 1640 00c0 2081      		ld r18,Z
 1641 00c2 3181      		ldd r19,Z+1
 1642               	.L159:
 1643 00c4 4217      		cp r20,r18
 1644 00c6 5307      		cpc r21,r19
GAS LISTING /tmp/ccRBarYT.s 			page 30


 1645 00c8 01F0      		breq .L135
 1646               	.L158:
 1647 00ca 80E0      		ldi r24,0
 1648 00cc 00C0      		rjmp .L135
 1649               	.L161:
 1650 00ce D701      		movw r26,r14
 1651 00d0 1596      		adiw r26,5
 1652 00d2 6D91      		ld r22,X+
 1653 00d4 7C91      		ld r23,X
 1654 00d6 1697      		sbiw r26,5+1
 1655 00d8 9E01      		movw r18,r28
 1656 00da AC01      		movw r20,r24
 1657 00dc C701      		movw r24,r14
 1658 00de 0E94 0000 		call callTMres
 1659 00e2 D701      		movw r26,r14
 1660 00e4 1596      		adiw r26,5
 1661 00e6 ED91      		ld r30,X+
 1662 00e8 FC91      		ld r31,X
 1663 00ea 1697      		sbiw r26,5+1
 1664 00ec 8481      		ldd r24,Z+4
 1665 00ee 9581      		ldd r25,Z+5
 1666 00f0 0097      		sbiw r24,0
 1667 00f2 01F0      		breq .L149
 1668 00f4 0197      		sbiw r24,1
 1669 00f6 01F4      		brne .L150
 1670 00f8 8081      		ld r24,Z
 1671 00fa 9181      		ldd r25,Z+1
 1672 00fc 892B      		or r24,r25
 1673 00fe 01F4      		brne .L150
 1674               	.L149:
 1675 0100 80E0      		ldi r24,0
 1676 0102 00C0      		rjmp .L160
 1677               	.L150:
 1678 0104 81E0      		ldi r24,lo8(1)
 1679               	.L160:
 1680 0106 90E0      		ldi r25,0
 1681               	.L135:
 1682               	/* epilogue start */
 1683 0108 DF91      		pop r29
 1684 010a CF91      		pop r28
 1685 010c 1F91      		pop r17
 1686 010e 0F91      		pop r16
 1687 0110 FF90      		pop r15
 1688 0112 EF90      		pop r14
 1689 0114 DF90      		pop r13
 1690 0116 CF90      		pop r12
 1691 0118 0895      		ret
 1692               		.size	luaV_equalval, .-luaV_equalval
 1693               		.section	.rodata.str1.1
 1694               	.LC4:
 1695 002c 7374 7269 		.string	"string length overflow"
 1695      6E67 206C 
 1695      656E 6774 
 1695      6820 6F76 
 1695      6572 666C 
 1696               		.section	.text.luaV_concat,"ax",@progbits
 1697               	.global	luaV_concat
GAS LISTING /tmp/ccRBarYT.s 			page 31


 1698               		.hidden	luaV_concat
 1699               		.type	luaV_concat, @function
 1700               	luaV_concat:
 1701 0000 2F92      		push r2
 1702 0002 3F92      		push r3
 1703 0004 4F92      		push r4
 1704 0006 5F92      		push r5
 1705 0008 6F92      		push r6
 1706 000a 7F92      		push r7
 1707 000c 8F92      		push r8
 1708 000e 9F92      		push r9
 1709 0010 AF92      		push r10
 1710 0012 BF92      		push r11
 1711 0014 CF92      		push r12
 1712 0016 DF92      		push r13
 1713 0018 EF92      		push r14
 1714 001a FF92      		push r15
 1715 001c 0F93      		push r16
 1716 001e 1F93      		push r17
 1717 0020 CF93      		push r28
 1718 0022 DF93      		push r29
 1719 0024 00D0      		rcall .
 1720 0026 1F92      		push __zero_reg__
 1721 0028 CDB7      		in r28,__SP_L__
 1722 002a DEB7      		in r29,__SP_H__
 1723               	/* prologue: function */
 1724               	/* frame size = 4 */
 1725               	/* stack size = 22 */
 1726               	.L__stack_usage = 22
 1727 002c 7C01      		movw r14,r24
 1728 002e 6B01      		movw r12,r22
 1729 0030 2A01      		movw r4,r20
 1730               	.L176:
 1731 0032 9201      		movw r18,r4
 1732 0034 2F5F      		subi r18,-1
 1733 0036 3F4F      		sbci r19,-1
 1734 0038 46E0      		ldi r20,lo8(6)
 1735 003a 429F      		mul r20,r18
 1736 003c C001      		movw r24,r0
 1737 003e 439F      		mul r20,r19
 1738 0040 900D      		add r25,r0
 1739 0042 1124      		clr __zero_reg__
 1740 0044 D701      		movw r26,r14
 1741 0046 1796      		adiw r26,7
 1742 0048 AD90      		ld r10,X+
 1743 004a BC90      		ld r11,X
 1744 004c 1897      		sbiw r26,7+1
 1745 004e A80E      		add r10,r24
 1746 0050 B91E      		adc r11,r25
 1747 0052 3501      		movw r6,r10
 1748 0054 BCE0      		ldi r27,12
 1749 0056 6B1A      		sub r6,r27
 1750 0058 7108      		sbc r7,__zero_reg__
 1751 005a F301      		movw r30,r6
 1752 005c 8481      		ldd r24,Z+4
 1753 005e 9581      		ldd r25,Z+5
 1754 0060 0597      		sbiw r24,5
GAS LISTING /tmp/ccRBarYT.s 			page 32


 1755 0062 9501      		movw r18,r10
 1756 0064 2650      		subi r18,6
 1757 0066 3109      		sbc r19,__zero_reg__
 1758 0068 4901      		movw r8,r18
 1759 006a 0297      		sbiw r24,2
 1760 006c 00F0      		brlo .L163
 1761               	.L167:
 1762 006e 0FE0      		ldi r16,lo8(15)
 1763 0070 10E0      		ldi r17,0
 1764 0072 9301      		movw r18,r6
 1765 0074 A401      		movw r20,r8
 1766 0076 B301      		movw r22,r6
 1767 0078 C701      		movw r24,r14
 1768 007a 0E94 0000 		call call_binTM
 1769 007e 892B      		or r24,r25
 1770 0080 01F4      		brne .L191
 1771 0082 A401      		movw r20,r8
 1772 0084 B301      		movw r22,r6
 1773 0086 C701      		movw r24,r14
 1774 0088 0E94 0000 		call luaG_concaterror
 1775 008c 00C0      		rjmp .L191
 1776               	.L163:
 1777 008e D901      		movw r26,r18
 1778 0090 1496      		adiw r26,4
 1779 0092 8D91      		ld r24,X+
 1780 0094 9C91      		ld r25,X
 1781 0096 1597      		sbiw r26,4+1
 1782 0098 0697      		sbiw r24,6
 1783 009a 01F0      		breq .L166
 1784 009c B901      		movw r22,r18
 1785 009e C701      		movw r24,r14
 1786 00a0 0E94 0000 		call luaV_tostring
 1787 00a4 892B      		or r24,r25
 1788 00a6 01F0      		breq .L167
 1789 00a8 00C0      		rjmp .L166
 1790               	.L169:
 1791 00aa F301      		movw r30,r6
 1792 00ac 8481      		ldd r24,Z+4
 1793 00ae 9581      		ldd r25,Z+5
 1794 00b0 0697      		sbiw r24,6
 1795 00b2 01F0      		breq .L191
 1796 00b4 B301      		movw r22,r6
 1797 00b6 C701      		movw r24,r14
 1798 00b8 0E94 0000 		call luaV_tostring
 1799               	.L191:
 1800 00bc 02E0      		ldi r16,lo8(2)
 1801 00be 10E0      		ldi r17,0
 1802 00c0 00C0      		rjmp .L168
 1803               	.L166:
 1804 00c2 D401      		movw r26,r8
 1805 00c4 ED91      		ld r30,X+
 1806 00c6 FC91      		ld r31,X
 1807 00c8 8780      		ldd r8,Z+7
 1808 00ca 9084      		ldd r9,Z+8
 1809 00cc 8114      		cp r8,__zero_reg__
 1810 00ce 9104      		cpc r9,__zero_reg__
 1811 00d0 01F0      		breq .L169
GAS LISTING /tmp/ccRBarYT.s 			page 33


 1812 00d2 01E0      		ldi r16,lo8(1)
 1813 00d4 10E0      		ldi r17,0
 1814 00d6 00C0      		rjmp .L170
 1815               	.L172:
 1816 00d8 F301      		movw r30,r6
 1817 00da 8481      		ldd r24,Z+4
 1818 00dc 9581      		ldd r25,Z+5
 1819 00de 0697      		sbiw r24,6
 1820 00e0 01F4      		brne .L192
 1821               	.L174:
 1822 00e2 D301      		movw r26,r6
 1823 00e4 ED91      		ld r30,X+
 1824 00e6 FC91      		ld r31,X
 1825 00e8 2780      		ldd r2,Z+7
 1826 00ea 3084      		ldd r3,Z+8
 1827 00ec 8DEF      		ldi r24,lo8(-3)
 1828 00ee 9FEF      		ldi r25,lo8(-1)
 1829 00f0 8819      		sub r24,r8
 1830 00f2 9909      		sbc r25,r9
 1831 00f4 2816      		cp r2,r24
 1832 00f6 3906      		cpc r3,r25
 1833 00f8 00F0      		brlo .L171
 1834 00fa A0E0      		ldi r26,lo8(.LC4)
 1835 00fc B0E0      		ldi r27,hi8(.LC4)
 1836 00fe BF93      		push r27
 1837 0100 AF93      		push r26
 1838 0102 FF92      		push r15
 1839 0104 EF92      		push r14
 1840 0106 0E94 0000 		call luaG_runerror
 1841 010a 0F90      		pop __tmp_reg__
 1842 010c 0F90      		pop __tmp_reg__
 1843 010e 0F90      		pop __tmp_reg__
 1844 0110 0F90      		pop __tmp_reg__
 1845               	.L171:
 1846 0112 820C      		add r8,r2
 1847 0114 931C      		adc r9,r3
 1848 0116 0F5F      		subi r16,-1
 1849 0118 1F4F      		sbci r17,-1
 1850 011a F6E0      		ldi r31,6
 1851 011c 6F1A      		sub r6,r31
 1852 011e 7108      		sbc r7,__zero_reg__
 1853               	.L170:
 1854 0120 0C15      		cp r16,r12
 1855 0122 1D05      		cpc r17,r13
 1856 0124 04F0      		brlt .L172
 1857               	.L175:
 1858 0126 D701      		movw r26,r14
 1859 0128 1996      		adiw r26,9
 1860 012a 6D91      		ld r22,X+
 1861 012c 7C91      		ld r23,X
 1862 012e 1A97      		sbiw r26,9+1
 1863 0130 645E      		subi r22,-28
 1864 0132 7F4F      		sbci r23,-1
 1865 0134 A401      		movw r20,r8
 1866 0136 C701      		movw r24,r14
 1867 0138 0E94 0000 		call luaZ_openspace
 1868 013c 1C01      		movw r2,r24
GAS LISTING /tmp/ccRBarYT.s 			page 34


 1869 013e B6E0      		ldi r27,lo8(6)
 1870 0140 B09F      		mul r27,r16
 1871 0142 C001      		movw r24,r0
 1872 0144 B19F      		mul r27,r17
 1873 0146 900D      		add r25,r0
 1874 0148 1124      		clr __zero_reg__
 1875 014a 3501      		movw r6,r10
 1876 014c 681A      		sub r6,r24
 1877 014e 790A      		sbc r7,r25
 1878 0150 4301      		movw r8,r6
 1879 0152 1C82      		std Y+4,__zero_reg__
 1880 0154 1B82      		std Y+3,__zero_reg__
 1881 0156 00C0      		rjmp .L173
 1882               	.L192:
 1883 0158 B301      		movw r22,r6
 1884 015a C701      		movw r24,r14
 1885 015c 0E94 0000 		call luaV_tostring
 1886 0160 892B      		or r24,r25
 1887 0162 01F0      		breq .+2
 1888 0164 00C0      		rjmp .L174
 1889 0166 00C0      		rjmp .L175
 1890               	.L173:
 1891 0168 D401      		movw r26,r8
 1892 016a ED91      		ld r30,X+
 1893 016c FC91      		ld r31,X
 1894 016e 2781      		ldd r18,Z+7
 1895 0170 3085      		ldd r19,Z+8
 1896 0172 BF01      		movw r22,r30
 1897 0174 675F      		subi r22,-9
 1898 0176 7F4F      		sbci r23,-1
 1899 0178 A901      		movw r20,r18
 1900 017a 8B81      		ldd r24,Y+3
 1901 017c 9C81      		ldd r25,Y+4
 1902 017e 820D      		add r24,r2
 1903 0180 931D      		adc r25,r3
 1904 0182 2983      		std Y+1,r18
 1905 0184 3A83      		std Y+2,r19
 1906 0186 0E94 0000 		call memcpy
 1907 018a 2981      		ldd r18,Y+1
 1908 018c 3A81      		ldd r19,Y+2
 1909 018e EB81      		ldd r30,Y+3
 1910 0190 FC81      		ldd r31,Y+4
 1911 0192 E20F      		add r30,r18
 1912 0194 F31F      		adc r31,r19
 1913 0196 FC83      		std Y+4,r31
 1914 0198 EB83      		std Y+3,r30
 1915 019a F6E0      		ldi r31,6
 1916 019c 8F0E      		add r8,r31
 1917 019e 911C      		adc r9,__zero_reg__
 1918 01a0 8A14      		cp r8,r10
 1919 01a2 9B04      		cpc r9,r11
 1920 01a4 01F4      		brne .L173
 1921 01a6 4B81      		ldd r20,Y+3
 1922 01a8 5C81      		ldd r21,Y+4
 1923 01aa B101      		movw r22,r2
 1924 01ac C701      		movw r24,r14
 1925 01ae 0E94 0000 		call luaS_newlstr
GAS LISTING /tmp/ccRBarYT.s 			page 35


 1926 01b2 D301      		movw r26,r6
 1927 01b4 1196      		adiw r26,1
 1928 01b6 9C93      		st X,r25
 1929 01b8 8E93      		st -X,r24
 1930 01ba E6E0      		ldi r30,lo8(6)
 1931 01bc F0E0      		ldi r31,0
 1932 01be 1596      		adiw r26,4+1
 1933 01c0 FC93      		st X,r31
 1934 01c2 EE93      		st -X,r30
 1935 01c4 1497      		sbiw r26,4
 1936               	.L168:
 1937 01c6 0150      		subi r16,1
 1938 01c8 1109      		sbc r17,__zero_reg__
 1939 01ca C01A      		sub r12,r16
 1940 01cc D10A      		sbc r13,r17
 1941 01ce 401A      		sub r4,r16
 1942 01d0 510A      		sbc r5,r17
 1943 01d2 F2E0      		ldi r31,2
 1944 01d4 CF16      		cp r12,r31
 1945 01d6 D104      		cpc r13,__zero_reg__
 1946 01d8 04F0      		brlt .+2
 1947 01da 00C0      		rjmp .L176
 1948               	/* epilogue start */
 1949 01dc 0F90      		pop __tmp_reg__
 1950 01de 0F90      		pop __tmp_reg__
 1951 01e0 0F90      		pop __tmp_reg__
 1952 01e2 0F90      		pop __tmp_reg__
 1953 01e4 DF91      		pop r29
 1954 01e6 CF91      		pop r28
 1955 01e8 1F91      		pop r17
 1956 01ea 0F91      		pop r16
 1957 01ec FF90      		pop r15
 1958 01ee EF90      		pop r14
 1959 01f0 DF90      		pop r13
 1960 01f2 CF90      		pop r12
 1961 01f4 BF90      		pop r11
 1962 01f6 AF90      		pop r10
 1963 01f8 9F90      		pop r9
 1964 01fa 8F90      		pop r8
 1965 01fc 7F90      		pop r7
 1966 01fe 6F90      		pop r6
 1967 0200 5F90      		pop r5
 1968 0202 4F90      		pop r4
 1969 0204 3F90      		pop r3
 1970 0206 2F90      		pop r2
 1971 0208 0895      		ret
 1972               		.size	luaV_concat, .-luaV_concat
 1973               		.section	.rodata.str1.1
 1974               	.LC5:
 1975 0043 6765 7420 		.string	"get length of"
 1975      6C65 6E67 
 1975      7468 206F 
 1975      6600 
 1976               	.LC6:
 1977 0051 2766 6F72 		.string	"'for' initial value must be a number"
 1977      2720 696E 
 1977      6974 6961 
GAS LISTING /tmp/ccRBarYT.s 			page 36


 1977      6C20 7661 
 1977      6C75 6520 
 1978               	.LC7:
 1979 0076 2766 6F72 		.string	"'for' limit must be a number"
 1979      2720 6C69 
 1979      6D69 7420 
 1979      6D75 7374 
 1979      2062 6520 
 1980               	.LC8:
 1981 0093 2766 6F72 		.string	"'for' step must be a number"
 1981      2720 7374 
 1981      6570 206D 
 1981      7573 7420 
 1981      6265 2061 
 1982               		.section	.text.luaV_execute,"ax",@progbits
 1983               	.global	luaV_execute
 1984               		.hidden	luaV_execute
 1985               		.type	luaV_execute, @function
 1986               	luaV_execute:
 1987 0000 2F92      		push r2
 1988 0002 3F92      		push r3
 1989 0004 4F92      		push r4
 1990 0006 5F92      		push r5
 1991 0008 6F92      		push r6
 1992 000a 7F92      		push r7
 1993 000c 8F92      		push r8
 1994 000e 9F92      		push r9
 1995 0010 AF92      		push r10
 1996 0012 BF92      		push r11
 1997 0014 CF92      		push r12
 1998 0016 DF92      		push r13
 1999 0018 EF92      		push r14
 2000 001a FF92      		push r15
 2001 001c 0F93      		push r16
 2002 001e 1F93      		push r17
 2003 0020 CF93      		push r28
 2004 0022 DF93      		push r29
 2005 0024 CDB7      		in r28,__SP_L__
 2006 0026 DEB7      		in r29,__SP_H__
 2007 0028 6697      		sbiw r28,22
 2008 002a 0FB6      		in __tmp_reg__,__SREG__
 2009 002c F894      		cli
 2010 002e DEBF      		out __SP_H__,r29
 2011 0030 0FBE      		out __SREG__,__tmp_reg__
 2012 0032 CDBF      		out __SP_L__,r28
 2013               	/* prologue: function */
 2014               	/* frame size = 22 */
 2015               	/* stack size = 40 */
 2016               	.L__stack_usage = 40
 2017 0034 5C01      		movw r10,r24
 2018 0036 7A8B      		std Y+18,r23
 2019 0038 698B      		std Y+17,r22
 2020               	.L194:
 2021 003a D501      		movw r26,r10
 2022 003c 1D96      		adiw r26,13
 2023 003e 0D90      		ld __tmp_reg__,X+
 2024 0040 BC91      		ld r27,X
GAS LISTING /tmp/ccRBarYT.s 			page 37


 2025 0042 A02D      		mov r26,__tmp_reg__
 2026 0044 B887      		std Y+8,r27
 2027 0046 AF83      		std Y+7,r26
 2028 0048 D501      		movw r26,r10
 2029 004a 1B96      		adiw r26,11
 2030 004c ED91      		ld r30,X+
 2031 004e FC91      		ld r31,X
 2032 0050 1C97      		sbiw r26,11+1
 2033 0052 0280      		ldd __tmp_reg__,Z+2
 2034 0054 F381      		ldd r31,Z+3
 2035 0056 E02D      		mov r30,__tmp_reg__
 2036 0058 2081      		ld r18,Z
 2037 005a 3181      		ldd r19,Z+1
 2038 005c 3E87      		std Y+14,r19
 2039 005e 2D87      		std Y+13,r18
 2040 0060 1796      		adiw r26,7
 2041 0062 2D90      		ld r2,X+
 2042 0064 3C90      		ld r3,X
 2043 0066 1897      		sbiw r26,7+1
 2044 0068 D901      		movw r26,r18
 2045 006a 1A96      		adiw r26,10
 2046 006c ED91      		ld r30,X+
 2047 006e FC91      		ld r31,X
 2048 0070 1B97      		sbiw r26,10+1
 2049 0072 2481      		ldd r18,Z+4
 2050 0074 3581      		ldd r19,Z+5
 2051 0076 3C87      		std Y+12,r19
 2052 0078 2B87      		std Y+11,r18
 2053 007a 16E0      		ldi r17,lo8(6)
 2054 007c 712E      		mov r7,r17
 2055 007e 02E3      		ldi r16,lo8(50)
 2056 0080 602E      		mov r6,r16
 2057               	.L195:
 2058 0082 4F80      		ldd r4,Y+7
 2059 0084 5884      		ldd r5,Y+8
 2060 0086 34E0      		ldi r19,4
 2061 0088 430E      		add r4,r19
 2062 008a 511C      		adc r5,__zero_reg__
 2063 008c AF81      		ldd r26,Y+7
 2064 008e B885      		ldd r27,Y+8
 2065 0090 CD90      		ld r12,X+
 2066 0092 DD90      		ld r13,X+
 2067 0094 ED90      		ld r14,X+
 2068 0096 FC90      		ld r15,X
 2069 0098 F501      		movw r30,r10
 2070 009a 278D      		ldd r18,Z+31
 2071 009c 822F      		mov r24,r18
 2072 009e 8C70      		andi r24,lo8(12)
 2073 00a0 01F4      		brne .+2
 2074 00a2 00C0      		rjmp .L197
 2075 00a4 83A1      		ldd r24,Z+35
 2076 00a6 94A1      		ldd r25,Z+36
 2077 00a8 0197      		sbiw r24,1
 2078 00aa 94A3      		std Z+36,r25
 2079 00ac 83A3      		std Z+35,r24
 2080 00ae F22F      		mov r31,r18
 2081 00b0 F470      		andi r31,lo8(4)
GAS LISTING /tmp/ccRBarYT.s 			page 38


 2082 00b2 9F2E      		mov r9,r31
 2083 00b4 0097      		sbiw r24,0
 2084 00b6 01F0      		breq .L198
 2085 00b8 FF23      		tst r31
 2086 00ba 01F4      		brne .+2
 2087 00bc 00C0      		rjmp .L197
 2088               	.L198:
 2089 00be D501      		movw r26,r10
 2090 00c0 1D96      		adiw r26,13
 2091 00c2 0D91      		ld r16,X+
 2092 00c4 1C91      		ld r17,X
 2093 00c6 1E97      		sbiw r26,13+1
 2094 00c8 1E96      		adiw r26,13+1
 2095 00ca 5C92      		st X,r5
 2096 00cc 4E92      		st -X,r4
 2097 00ce 1D97      		sbiw r26,13
 2098 00d0 23FF      		sbrs r18,3
 2099 00d2 00C0      		rjmp .L199
 2100 00d4 892B      		or r24,r25
 2101 00d6 01F4      		brne .L199
 2102 00d8 9196      		adiw r26,33
 2103 00da 8D91      		ld r24,X+
 2104 00dc 9C91      		ld r25,X
 2105 00de 9297      		sbiw r26,33+1
 2106 00e0 9496      		adiw r26,35+1
 2107 00e2 9C93      		st X,r25
 2108 00e4 8E93      		st -X,r24
 2109 00e6 9397      		sbiw r26,35
 2110 00e8 4FEF      		ldi r20,lo8(-1)
 2111 00ea 5FEF      		ldi r21,lo8(-1)
 2112 00ec 63E0      		ldi r22,lo8(3)
 2113 00ee 70E0      		ldi r23,0
 2114 00f0 C501      		movw r24,r10
 2115 00f2 0E94 0000 		call luaD_callhook
 2116               	.L199:
 2117 00f6 9920      		tst r9
 2118 00f8 01F4      		brne .+2
 2119 00fa 00C0      		rjmp .L200
 2120 00fc D501      		movw r26,r10
 2121 00fe 1B96      		adiw r26,11
 2122 0100 ED91      		ld r30,X+
 2123 0102 FC91      		ld r31,X
 2124 0104 1C97      		sbiw r26,11+1
 2125 0106 0280      		ldd __tmp_reg__,Z+2
 2126 0108 F381      		ldd r31,Z+3
 2127 010a E02D      		mov r30,__tmp_reg__
 2128 010c 8481      		ldd r24,Z+4
 2129 010e 9581      		ldd r25,Z+5
 2130 0110 0897      		sbiw r24,8
 2131 0112 01F4      		brne .L363
 2132 0114 0190      		ld __tmp_reg__,Z+
 2133 0116 F081      		ld r31,Z
 2134 0118 E02D      		mov r30,__tmp_reg__
 2135 011a 00C0      		rjmp .L201
 2136               	.L363:
 2137 011c E0E0      		ldi r30,0
 2138 011e F0E0      		ldi r31,0
GAS LISTING /tmp/ccRBarYT.s 			page 39


 2139               	.L201:
 2140 0120 0284      		ldd __tmp_reg__,Z+10
 2141 0122 F385      		ldd r31,Z+11
 2142 0124 E02D      		mov r30,__tmp_reg__
 2143 0126 6681      		ldd r22,Z+6
 2144 0128 7781      		ldd r23,Z+7
 2145 012a C201      		movw r24,r4
 2146 012c 861B      		sub r24,r22
 2147 012e 970B      		sbc r25,r23
 2148 0130 9595      		asr r25
 2149 0132 8795      		ror r24
 2150 0134 9595      		asr r25
 2151 0136 8795      		ror r24
 2152 0138 0197      		sbiw r24,1
 2153 013a 2285      		ldd r18,Z+10
 2154 013c 3385      		ldd r19,Z+11
 2155 013e 2115      		cp r18,__zero_reg__
 2156 0140 3105      		cpc r19,__zero_reg__
 2157 0142 01F0      		breq .L364
 2158 0144 FC01      		movw r30,r24
 2159 0146 EE0F      		lsl r30
 2160 0148 FF1F      		rol r31
 2161 014a E20F      		add r30,r18
 2162 014c F31F      		adc r31,r19
 2163 014e 4081      		ld r20,Z
 2164 0150 5181      		ldd r21,Z+1
 2165 0152 00C0      		rjmp .L202
 2166               	.L364:
 2167 0154 40E0      		ldi r20,0
 2168 0156 50E0      		ldi r21,0
 2169               	.L202:
 2170 0158 892B      		or r24,r25
 2171 015a 01F0      		breq .L203
 2172 015c 0415      		cp r16,r4
 2173 015e 1505      		cpc r17,r5
 2174 0160 00F4      		brsh .L203
 2175 0162 2115      		cp r18,__zero_reg__
 2176 0164 3105      		cpc r19,__zero_reg__
 2177 0166 01F0      		breq .L365
 2178 0168 061B      		sub r16,r22
 2179 016a 170B      		sbc r17,r23
 2180 016c 1595      		asr r17
 2181 016e 0795      		ror r16
 2182 0170 1595      		asr r17
 2183 0172 0795      		ror r16
 2184 0174 0150      		subi r16,1
 2185 0176 1048      		sbci r17,-128
 2186 0178 000F      		lsl r16
 2187 017a 111F      		rol r17
 2188 017c F901      		movw r30,r18
 2189 017e E00F      		add r30,r16
 2190 0180 F11F      		adc r31,r17
 2191 0182 8081      		ld r24,Z
 2192 0184 9181      		ldd r25,Z+1
 2193 0186 00C0      		rjmp .L204
 2194               	.L365:
 2195 0188 80E0      		ldi r24,0
GAS LISTING /tmp/ccRBarYT.s 			page 40


 2196 018a 90E0      		ldi r25,0
 2197               	.L204:
 2198 018c 4817      		cp r20,r24
 2199 018e 5907      		cpc r21,r25
 2200 0190 01F0      		breq .L200
 2201               	.L203:
 2202 0192 62E0      		ldi r22,lo8(2)
 2203 0194 70E0      		ldi r23,0
 2204 0196 C501      		movw r24,r10
 2205 0198 0E94 0000 		call luaD_callhook
 2206               	.L200:
 2207 019c F501      		movw r30,r10
 2208 019e 8481      		ldd r24,Z+4
 2209 01a0 8130      		cpi r24,lo8(1)
 2210 01a2 01F4      		brne .L205
 2211 01a4 2F81      		ldd r18,Y+7
 2212 01a6 3885      		ldd r19,Y+8
 2213 01a8 3687      		std Z+14,r19
 2214 01aa 2587      		std Z+13,r18
 2215 01ac 0C94 0000 		jmp .L193
 2216               	.L205:
 2217 01b0 2780      		ldd r2,Z+7
 2218 01b2 3084      		ldd r3,Z+8
 2219               	.L197:
 2220 01b4 D701      		movw r26,r14
 2221 01b6 C601      		movw r24,r12
 2222 01b8 76E0      		ldi r23,6
 2223               		1:
 2224 01ba B695      		lsr r27
 2225 01bc A795      		ror r26
 2226 01be 9795      		ror r25
 2227 01c0 8795      		ror r24
 2228 01c2 7A95      		dec r23
 2229 01c4 01F4      		brne 1b
 2230 01c6 FC01      		movw r30,r24
 2231 01c8 FF27      		clr r31
 2232 01ca F88B      		std Y+16,r31
 2233 01cc EF87      		std Y+15,r30
 2234 01ce 7E9E      		mul r7,r30
 2235 01d0 8001      		movw r16,r0
 2236 01d2 7F9E      		mul r7,r31
 2237 01d4 100D      		add r17,r0
 2238 01d6 1124      		clr __zero_reg__
 2239 01d8 4101      		movw r8,r2
 2240 01da 800E      		add r8,r16
 2241 01dc 911E      		adc r9,r17
 2242 01de F601      		movw r30,r12
 2243 01e0 EF73      		andi r30,63
 2244 01e2 FF27      		clr r31
 2245 01e4 E632      		cpi r30,38
 2246 01e6 F105      		cpc r31,__zero_reg__
 2247 01e8 00F0      		brlo .L481
 2248               	.L196:
 2249 01ea 5886      		std Y+8,r5
 2250 01ec 4F82      		std Y+7,r4
 2251 01ee 00C0      		rjmp .L195
 2252               	.L481:
GAS LISTING /tmp/ccRBarYT.s 			page 41


 2253 01f0 8827      		clr r24
 2254 01f2 E050      		subi r30,pm_lo8(-(.L208))
 2255 01f4 F040      		sbci r31,pm_hi8(-(.L208))
 2256 01f6 8040      		sbci r24,pm_hh8(-(.L208))
 2257 01f8 0C94 0000 		jmp __tablejump2__
 2258               		.section	.progmem.gcc_sw_table.luaV_execute,"a",@progbits
 2259               		.p2align	1
 2260               	.L208:
 2261 0000 0000      		.word gs(.L207)
 2262 0002 0000      		.word gs(.L209)
 2263 0004 0000      		.word gs(.L210)
 2264 0006 0000      		.word gs(.L211)
 2265 0008 0000      		.word gs(.L212)
 2266 000a 0000      		.word gs(.L213)
 2267 000c 0000      		.word gs(.L214)
 2268 000e 0000      		.word gs(.L215)
 2269 0010 0000      		.word gs(.L216)
 2270 0012 0000      		.word gs(.L217)
 2271 0014 0000      		.word gs(.L218)
 2272 0016 0000      		.word gs(.L219)
 2273 0018 0000      		.word gs(.L220)
 2274 001a 0000      		.word gs(.L221)
 2275 001c 0000      		.word gs(.L222)
 2276 001e 0000      		.word gs(.L223)
 2277 0020 0000      		.word gs(.L224)
 2278 0022 0000      		.word gs(.L225)
 2279 0024 0000      		.word gs(.L226)
 2280 0026 0000      		.word gs(.L227)
 2281 0028 0000      		.word gs(.L228)
 2282 002a 0000      		.word gs(.L229)
 2283 002c 0000      		.word gs(.L460)
 2284 002e 0000      		.word gs(.L231)
 2285 0030 0000      		.word gs(.L232)
 2286 0032 0000      		.word gs(.L233)
 2287 0034 0000      		.word gs(.L234)
 2288 0036 0000      		.word gs(.L235)
 2289 0038 0000      		.word gs(.L236)
 2290 003a 0000      		.word gs(.L237)
 2291 003c 0000      		.word gs(.L238)
 2292 003e 0000      		.word gs(.L239)
 2293 0040 0000      		.word gs(.L240)
 2294 0042 0000      		.word gs(.L241)
 2295 0044 0000      		.word gs(.L242)
 2296 0046 0000      		.word gs(.L243)
 2297 0048 0000      		.word gs(.L244)
 2298 004a 0000      		.word gs(.L245)
 2299               		.section	.text.luaV_execute
 2300               	.L207:
 2301 01fc 67E1      		ldi r22,23
 2302               		1:
 2303 01fe F694      		lsr r15
 2304 0200 E794      		ror r14
 2305 0202 D794      		ror r13
 2306 0204 C794      		ror r12
 2307 0206 6A95      		dec r22
 2308 0208 01F4      		brne 1b
 2309 020a 7C9C      		mul r7,r12
GAS LISTING /tmp/ccRBarYT.s 			page 42


 2310 020c F001      		movw r30,r0
 2311 020e 7D9C      		mul r7,r13
 2312 0210 F00D      		add r31,r0
 2313 0212 1124      		clr __zero_reg__
 2314 0214 9F01      		movw r18,r30
 2315 0216 220D      		add r18,r2
 2316 0218 331D      		adc r19,r3
 2317 021a 00C0      		rjmp .L459
 2318               	.L209:
 2319 021c 5EE0      		ldi r21,14
 2320               		1:
 2321 021e F694      		lsr r15
 2322 0220 E794      		ror r14
 2323 0222 D794      		ror r13
 2324 0224 C794      		ror r12
 2325 0226 5A95      		dec r21
 2326 0228 01F4      		brne 1b
 2327 022a 7C9C      		mul r7,r12
 2328 022c F001      		movw r30,r0
 2329 022e 7D9C      		mul r7,r13
 2330 0230 F00D      		add r31,r0
 2331 0232 1124      		clr __zero_reg__
 2332 0234 2B85      		ldd r18,Y+11
 2333 0236 3C85      		ldd r19,Y+12
 2334 0238 2E0F      		add r18,r30
 2335 023a 3F1F      		adc r19,r31
 2336               	.L459:
 2337 023c F901      		movw r30,r18
 2338 023e 8081      		ld r24,Z
 2339 0240 9181      		ldd r25,Z+1
 2340 0242 A281      		ldd r26,Z+2
 2341 0244 B381      		ldd r27,Z+3
 2342 0246 F401      		movw r30,r8
 2343 0248 8083      		st Z,r24
 2344 024a 9183      		std Z+1,r25
 2345 024c A283      		std Z+2,r26
 2346 024e B383      		std Z+3,r27
 2347 0250 D901      		movw r26,r18
 2348 0252 1496      		adiw r26,4
 2349 0254 8D91      		ld r24,X+
 2350 0256 9C91      		ld r25,X
 2351 0258 1597      		sbiw r26,4+1
 2352               	.L462:
 2353 025a 9583      		std Z+5,r25
 2354 025c 8483      		std Z+4,r24
 2355 025e 00C0      		rjmp .L196
 2356               	.L210:
 2357 0260 D701      		movw r26,r14
 2358 0262 C601      		movw r24,r12
 2359 0264 37E1      		ldi r19,23
 2360               		1:
 2361 0266 B695      		lsr r27
 2362 0268 A795      		ror r26
 2363 026a 9795      		ror r25
 2364 026c 8795      		ror r24
 2365 026e 3A95      		dec r19
 2366 0270 01F4      		brne 1b
GAS LISTING /tmp/ccRBarYT.s 			page 43


 2367 0272 F401      		movw r30,r8
 2368 0274 9183      		std Z+1,r25
 2369 0276 8083      		st Z,r24
 2370 0278 21E0      		ldi r18,lo8(1)
 2371 027a 30E0      		ldi r19,0
 2372 027c 3583      		std Z+5,r19
 2373 027e 2483      		std Z+4,r18
 2374 0280 4EE0      		ldi r20,14
 2375               		1:
 2376 0282 F694      		lsr r15
 2377 0284 E794      		ror r14
 2378 0286 D794      		ror r13
 2379 0288 C794      		ror r12
 2380 028a 4A95      		dec r20
 2381 028c 01F4      		brne 1b
 2382 028e 31E0      		ldi r19,1
 2383 0290 D322      		and r13,r19
 2384 0292 CD28      		or r12,r13
 2385 0294 01F4      		brne .+2
 2386 0296 00C0      		rjmp .L196
 2387 0298 4F80      		ldd r4,Y+7
 2388 029a 5884      		ldd r5,Y+8
 2389 029c 48E0      		ldi r20,8
 2390 029e 440E      		add r4,r20
 2391 02a0 511C      		adc r5,__zero_reg__
 2392 02a2 00C0      		rjmp .L196
 2393               	.L211:
 2394 02a4 27E1      		ldi r18,23
 2395               		1:
 2396 02a6 F694      		lsr r15
 2397 02a8 E794      		ror r14
 2398 02aa D794      		ror r13
 2399 02ac C794      		ror r12
 2400 02ae 2A95      		dec r18
 2401 02b0 01F4      		brne 1b
 2402 02b2 7C9C      		mul r7,r12
 2403 02b4 F001      		movw r30,r0
 2404 02b6 7D9C      		mul r7,r13
 2405 02b8 F00D      		add r31,r0
 2406 02ba 1124      		clr __zero_reg__
 2407 02bc 3496      		adiw r30,4
 2408 02be E20D      		add r30,r2
 2409 02c0 F31D      		adc r31,r3
 2410               	.L246:
 2411 02c2 1182      		std Z+1,__zero_reg__
 2412 02c4 1082      		st Z,__zero_reg__
 2413 02c6 CF01      		movw r24,r30
 2414 02c8 0A97      		sbiw r24,10
 2415 02ca 3697      		sbiw r30,6
 2416 02cc 8815      		cp r24,r8
 2417 02ce 9905      		cpc r25,r9
 2418 02d0 00F4      		brsh .L246
 2419 02d2 00C0      		rjmp .L196
 2420               	.L212:
 2421 02d4 87E1      		ldi r24,23
 2422               		1:
 2423 02d6 F694      		lsr r15
GAS LISTING /tmp/ccRBarYT.s 			page 44


 2424 02d8 E794      		ror r14
 2425 02da D794      		ror r13
 2426 02dc C794      		ror r12
 2427 02de 8A95      		dec r24
 2428 02e0 01F4      		brne 1b
 2429 02e2 56E0      		ldi r21,6
 2430 02e4 C50E      		add r12,r21
 2431 02e6 D11C      		adc r13,__zero_reg__
 2432 02e8 CC0C      		lsl r12
 2433 02ea DD1C      		rol r13
 2434 02ec ED85      		ldd r30,Y+13
 2435 02ee FE85      		ldd r31,Y+14
 2436 02f0 EC0D      		add r30,r12
 2437 02f2 FD1D      		adc r31,r13
 2438 02f4 0190      		ld __tmp_reg__,Z+
 2439 02f6 F081      		ld r31,Z
 2440 02f8 E02D      		mov r30,__tmp_reg__
 2441 02fa 2481      		ldd r18,Z+4
 2442 02fc 3581      		ldd r19,Z+5
 2443 02fe 00C0      		rjmp .L459
 2444               	.L213:
 2445 0300 ED85      		ldd r30,Y+13
 2446 0302 FE85      		ldd r31,Y+14
 2447 0304 8085      		ldd r24,Z+8
 2448 0306 9185      		ldd r25,Z+9
 2449 0308 9A83      		std Y+2,r25
 2450 030a 8983      		std Y+1,r24
 2451 030c 87E0      		ldi r24,lo8(7)
 2452 030e 90E0      		ldi r25,0
 2453 0310 9E83      		std Y+6,r25
 2454 0312 8D83      		std Y+5,r24
 2455 0314 D501      		movw r26,r10
 2456 0316 1E96      		adiw r26,13+1
 2457 0318 5C92      		st X,r5
 2458 031a 4E92      		st -X,r4
 2459 031c 1D97      		sbiw r26,13
 2460 031e 0EE0      		ldi r16,14
 2461               		1:
 2462 0320 F694      		lsr r15
 2463 0322 E794      		ror r14
 2464 0324 D794      		ror r13
 2465 0326 C794      		ror r12
 2466 0328 0A95      		dec r16
 2467 032a 01F4      		brne 1b
 2468 032c 7C9C      		mul r7,r12
 2469 032e 9001      		movw r18,r0
 2470 0330 7D9C      		mul r7,r13
 2471 0332 300D      		add r19,r0
 2472 0334 1124      		clr __zero_reg__
 2473 0336 4B85      		ldd r20,Y+11
 2474 0338 5C85      		ldd r21,Y+12
 2475 033a 420F      		add r20,r18
 2476 033c 531F      		adc r21,r19
 2477 033e 9401      		movw r18,r8
 2478 0340 BE01      		movw r22,r28
 2479 0342 6F5F      		subi r22,-1
 2480 0344 7F4F      		sbci r23,-1
GAS LISTING /tmp/ccRBarYT.s 			page 45


 2481 0346 00C0      		rjmp .L477
 2482               	.L214:
 2483 0348 D501      		movw r26,r10
 2484 034a 1E96      		adiw r26,13+1
 2485 034c 5C92      		st X,r5
 2486 034e 4E92      		st -X,r4
 2487 0350 1D97      		sbiw r26,13
 2488 0352 D701      		movw r26,r14
 2489 0354 C601      		movw r24,r12
 2490 0356 1EE0      		ldi r17,14
 2491               		1:
 2492 0358 B695      		lsr r27
 2493 035a A795      		ror r26
 2494 035c 9795      		ror r25
 2495 035e 8795      		ror r24
 2496 0360 1A95      		dec r17
 2497 0362 01F4      		brne 1b
 2498 0364 9C01      		movw r18,r24
 2499 0366 2227      		clr r18
 2500 0368 3170      		andi r19,1
 2501 036a 232B      		or r18,r19
 2502 036c 01F0      		breq .L247
 2503 036e 9927      		clr r25
 2504 0370 789E      		mul r7,r24
 2505 0372 F001      		movw r30,r0
 2506 0374 799E      		mul r7,r25
 2507 0376 F00D      		add r31,r0
 2508 0378 1124      		clr __zero_reg__
 2509 037a 4B85      		ldd r20,Y+11
 2510 037c 5C85      		ldd r21,Y+12
 2511 037e 00C0      		rjmp .L465
 2512               	.L247:
 2513 0380 9170      		andi r25,1
 2514 0382 789E      		mul r7,r24
 2515 0384 F001      		movw r30,r0
 2516 0386 799E      		mul r7,r25
 2517 0388 F00D      		add r31,r0
 2518 038a 1124      		clr __zero_reg__
 2519 038c A101      		movw r20,r2
 2520               	.L465:
 2521 038e 4E0F      		add r20,r30
 2522 0390 5F1F      		adc r21,r31
 2523 0392 F7E1      		ldi r31,23
 2524               		1:
 2525 0394 F694      		lsr r15
 2526 0396 E794      		ror r14
 2527 0398 D794      		ror r13
 2528 039a C794      		ror r12
 2529 039c FA95      		dec r31
 2530 039e 01F4      		brne 1b
 2531 03a0 7C9C      		mul r7,r12
 2532 03a2 B001      		movw r22,r0
 2533 03a4 7D9C      		mul r7,r13
 2534 03a6 700D      		add r23,r0
 2535 03a8 1124      		clr __zero_reg__
 2536 03aa 620D      		add r22,r2
 2537 03ac 731D      		adc r23,r3
GAS LISTING /tmp/ccRBarYT.s 			page 46


 2538 03ae 9401      		movw r18,r8
 2539               	.L477:
 2540 03b0 C501      		movw r24,r10
 2541 03b2 0E94 0000 		call luaV_gettable
 2542 03b6 0C94 0000 		jmp .L356
 2543               	.L215:
 2544 03ba AD85      		ldd r26,Y+13
 2545 03bc BE85      		ldd r27,Y+14
 2546 03be 1896      		adiw r26,8
 2547 03c0 8D91      		ld r24,X+
 2548 03c2 9C91      		ld r25,X
 2549 03c4 1997      		sbiw r26,8+1
 2550 03c6 9A83      		std Y+2,r25
 2551 03c8 8983      		std Y+1,r24
 2552 03ca 87E0      		ldi r24,lo8(7)
 2553 03cc 90E0      		ldi r25,0
 2554 03ce 9E83      		std Y+6,r25
 2555 03d0 8D83      		std Y+5,r24
 2556 03d2 F501      		movw r30,r10
 2557 03d4 5686      		std Z+14,r5
 2558 03d6 4586      		std Z+13,r4
 2559 03d8 EEE0      		ldi r30,14
 2560               		1:
 2561 03da F694      		lsr r15
 2562 03dc E794      		ror r14
 2563 03de D794      		ror r13
 2564 03e0 C794      		ror r12
 2565 03e2 EA95      		dec r30
 2566 03e4 01F4      		brne 1b
 2567 03e6 7C9C      		mul r7,r12
 2568 03e8 9001      		movw r18,r0
 2569 03ea 7D9C      		mul r7,r13
 2570 03ec 300D      		add r19,r0
 2571 03ee 1124      		clr __zero_reg__
 2572 03f0 4B85      		ldd r20,Y+11
 2573 03f2 5C85      		ldd r21,Y+12
 2574 03f4 420F      		add r20,r18
 2575 03f6 531F      		adc r21,r19
 2576 03f8 9401      		movw r18,r8
 2577 03fa BE01      		movw r22,r28
 2578 03fc 6F5F      		subi r22,-1
 2579 03fe 7F4F      		sbci r23,-1
 2580 0400 00C0      		rjmp .L471
 2581               	.L216:
 2582 0402 67E1      		ldi r22,23
 2583               		1:
 2584 0404 F694      		lsr r15
 2585 0406 E794      		ror r14
 2586 0408 D794      		ror r13
 2587 040a C794      		ror r12
 2588 040c 6A95      		dec r22
 2589 040e 01F4      		brne 1b
 2590 0410 B6E0      		ldi r27,6
 2591 0412 CB0E      		add r12,r27
 2592 0414 D11C      		adc r13,__zero_reg__
 2593 0416 CC0C      		lsl r12
 2594 0418 DD1C      		rol r13
GAS LISTING /tmp/ccRBarYT.s 			page 47


 2595 041a ED85      		ldd r30,Y+13
 2596 041c FE85      		ldd r31,Y+14
 2597 041e EC0D      		add r30,r12
 2598 0420 FD1D      		adc r31,r13
 2599 0422 6081      		ld r22,Z
 2600 0424 7181      		ldd r23,Z+1
 2601 0426 FB01      		movw r30,r22
 2602 0428 2481      		ldd r18,Z+4
 2603 042a 3581      		ldd r19,Z+5
 2604 042c F401      		movw r30,r8
 2605 042e 8081      		ld r24,Z
 2606 0430 9181      		ldd r25,Z+1
 2607 0432 A281      		ldd r26,Z+2
 2608 0434 B381      		ldd r27,Z+3
 2609 0436 F901      		movw r30,r18
 2610 0438 8083      		st Z,r24
 2611 043a 9183      		std Z+1,r25
 2612 043c A283      		std Z+2,r26
 2613 043e B383      		std Z+3,r27
 2614 0440 D401      		movw r26,r8
 2615 0442 1496      		adiw r26,4
 2616 0444 8D91      		ld r24,X+
 2617 0446 9C91      		ld r25,X
 2618 0448 1597      		sbiw r26,4+1
 2619 044a 9583      		std Z+5,r25
 2620 044c 8483      		std Z+4,r24
 2621 044e 1496      		adiw r26,4
 2622 0450 8D91      		ld r24,X+
 2623 0452 9C91      		ld r25,X
 2624 0454 1597      		sbiw r26,4+1
 2625 0456 0697      		sbiw r24,6
 2626 0458 04F4      		brge .+2
 2627 045a 00C0      		rjmp .L196
 2628 045c 4D91      		ld r20,X+
 2629 045e 5C91      		ld r21,X
 2630 0460 FA01      		movw r30,r20
 2631 0462 8381      		ldd r24,Z+3
 2632 0464 8370      		andi r24,lo8(3)
 2633 0466 01F4      		brne .+2
 2634 0468 00C0      		rjmp .L196
 2635 046a DB01      		movw r26,r22
 2636 046c 1396      		adiw r26,3
 2637 046e 8C91      		ld r24,X
 2638 0470 82FF      		sbrs r24,2
 2639 0472 00C0      		rjmp .L196
 2640 0474 C501      		movw r24,r10
 2641 0476 0E94 0000 		call luaC_barrierf
 2642 047a 00C0      		rjmp .L196
 2643               	.L217:
 2644 047c F501      		movw r30,r10
 2645 047e 5686      		std Z+14,r5
 2646 0480 4586      		std Z+13,r4
 2647 0482 D701      		movw r26,r14
 2648 0484 C601      		movw r24,r12
 2649 0486 5EE0      		ldi r21,14
 2650               		1:
 2651 0488 B695      		lsr r27
GAS LISTING /tmp/ccRBarYT.s 			page 48


 2652 048a A795      		ror r26
 2653 048c 9795      		ror r25
 2654 048e 8795      		ror r24
 2655 0490 5A95      		dec r21
 2656 0492 01F4      		brne 1b
 2657 0494 9C01      		movw r18,r24
 2658 0496 2227      		clr r18
 2659 0498 3170      		andi r19,1
 2660 049a 232B      		or r18,r19
 2661 049c 01F0      		breq .L249
 2662 049e 9927      		clr r25
 2663 04a0 789E      		mul r7,r24
 2664 04a2 9001      		movw r18,r0
 2665 04a4 799E      		mul r7,r25
 2666 04a6 300D      		add r19,r0
 2667 04a8 1124      		clr __zero_reg__
 2668 04aa 4B85      		ldd r20,Y+11
 2669 04ac 5C85      		ldd r21,Y+12
 2670 04ae 240F      		add r18,r20
 2671 04b0 351F      		adc r19,r21
 2672 04b2 00C0      		rjmp .L250
 2673               	.L249:
 2674 04b4 9170      		andi r25,1
 2675 04b6 789E      		mul r7,r24
 2676 04b8 9001      		movw r18,r0
 2677 04ba 799E      		mul r7,r25
 2678 04bc 300D      		add r19,r0
 2679 04be 1124      		clr __zero_reg__
 2680 04c0 220D      		add r18,r2
 2681 04c2 331D      		adc r19,r3
 2682               	.L250:
 2683 04c4 47E1      		ldi r20,23
 2684               		1:
 2685 04c6 F694      		lsr r15
 2686 04c8 E794      		ror r14
 2687 04ca D794      		ror r13
 2688 04cc C794      		ror r12
 2689 04ce 4A95      		dec r20
 2690 04d0 01F4      		brne 1b
 2691 04d2 B601      		movw r22,r12
 2692 04d4 6627      		clr r22
 2693 04d6 7170      		andi r23,1
 2694 04d8 672B      		or r22,r23
 2695 04da 01F0      		breq .L251
 2696 04dc DD24      		clr r13
 2697 04de 7C9C      		mul r7,r12
 2698 04e0 1001      		movw r2,r0
 2699 04e2 7D9C      		mul r7,r13
 2700 04e4 300C      		add r3,r0
 2701 04e6 1124      		clr __zero_reg__
 2702 04e8 4B85      		ldd r20,Y+11
 2703 04ea 5C85      		ldd r21,Y+12
 2704 04ec 420D      		add r20,r2
 2705 04ee 531D      		adc r21,r3
 2706 04f0 00C0      		rjmp .L252
 2707               	.L251:
 2708 04f2 7C9C      		mul r7,r12
GAS LISTING /tmp/ccRBarYT.s 			page 49


 2709 04f4 B001      		movw r22,r0
 2710 04f6 7D9C      		mul r7,r13
 2711 04f8 700D      		add r23,r0
 2712 04fa 1124      		clr __zero_reg__
 2713 04fc A101      		movw r20,r2
 2714 04fe 460F      		add r20,r22
 2715 0500 571F      		adc r21,r23
 2716               	.L252:
 2717 0502 B401      		movw r22,r8
 2718               	.L471:
 2719 0504 C501      		movw r24,r10
 2720 0506 0E94 0000 		call luaV_settable
 2721 050a 00C0      		rjmp .L332
 2722               	.L218:
 2723 050c D701      		movw r26,r14
 2724 050e C601      		movw r24,r12
 2725 0510 2EE0      		ldi r18,14
 2726               		1:
 2727 0512 B695      		lsr r27
 2728 0514 A795      		ror r26
 2729 0516 9795      		ror r25
 2730 0518 8795      		ror r24
 2731 051a 2A95      		dec r18
 2732 051c 01F4      		brne 1b
 2733 051e 9170      		andi r25,1
 2734 0520 0E94 0000 		call luaO_fb2int
 2735 0524 8C01      		movw r16,r24
 2736 0526 D701      		movw r26,r14
 2737 0528 C601      		movw r24,r12
 2738 052a 37E1      		ldi r19,23
 2739               		1:
 2740 052c B695      		lsr r27
 2741 052e A795      		ror r26
 2742 0530 9795      		ror r25
 2743 0532 8795      		ror r24
 2744 0534 3A95      		dec r19
 2745 0536 01F4      		brne 1b
 2746 0538 0E94 0000 		call luaO_fb2int
 2747 053c A801      		movw r20,r16
 2748 053e BC01      		movw r22,r24
 2749 0540 C501      		movw r24,r10
 2750 0542 0E94 0000 		call luaH_new
 2751 0546 F401      		movw r30,r8
 2752 0548 9183      		std Z+1,r25
 2753 054a 8083      		st Z,r24
 2754 054c 87E0      		ldi r24,lo8(7)
 2755 054e 90E0      		ldi r25,0
 2756 0550 9583      		std Z+5,r25
 2757 0552 8483      		std Z+4,r24
 2758 0554 0C94 0000 		jmp .L480
 2759               	.L219:
 2760 0558 D701      		movw r26,r14
 2761 055a C601      		movw r24,r12
 2762 055c 07E1      		ldi r16,23
 2763               		1:
 2764 055e B695      		lsr r27
 2765 0560 A795      		ror r26
GAS LISTING /tmp/ccRBarYT.s 			page 50


 2766 0562 9795      		ror r25
 2767 0564 8795      		ror r24
 2768 0566 0A95      		dec r16
 2769 0568 01F4      		brne 1b
 2770 056a 789E      		mul r7,r24
 2771 056c F001      		movw r30,r0
 2772 056e 799E      		mul r7,r25
 2773 0570 F00D      		add r31,r0
 2774 0572 1124      		clr __zero_reg__
 2775 0574 BF01      		movw r22,r30
 2776 0576 620D      		add r22,r2
 2777 0578 731D      		adc r23,r3
 2778 057a FB01      		movw r30,r22
 2779 057c 8081      		ld r24,Z
 2780 057e 9181      		ldd r25,Z+1
 2781 0580 A281      		ldd r26,Z+2
 2782 0582 B381      		ldd r27,Z+3
 2783 0584 F401      		movw r30,r8
 2784 0586 8683      		std Z+6,r24
 2785 0588 9783      		std Z+7,r25
 2786 058a A087      		std Z+8,r26
 2787 058c B187      		std Z+9,r27
 2788 058e DB01      		movw r26,r22
 2789 0590 1496      		adiw r26,4
 2790 0592 8D91      		ld r24,X+
 2791 0594 9C91      		ld r25,X
 2792 0596 1597      		sbiw r26,4+1
 2793 0598 9387      		std Z+11,r25
 2794 059a 8287      		std Z+10,r24
 2795 059c F501      		movw r30,r10
 2796 059e 5686      		std Z+14,r5
 2797 05a0 4586      		std Z+13,r4
 2798 05a2 8EE0      		ldi r24,14
 2799               		1:
 2800 05a4 F694      		lsr r15
 2801 05a6 E794      		ror r14
 2802 05a8 D794      		ror r13
 2803 05aa C794      		ror r12
 2804 05ac 8A95      		dec r24
 2805 05ae 01F4      		brne 1b
 2806 05b0 9601      		movw r18,r12
 2807 05b2 2227      		clr r18
 2808 05b4 3170      		andi r19,1
 2809 05b6 232B      		or r18,r19
 2810 05b8 01F0      		breq .L254
 2811 05ba DD24      		clr r13
 2812 05bc 7C9C      		mul r7,r12
 2813 05be A001      		movw r20,r0
 2814 05c0 7D9C      		mul r7,r13
 2815 05c2 500D      		add r21,r0
 2816 05c4 1124      		clr __zero_reg__
 2817 05c6 2B85      		ldd r18,Y+11
 2818 05c8 3C85      		ldd r19,Y+12
 2819 05ca 420F      		add r20,r18
 2820 05cc 531F      		adc r21,r19
 2821 05ce 00C0      		rjmp .L255
 2822               	.L254:
GAS LISTING /tmp/ccRBarYT.s 			page 51


 2823 05d0 31E0      		ldi r19,1
 2824 05d2 D322      		and r13,r19
 2825 05d4 7C9C      		mul r7,r12
 2826 05d6 A001      		movw r20,r0
 2827 05d8 7D9C      		mul r7,r13
 2828 05da 500D      		add r21,r0
 2829 05dc 1124      		clr __zero_reg__
 2830 05de 420D      		add r20,r2
 2831 05e0 531D      		adc r21,r3
 2832               	.L255:
 2833 05e2 9401      		movw r18,r8
 2834 05e4 C501      		movw r24,r10
 2835 05e6 0E94 0000 		call luaV_gettable
 2836 05ea 00C0      		rjmp .L332
 2837               	.L220:
 2838 05ec D701      		movw r26,r14
 2839 05ee C601      		movw r24,r12
 2840 05f0 17E1      		ldi r17,23
 2841               		1:
 2842 05f2 B695      		lsr r27
 2843 05f4 A795      		ror r26
 2844 05f6 9795      		ror r25
 2845 05f8 8795      		ror r24
 2846 05fa 1A95      		dec r17
 2847 05fc 01F4      		brne 1b
 2848 05fe 9C01      		movw r18,r24
 2849 0600 2227      		clr r18
 2850 0602 3170      		andi r19,1
 2851 0604 232B      		or r18,r19
 2852 0606 01F0      		breq .L256
 2853 0608 9927      		clr r25
 2854 060a 789E      		mul r7,r24
 2855 060c F001      		movw r30,r0
 2856 060e 799E      		mul r7,r25
 2857 0610 F00D      		add r31,r0
 2858 0612 1124      		clr __zero_reg__
 2859 0614 2B85      		ldd r18,Y+11
 2860 0616 3C85      		ldd r19,Y+12
 2861 0618 E20F      		add r30,r18
 2862 061a F31F      		adc r31,r19
 2863 061c 00C0      		rjmp .L257
 2864               	.L256:
 2865 061e 789E      		mul r7,r24
 2866 0620 F001      		movw r30,r0
 2867 0622 799E      		mul r7,r25
 2868 0624 F00D      		add r31,r0
 2869 0626 1124      		clr __zero_reg__
 2870 0628 E20D      		add r30,r2
 2871 062a F31D      		adc r31,r3
 2872               	.L257:
 2873 062c AEE0      		ldi r26,14
 2874               		1:
 2875 062e F694      		lsr r15
 2876 0630 E794      		ror r14
 2877 0632 D794      		ror r13
 2878 0634 C794      		ror r12
 2879 0636 AA95      		dec r26
GAS LISTING /tmp/ccRBarYT.s 			page 52


 2880 0638 01F4      		brne 1b
 2881 063a 9601      		movw r18,r12
 2882 063c 2227      		clr r18
 2883 063e 3170      		andi r19,1
 2884 0640 232B      		or r18,r19
 2885 0642 01F0      		breq .L258
 2886 0644 DD24      		clr r13
 2887 0646 7C9C      		mul r7,r12
 2888 0648 9001      		movw r18,r0
 2889 064a 7D9C      		mul r7,r13
 2890 064c 300D      		add r19,r0
 2891 064e 1124      		clr __zero_reg__
 2892 0650 4B85      		ldd r20,Y+11
 2893 0652 5C85      		ldd r21,Y+12
 2894 0654 240F      		add r18,r20
 2895 0656 351F      		adc r19,r21
 2896 0658 00C0      		rjmp .L259
 2897               	.L258:
 2898 065a 51E0      		ldi r21,1
 2899 065c D522      		and r13,r21
 2900 065e 7C9C      		mul r7,r12
 2901 0660 9001      		movw r18,r0
 2902 0662 7D9C      		mul r7,r13
 2903 0664 300D      		add r19,r0
 2904 0666 1124      		clr __zero_reg__
 2905 0668 220D      		add r18,r2
 2906 066a 331D      		adc r19,r3
 2907               	.L259:
 2908 066c 8481      		ldd r24,Z+4
 2909 066e 9581      		ldd r25,Z+5
 2910 0670 0597      		sbiw r24,5
 2911 0672 01F4      		brne .L260
 2912 0674 D901      		movw r26,r18
 2913 0676 1496      		adiw r26,4
 2914 0678 8D91      		ld r24,X+
 2915 067a 9C91      		ld r25,X
 2916 067c 1597      		sbiw r26,4+1
 2917 067e 8530      		cpi r24,5
 2918 0680 9105      		cpc r25,__zero_reg__
 2919 0682 01F4      		brne .L260
 2920 0684 4081      		ld r20,Z
 2921 0686 5181      		ldd r21,Z+1
 2922 0688 6281      		ldd r22,Z+2
 2923 068a 7381      		ldd r23,Z+3
 2924 068c 0D91      		ld r16,X+
 2925 068e 1D91      		ld r17,X+
 2926 0690 2D91      		ld r18,X+
 2927 0692 3C91      		ld r19,X
 2928 0694 400F      		add r20,r16
 2929 0696 511F      		adc r21,r17
 2930 0698 621F      		adc r22,r18
 2931 069a 731F      		adc r23,r19
 2932 069c 00C0      		rjmp .L464
 2933               	.L260:
 2934 069e D501      		movw r26,r10
 2935 06a0 1E96      		adiw r26,13+1
 2936 06a2 5C92      		st X,r5
GAS LISTING /tmp/ccRBarYT.s 			page 53


 2937 06a4 4E92      		st -X,r4
 2938 06a6 1D97      		sbiw r26,13
 2939 06a8 05E0      		ldi r16,lo8(5)
 2940 06aa 10E0      		ldi r17,0
 2941 06ac 00C0      		rjmp .L474
 2942               	.L221:
 2943 06ae D701      		movw r26,r14
 2944 06b0 C601      		movw r24,r12
 2945 06b2 E7E1      		ldi r30,23
 2946               		1:
 2947 06b4 B695      		lsr r27
 2948 06b6 A795      		ror r26
 2949 06b8 9795      		ror r25
 2950 06ba 8795      		ror r24
 2951 06bc EA95      		dec r30
 2952 06be 01F4      		brne 1b
 2953 06c0 9C01      		movw r18,r24
 2954 06c2 2227      		clr r18
 2955 06c4 3170      		andi r19,1
 2956 06c6 232B      		or r18,r19
 2957 06c8 01F0      		breq .L261
 2958 06ca 9927      		clr r25
 2959 06cc 789E      		mul r7,r24
 2960 06ce F001      		movw r30,r0
 2961 06d0 799E      		mul r7,r25
 2962 06d2 F00D      		add r31,r0
 2963 06d4 1124      		clr __zero_reg__
 2964 06d6 2B85      		ldd r18,Y+11
 2965 06d8 3C85      		ldd r19,Y+12
 2966 06da E20F      		add r30,r18
 2967 06dc F31F      		adc r31,r19
 2968 06de 00C0      		rjmp .L262
 2969               	.L261:
 2970 06e0 789E      		mul r7,r24
 2971 06e2 F001      		movw r30,r0
 2972 06e4 799E      		mul r7,r25
 2973 06e6 F00D      		add r31,r0
 2974 06e8 1124      		clr __zero_reg__
 2975 06ea E20D      		add r30,r2
 2976 06ec F31D      		adc r31,r3
 2977               	.L262:
 2978 06ee 7EE0      		ldi r23,14
 2979               		1:
 2980 06f0 F694      		lsr r15
 2981 06f2 E794      		ror r14
 2982 06f4 D794      		ror r13
 2983 06f6 C794      		ror r12
 2984 06f8 7A95      		dec r23
 2985 06fa 01F4      		brne 1b
 2986 06fc 9601      		movw r18,r12
 2987 06fe 2227      		clr r18
 2988 0700 3170      		andi r19,1
 2989 0702 232B      		or r18,r19
 2990 0704 01F0      		breq .L263
 2991 0706 DD24      		clr r13
 2992 0708 7C9C      		mul r7,r12
 2993 070a 9001      		movw r18,r0
GAS LISTING /tmp/ccRBarYT.s 			page 54


 2994 070c 7D9C      		mul r7,r13
 2995 070e 300D      		add r19,r0
 2996 0710 1124      		clr __zero_reg__
 2997 0712 4B85      		ldd r20,Y+11
 2998 0714 5C85      		ldd r21,Y+12
 2999 0716 240F      		add r18,r20
 3000 0718 351F      		adc r19,r21
 3001 071a 00C0      		rjmp .L264
 3002               	.L263:
 3003 071c 51E0      		ldi r21,1
 3004 071e D522      		and r13,r21
 3005 0720 7C9C      		mul r7,r12
 3006 0722 9001      		movw r18,r0
 3007 0724 7D9C      		mul r7,r13
 3008 0726 300D      		add r19,r0
 3009 0728 1124      		clr __zero_reg__
 3010 072a 220D      		add r18,r2
 3011 072c 331D      		adc r19,r3
 3012               	.L264:
 3013 072e 8481      		ldd r24,Z+4
 3014 0730 9581      		ldd r25,Z+5
 3015 0732 0597      		sbiw r24,5
 3016 0734 01F4      		brne .L265
 3017 0736 D901      		movw r26,r18
 3018 0738 1496      		adiw r26,4
 3019 073a 8D91      		ld r24,X+
 3020 073c 9C91      		ld r25,X
 3021 073e 1597      		sbiw r26,4+1
 3022 0740 8530      		cpi r24,5
 3023 0742 9105      		cpc r25,__zero_reg__
 3024 0744 01F4      		brne .L265
 3025 0746 4081      		ld r20,Z
 3026 0748 5181      		ldd r21,Z+1
 3027 074a 6281      		ldd r22,Z+2
 3028 074c 7381      		ldd r23,Z+3
 3029 074e 0D91      		ld r16,X+
 3030 0750 1D91      		ld r17,X+
 3031 0752 2D91      		ld r18,X+
 3032 0754 3C91      		ld r19,X
 3033 0756 401B      		sub r20,r16
 3034 0758 510B      		sbc r21,r17
 3035 075a 620B      		sbc r22,r18
 3036 075c 730B      		sbc r23,r19
 3037 075e 00C0      		rjmp .L464
 3038               	.L265:
 3039 0760 D501      		movw r26,r10
 3040 0762 1E96      		adiw r26,13+1
 3041 0764 5C92      		st X,r5
 3042 0766 4E92      		st -X,r4
 3043 0768 1D97      		sbiw r26,13
 3044 076a 06E0      		ldi r16,lo8(6)
 3045 076c 10E0      		ldi r17,0
 3046               	.L474:
 3047 076e AF01      		movw r20,r30
 3048               	.L475:
 3049 0770 B401      		movw r22,r8
 3050 0772 C501      		movw r24,r10
GAS LISTING /tmp/ccRBarYT.s 			page 55


 3051 0774 0E94 0000 		call Arith
 3052 0778 0C94 0000 		jmp .L356
 3053               	.L222:
 3054 077c D701      		movw r26,r14
 3055 077e C601      		movw r24,r12
 3056 0780 67E1      		ldi r22,23
 3057               		1:
 3058 0782 B695      		lsr r27
 3059 0784 A795      		ror r26
 3060 0786 9795      		ror r25
 3061 0788 8795      		ror r24
 3062 078a 6A95      		dec r22
 3063 078c 01F4      		brne 1b
 3064 078e 9C01      		movw r18,r24
 3065 0790 2227      		clr r18
 3066 0792 3170      		andi r19,1
 3067 0794 232B      		or r18,r19
 3068 0796 01F0      		breq .L266
 3069 0798 9927      		clr r25
 3070 079a 789E      		mul r7,r24
 3071 079c D001      		movw r26,r0
 3072 079e 799E      		mul r7,r25
 3073 07a0 B00D      		add r27,r0
 3074 07a2 1124      		clr __zero_reg__
 3075 07a4 2B85      		ldd r18,Y+11
 3076 07a6 3C85      		ldd r19,Y+12
 3077 07a8 A20F      		add r26,r18
 3078 07aa B31F      		adc r27,r19
 3079 07ac 00C0      		rjmp .L267
 3080               	.L266:
 3081 07ae 789E      		mul r7,r24
 3082 07b0 A001      		movw r20,r0
 3083 07b2 799E      		mul r7,r25
 3084 07b4 500D      		add r21,r0
 3085 07b6 1124      		clr __zero_reg__
 3086 07b8 D101      		movw r26,r2
 3087 07ba A40F      		add r26,r20
 3088 07bc B51F      		adc r27,r21
 3089               	.L267:
 3090 07be 5EE0      		ldi r21,14
 3091               		1:
 3092 07c0 F694      		lsr r15
 3093 07c2 E794      		ror r14
 3094 07c4 D794      		ror r13
 3095 07c6 C794      		ror r12
 3096 07c8 5A95      		dec r21
 3097 07ca 01F4      		brne 1b
 3098 07cc 9601      		movw r18,r12
 3099 07ce 2227      		clr r18
 3100 07d0 3170      		andi r19,1
 3101 07d2 232B      		or r18,r19
 3102 07d4 01F0      		breq .L268
 3103 07d6 DD24      		clr r13
 3104 07d8 7C9C      		mul r7,r12
 3105 07da C001      		movw r24,r0
 3106 07dc 7D9C      		mul r7,r13
 3107 07de 900D      		add r25,r0
GAS LISTING /tmp/ccRBarYT.s 			page 56


 3108 07e0 1124      		clr __zero_reg__
 3109 07e2 4B85      		ldd r20,Y+11
 3110 07e4 5C85      		ldd r21,Y+12
 3111 07e6 840F      		add r24,r20
 3112 07e8 951F      		adc r25,r21
 3113 07ea 00C0      		rjmp .L269
 3114               	.L268:
 3115 07ec 51E0      		ldi r21,1
 3116 07ee D522      		and r13,r21
 3117 07f0 7C9C      		mul r7,r12
 3118 07f2 C001      		movw r24,r0
 3119 07f4 7D9C      		mul r7,r13
 3120 07f6 900D      		add r25,r0
 3121 07f8 1124      		clr __zero_reg__
 3122 07fa 820D      		add r24,r2
 3123 07fc 931D      		adc r25,r3
 3124               	.L269:
 3125 07fe 1496      		adiw r26,4
 3126 0800 2D91      		ld r18,X+
 3127 0802 3C91      		ld r19,X
 3128 0804 1597      		sbiw r26,4+1
 3129 0806 2530      		cpi r18,5
 3130 0808 3105      		cpc r19,__zero_reg__
 3131 080a 01F4      		brne .L270
 3132 080c FC01      		movw r30,r24
 3133 080e 0481      		ldd r16,Z+4
 3134 0810 1581      		ldd r17,Z+5
 3135 0812 0530      		cpi r16,5
 3136 0814 1105      		cpc r17,__zero_reg__
 3137 0816 01F4      		brne .L270
 3138 0818 2D91      		ld r18,X+
 3139 081a 3D91      		ld r19,X+
 3140 081c 4D91      		ld r20,X+
 3141 081e 5C91      		ld r21,X
 3142 0820 6081      		ld r22,Z
 3143 0822 7181      		ldd r23,Z+1
 3144 0824 8281      		ldd r24,Z+2
 3145 0826 9381      		ldd r25,Z+3
 3146 0828 0E94 0000 		call __mulsi3
 3147 082c D401      		movw r26,r8
 3148 082e 6D93      		st X+,r22
 3149 0830 7D93      		st X+,r23
 3150 0832 8D93      		st X+,r24
 3151 0834 9C93      		st X,r25
 3152 0836 1397      		sbiw r26,3
 3153 0838 1596      		adiw r26,4+1
 3154 083a 1C93      		st X,r17
 3155 083c 0E93      		st -X,r16
 3156 083e 1497      		sbiw r26,4
 3157 0840 00C0      		rjmp .L196
 3158               	.L270:
 3159 0842 F501      		movw r30,r10
 3160 0844 5686      		std Z+14,r5
 3161 0846 4586      		std Z+13,r4
 3162 0848 07E0      		ldi r16,lo8(7)
 3163 084a 10E0      		ldi r17,0
 3164 084c 9C01      		movw r18,r24
GAS LISTING /tmp/ccRBarYT.s 			page 57


 3165 084e AD01      		movw r20,r26
 3166 0850 B401      		movw r22,r8
 3167 0852 C501      		movw r24,r10
 3168 0854 0E94 0000 		call Arith
 3169 0858 00C0      		rjmp .L332
 3170               	.L223:
 3171 085a D701      		movw r26,r14
 3172 085c C601      		movw r24,r12
 3173 085e 47E1      		ldi r20,23
 3174               		1:
 3175 0860 B695      		lsr r27
 3176 0862 A795      		ror r26
 3177 0864 9795      		ror r25
 3178 0866 8795      		ror r24
 3179 0868 4A95      		dec r20
 3180 086a 01F4      		brne 1b
 3181 086c 9C01      		movw r18,r24
 3182 086e 2227      		clr r18
 3183 0870 3170      		andi r19,1
 3184 0872 232B      		or r18,r19
 3185 0874 01F0      		breq .L271
 3186 0876 9927      		clr r25
 3187 0878 789E      		mul r7,r24
 3188 087a F001      		movw r30,r0
 3189 087c 799E      		mul r7,r25
 3190 087e F00D      		add r31,r0
 3191 0880 1124      		clr __zero_reg__
 3192 0882 2B85      		ldd r18,Y+11
 3193 0884 3C85      		ldd r19,Y+12
 3194 0886 E20F      		add r30,r18
 3195 0888 F31F      		adc r31,r19
 3196 088a 00C0      		rjmp .L272
 3197               	.L271:
 3198 088c 789E      		mul r7,r24
 3199 088e F001      		movw r30,r0
 3200 0890 799E      		mul r7,r25
 3201 0892 F00D      		add r31,r0
 3202 0894 1124      		clr __zero_reg__
 3203 0896 E20D      		add r30,r2
 3204 0898 F31D      		adc r31,r3
 3205               	.L272:
 3206 089a 3EE0      		ldi r19,14
 3207               		1:
 3208 089c F694      		lsr r15
 3209 089e E794      		ror r14
 3210 08a0 D794      		ror r13
 3211 08a2 C794      		ror r12
 3212 08a4 3A95      		dec r19
 3213 08a6 01F4      		brne 1b
 3214 08a8 9601      		movw r18,r12
 3215 08aa 2227      		clr r18
 3216 08ac 3170      		andi r19,1
 3217 08ae 232B      		or r18,r19
 3218 08b0 01F0      		breq .L273
 3219 08b2 DD24      		clr r13
 3220 08b4 7C9C      		mul r7,r12
 3221 08b6 9001      		movw r18,r0
GAS LISTING /tmp/ccRBarYT.s 			page 58


 3222 08b8 7D9C      		mul r7,r13
 3223 08ba 300D      		add r19,r0
 3224 08bc 1124      		clr __zero_reg__
 3225 08be 4B85      		ldd r20,Y+11
 3226 08c0 5C85      		ldd r21,Y+12
 3227 08c2 240F      		add r18,r20
 3228 08c4 351F      		adc r19,r21
 3229 08c6 00C0      		rjmp .L274
 3230               	.L273:
 3231 08c8 51E0      		ldi r21,1
 3232 08ca D522      		and r13,r21
 3233 08cc 7C9C      		mul r7,r12
 3234 08ce 9001      		movw r18,r0
 3235 08d0 7D9C      		mul r7,r13
 3236 08d2 300D      		add r19,r0
 3237 08d4 1124      		clr __zero_reg__
 3238 08d6 220D      		add r18,r2
 3239 08d8 331D      		adc r19,r3
 3240               	.L274:
 3241 08da 8481      		ldd r24,Z+4
 3242 08dc 9581      		ldd r25,Z+5
 3243 08de 0597      		sbiw r24,5
 3244 08e0 01F4      		brne .L275
 3245 08e2 D901      		movw r26,r18
 3246 08e4 1496      		adiw r26,4
 3247 08e6 0D91      		ld r16,X+
 3248 08e8 1C91      		ld r17,X
 3249 08ea 1597      		sbiw r26,4+1
 3250 08ec 0530      		cpi r16,5
 3251 08ee 1105      		cpc r17,__zero_reg__
 3252 08f0 01F4      		brne .L275
 3253 08f2 6081      		ld r22,Z
 3254 08f4 7181      		ldd r23,Z+1
 3255 08f6 8281      		ldd r24,Z+2
 3256 08f8 9381      		ldd r25,Z+3
 3257 08fa 2D91      		ld r18,X+
 3258 08fc 3D91      		ld r19,X+
 3259 08fe 4D91      		ld r20,X+
 3260 0900 5C91      		ld r21,X
 3261 0902 0E94 0000 		call __divmodsi4
 3262 0906 F401      		movw r30,r8
 3263 0908 2083      		st Z,r18
 3264 090a 3183      		std Z+1,r19
 3265 090c 4283      		std Z+2,r20
 3266 090e 5383      		std Z+3,r21
 3267 0910 00C0      		rjmp .L463
 3268               	.L275:
 3269 0912 D501      		movw r26,r10
 3270 0914 1E96      		adiw r26,13+1
 3271 0916 5C92      		st X,r5
 3272 0918 4E92      		st -X,r4
 3273 091a 1D97      		sbiw r26,13
 3274 091c 08E0      		ldi r16,lo8(8)
 3275 091e 10E0      		ldi r17,0
 3276 0920 00C0      		rjmp .L474
 3277               	.L224:
 3278 0922 D701      		movw r26,r14
GAS LISTING /tmp/ccRBarYT.s 			page 59


 3279 0924 C601      		movw r24,r12
 3280 0926 27E1      		ldi r18,23
 3281               		1:
 3282 0928 B695      		lsr r27
 3283 092a A795      		ror r26
 3284 092c 9795      		ror r25
 3285 092e 8795      		ror r24
 3286 0930 2A95      		dec r18
 3287 0932 01F4      		brne 1b
 3288 0934 9C01      		movw r18,r24
 3289 0936 2227      		clr r18
 3290 0938 3170      		andi r19,1
 3291 093a 232B      		or r18,r19
 3292 093c 01F0      		breq .L276
 3293 093e 9927      		clr r25
 3294 0940 789E      		mul r7,r24
 3295 0942 F001      		movw r30,r0
 3296 0944 799E      		mul r7,r25
 3297 0946 F00D      		add r31,r0
 3298 0948 1124      		clr __zero_reg__
 3299 094a 2B85      		ldd r18,Y+11
 3300 094c 3C85      		ldd r19,Y+12
 3301 094e E20F      		add r30,r18
 3302 0950 F31F      		adc r31,r19
 3303 0952 00C0      		rjmp .L277
 3304               	.L276:
 3305 0954 789E      		mul r7,r24
 3306 0956 F001      		movw r30,r0
 3307 0958 799E      		mul r7,r25
 3308 095a F00D      		add r31,r0
 3309 095c 1124      		clr __zero_reg__
 3310 095e E20D      		add r30,r2
 3311 0960 F31D      		adc r31,r3
 3312               	.L277:
 3313 0962 0EE0      		ldi r16,14
 3314               		1:
 3315 0964 F694      		lsr r15
 3316 0966 E794      		ror r14
 3317 0968 D794      		ror r13
 3318 096a C794      		ror r12
 3319 096c 0A95      		dec r16
 3320 096e 01F4      		brne 1b
 3321 0970 9601      		movw r18,r12
 3322 0972 2227      		clr r18
 3323 0974 3170      		andi r19,1
 3324 0976 232B      		or r18,r19
 3325 0978 01F0      		breq .L278
 3326 097a DD24      		clr r13
 3327 097c 7C9C      		mul r7,r12
 3328 097e 9001      		movw r18,r0
 3329 0980 7D9C      		mul r7,r13
 3330 0982 300D      		add r19,r0
 3331 0984 1124      		clr __zero_reg__
 3332 0986 4B85      		ldd r20,Y+11
 3333 0988 5C85      		ldd r21,Y+12
 3334 098a 240F      		add r18,r20
 3335 098c 351F      		adc r19,r21
GAS LISTING /tmp/ccRBarYT.s 			page 60


 3336 098e 00C0      		rjmp .L279
 3337               	.L278:
 3338 0990 51E0      		ldi r21,1
 3339 0992 D522      		and r13,r21
 3340 0994 7C9C      		mul r7,r12
 3341 0996 9001      		movw r18,r0
 3342 0998 7D9C      		mul r7,r13
 3343 099a 300D      		add r19,r0
 3344 099c 1124      		clr __zero_reg__
 3345 099e 220D      		add r18,r2
 3346 09a0 331D      		adc r19,r3
 3347               	.L279:
 3348 09a2 8481      		ldd r24,Z+4
 3349 09a4 9581      		ldd r25,Z+5
 3350 09a6 0597      		sbiw r24,5
 3351 09a8 01F4      		brne .L280
 3352 09aa D901      		movw r26,r18
 3353 09ac 1496      		adiw r26,4
 3354 09ae 0D91      		ld r16,X+
 3355 09b0 1C91      		ld r17,X
 3356 09b2 1597      		sbiw r26,4+1
 3357 09b4 0530      		cpi r16,5
 3358 09b6 1105      		cpc r17,__zero_reg__
 3359 09b8 01F4      		brne .L280
 3360 09ba 6081      		ld r22,Z
 3361 09bc 7181      		ldd r23,Z+1
 3362 09be 8281      		ldd r24,Z+2
 3363 09c0 9381      		ldd r25,Z+3
 3364 09c2 2D91      		ld r18,X+
 3365 09c4 3D91      		ld r19,X+
 3366 09c6 4D91      		ld r20,X+
 3367 09c8 5C91      		ld r21,X
 3368 09ca 0E94 0000 		call __divmodsi4
 3369 09ce F401      		movw r30,r8
 3370 09d0 6083      		st Z,r22
 3371 09d2 7183      		std Z+1,r23
 3372 09d4 8283      		std Z+2,r24
 3373 09d6 9383      		std Z+3,r25
 3374 09d8 00C0      		rjmp .L463
 3375               	.L280:
 3376 09da D501      		movw r26,r10
 3377 09dc 1E96      		adiw r26,13+1
 3378 09de 5C92      		st X,r5
 3379 09e0 4E92      		st -X,r4
 3380 09e2 1D97      		sbiw r26,13
 3381 09e4 09E0      		ldi r16,lo8(9)
 3382 09e6 10E0      		ldi r17,0
 3383 09e8 00C0      		rjmp .L474
 3384               	.L225:
 3385 09ea D701      		movw r26,r14
 3386 09ec C601      		movw r24,r12
 3387 09ee 17E1      		ldi r17,23
 3388               		1:
 3389 09f0 B695      		lsr r27
 3390 09f2 A795      		ror r26
 3391 09f4 9795      		ror r25
 3392 09f6 8795      		ror r24
GAS LISTING /tmp/ccRBarYT.s 			page 61


 3393 09f8 1A95      		dec r17
 3394 09fa 01F4      		brne 1b
 3395 09fc 9C01      		movw r18,r24
 3396 09fe 2227      		clr r18
 3397 0a00 3170      		andi r19,1
 3398 0a02 232B      		or r18,r19
 3399 0a04 01F0      		breq .L281
 3400 0a06 9927      		clr r25
 3401 0a08 789E      		mul r7,r24
 3402 0a0a 9001      		movw r18,r0
 3403 0a0c 799E      		mul r7,r25
 3404 0a0e 300D      		add r19,r0
 3405 0a10 1124      		clr __zero_reg__
 3406 0a12 4B85      		ldd r20,Y+11
 3407 0a14 5C85      		ldd r21,Y+12
 3408 0a16 00C0      		rjmp .L466
 3409               	.L281:
 3410 0a18 789E      		mul r7,r24
 3411 0a1a 9001      		movw r18,r0
 3412 0a1c 799E      		mul r7,r25
 3413 0a1e 300D      		add r19,r0
 3414 0a20 1124      		clr __zero_reg__
 3415 0a22 A101      		movw r20,r2
 3416               	.L466:
 3417 0a24 420F      		add r20,r18
 3418 0a26 531F      		adc r21,r19
 3419 0a28 5887      		std Y+8,r21
 3420 0a2a 4F83      		std Y+7,r20
 3421 0a2c BEE0      		ldi r27,14
 3422               		1:
 3423 0a2e F694      		lsr r15
 3424 0a30 E794      		ror r14
 3425 0a32 D794      		ror r13
 3426 0a34 C794      		ror r12
 3427 0a36 BA95      		dec r27
 3428 0a38 01F4      		brne 1b
 3429 0a3a C601      		movw r24,r12
 3430 0a3c 8827      		clr r24
 3431 0a3e 9170      		andi r25,1
 3432 0a40 892B      		or r24,r25
 3433 0a42 01F0      		breq .L283
 3434 0a44 DD24      		clr r13
 3435 0a46 7C9C      		mul r7,r12
 3436 0a48 9001      		movw r18,r0
 3437 0a4a 7D9C      		mul r7,r13
 3438 0a4c 300D      		add r19,r0
 3439 0a4e 1124      		clr __zero_reg__
 3440 0a50 8B85      		ldd r24,Y+11
 3441 0a52 9C85      		ldd r25,Y+12
 3442 0a54 280F      		add r18,r24
 3443 0a56 391F      		adc r19,r25
 3444 0a58 00C0      		rjmp .L284
 3445               	.L283:
 3446 0a5a 91E0      		ldi r25,1
 3447 0a5c D922      		and r13,r25
 3448 0a5e 7C9C      		mul r7,r12
 3449 0a60 9001      		movw r18,r0
GAS LISTING /tmp/ccRBarYT.s 			page 62


 3450 0a62 7D9C      		mul r7,r13
 3451 0a64 300D      		add r19,r0
 3452 0a66 1124      		clr __zero_reg__
 3453 0a68 220D      		add r18,r2
 3454 0a6a 331D      		adc r19,r3
 3455               	.L284:
 3456 0a6c AF81      		ldd r26,Y+7
 3457 0a6e B885      		ldd r27,Y+8
 3458 0a70 1496      		adiw r26,4
 3459 0a72 8D91      		ld r24,X+
 3460 0a74 9C91      		ld r25,X
 3461 0a76 1597      		sbiw r26,4+1
 3462 0a78 0597      		sbiw r24,5
 3463 0a7a 01F4      		brne .L285
 3464 0a7c F901      		movw r30,r18
 3465 0a7e 0481      		ldd r16,Z+4
 3466 0a80 1581      		ldd r17,Z+5
 3467 0a82 0530      		cpi r16,5
 3468 0a84 1105      		cpc r17,__zero_reg__
 3469 0a86 01F4      		brne .L285
 3470 0a88 6081      		ld r22,Z
 3471 0a8a 7181      		ldd r23,Z+1
 3472 0a8c 8281      		ldd r24,Z+2
 3473 0a8e 9381      		ldd r25,Z+3
 3474 0a90 0E94 0000 		call __floatsisf
 3475 0a94 9B01      		movw r18,r22
 3476 0a96 AC01      		movw r20,r24
 3477 0a98 AF81      		ldd r26,Y+7
 3478 0a9a B885      		ldd r27,Y+8
 3479 0a9c 6D91      		ld r22,X+
 3480 0a9e 7D91      		ld r23,X+
 3481 0aa0 8D91      		ld r24,X+
 3482 0aa2 9C91      		ld r25,X
 3483 0aa4 2B8B      		std Y+19,r18
 3484 0aa6 3C8B      		std Y+20,r19
 3485 0aa8 4D8B      		std Y+21,r20
 3486 0aaa 5E8B      		std Y+22,r21
 3487 0aac 0E94 0000 		call __floatsisf
 3488 0ab0 2B89      		ldd r18,Y+19
 3489 0ab2 3C89      		ldd r19,Y+20
 3490 0ab4 4D89      		ldd r20,Y+21
 3491 0ab6 5E89      		ldd r21,Y+22
 3492 0ab8 0E94 0000 		call pow
 3493 0abc 20E0      		ldi r18,0
 3494 0abe 30E0      		ldi r19,0
 3495 0ac0 40E0      		ldi r20,0
 3496 0ac2 5FE3      		ldi r21,lo8(63)
 3497 0ac4 0E94 0000 		call __addsf3
 3498 0ac8 0E94 0000 		call __fixsfsi
 3499 0acc CB01      		movw r24,r22
 3500 0ace 770F      		lsl r23
 3501 0ad0 AA0B      		sbc r26,r26
 3502 0ad2 BB0B      		sbc r27,r27
 3503 0ad4 F401      		movw r30,r8
 3504 0ad6 8083      		st Z,r24
 3505 0ad8 9183      		std Z+1,r25
 3506 0ada A283      		std Z+2,r26
GAS LISTING /tmp/ccRBarYT.s 			page 63


 3507 0adc B383      		std Z+3,r27
 3508               	.L463:
 3509 0ade 1583      		std Z+5,r17
 3510 0ae0 0483      		std Z+4,r16
 3511 0ae2 00C0      		rjmp .L196
 3512               	.L285:
 3513 0ae4 D501      		movw r26,r10
 3514 0ae6 1E96      		adiw r26,13+1
 3515 0ae8 5C92      		st X,r5
 3516 0aea 4E92      		st -X,r4
 3517 0aec 1D97      		sbiw r26,13
 3518 0aee 0AE0      		ldi r16,lo8(10)
 3519 0af0 10E0      		ldi r17,0
 3520 0af2 4F81      		ldd r20,Y+7
 3521 0af4 5885      		ldd r21,Y+8
 3522 0af6 00C0      		rjmp .L475
 3523               	.L226:
 3524 0af8 A7E1      		ldi r26,23
 3525               		1:
 3526 0afa F694      		lsr r15
 3527 0afc E794      		ror r14
 3528 0afe D794      		ror r13
 3529 0b00 C794      		ror r12
 3530 0b02 AA95      		dec r26
 3531 0b04 01F4      		brne 1b
 3532 0b06 7C9C      		mul r7,r12
 3533 0b08 9001      		movw r18,r0
 3534 0b0a 7D9C      		mul r7,r13
 3535 0b0c 300D      		add r19,r0
 3536 0b0e 1124      		clr __zero_reg__
 3537 0b10 A101      		movw r20,r2
 3538 0b12 420F      		add r20,r18
 3539 0b14 531F      		adc r21,r19
 3540 0b16 DA01      		movw r26,r20
 3541 0b18 1496      		adiw r26,4
 3542 0b1a 8D91      		ld r24,X+
 3543 0b1c 9C91      		ld r25,X
 3544 0b1e 1597      		sbiw r26,4+1
 3545 0b20 8530      		cpi r24,5
 3546 0b22 9105      		cpc r25,__zero_reg__
 3547 0b24 01F4      		brne .L286
 3548 0b26 4D91      		ld r20,X+
 3549 0b28 5D91      		ld r21,X+
 3550 0b2a 6D91      		ld r22,X+
 3551 0b2c 7C91      		ld r23,X
 3552 0b2e 7095      		com r23
 3553 0b30 6095      		com r22
 3554 0b32 5095      		com r21
 3555 0b34 4195      		neg r20
 3556 0b36 5F4F      		sbci r21,lo8(-1)
 3557 0b38 6F4F      		sbci r22,lo8(-1)
 3558 0b3a 7F4F      		sbci r23,lo8(-1)
 3559               	.L464:
 3560 0b3c F401      		movw r30,r8
 3561 0b3e 4083      		st Z,r20
 3562 0b40 5183      		std Z+1,r21
 3563 0b42 6283      		std Z+2,r22
GAS LISTING /tmp/ccRBarYT.s 			page 64


 3564 0b44 7383      		std Z+3,r23
 3565 0b46 00C0      		rjmp .L462
 3566               	.L286:
 3567 0b48 D501      		movw r26,r10
 3568 0b4a 1E96      		adiw r26,13+1
 3569 0b4c 5C92      		st X,r5
 3570 0b4e 4E92      		st -X,r4
 3571 0b50 1D97      		sbiw r26,13
 3572 0b52 0BE0      		ldi r16,lo8(11)
 3573 0b54 10E0      		ldi r17,0
 3574 0b56 9A01      		movw r18,r20
 3575 0b58 00C0      		rjmp .L475
 3576               	.L227:
 3577 0b5a F7E1      		ldi r31,23
 3578               		1:
 3579 0b5c F694      		lsr r15
 3580 0b5e E794      		ror r14
 3581 0b60 D794      		ror r13
 3582 0b62 C794      		ror r12
 3583 0b64 FA95      		dec r31
 3584 0b66 01F4      		brne 1b
 3585 0b68 7C9C      		mul r7,r12
 3586 0b6a F001      		movw r30,r0
 3587 0b6c 7D9C      		mul r7,r13
 3588 0b6e F00D      		add r31,r0
 3589 0b70 1124      		clr __zero_reg__
 3590 0b72 E20D      		add r30,r2
 3591 0b74 F31D      		adc r31,r3
 3592 0b76 8481      		ldd r24,Z+4
 3593 0b78 9581      		ldd r25,Z+5
 3594 0b7a 0097      		sbiw r24,0
 3595 0b7c 01F0      		breq .L366
 3596 0b7e 0197      		sbiw r24,1
 3597 0b80 01F4      		brne .L367
 3598 0b82 91E0      		ldi r25,lo8(1)
 3599 0b84 80E0      		ldi r24,0
 3600 0b86 2081      		ld r18,Z
 3601 0b88 3181      		ldd r19,Z+1
 3602 0b8a 232B      		or r18,r19
 3603 0b8c 01F0      		breq .L287
 3604 0b8e 90E0      		ldi r25,0
 3605 0b90 00C0      		rjmp .L287
 3606               	.L366:
 3607 0b92 91E0      		ldi r25,lo8(1)
 3608 0b94 00C0      		rjmp .L467
 3609               	.L367:
 3610 0b96 90E0      		ldi r25,0
 3611               	.L467:
 3612 0b98 80E0      		ldi r24,0
 3613               	.L287:
 3614 0b9a D401      		movw r26,r8
 3615 0b9c 9C93      		st X,r25
 3616 0b9e 1196      		adiw r26,1
 3617 0ba0 8C93      		st X,r24
 3618 0ba2 1197      		sbiw r26,1
 3619 0ba4 E1E0      		ldi r30,lo8(1)
 3620 0ba6 F0E0      		ldi r31,0
GAS LISTING /tmp/ccRBarYT.s 			page 65


 3621 0ba8 1596      		adiw r26,4+1
 3622 0baa FC93      		st X,r31
 3623 0bac EE93      		st -X,r30
 3624 0bae 1497      		sbiw r26,4
 3625 0bb0 00C0      		rjmp .L196
 3626               	.L228:
 3627 0bb2 D701      		movw r26,r14
 3628 0bb4 C601      		movw r24,r12
 3629 0bb6 E7E1      		ldi r30,23
 3630               		1:
 3631 0bb8 B695      		lsr r27
 3632 0bba A795      		ror r26
 3633 0bbc 9795      		ror r25
 3634 0bbe 8795      		ror r24
 3635 0bc0 EA95      		dec r30
 3636 0bc2 01F4      		brne 1b
 3637 0bc4 789E      		mul r7,r24
 3638 0bc6 7001      		movw r14,r0
 3639 0bc8 799E      		mul r7,r25
 3640 0bca F00C      		add r15,r0
 3641 0bcc 1124      		clr __zero_reg__
 3642 0bce E20C      		add r14,r2
 3643 0bd0 F31C      		adc r15,r3
 3644 0bd2 D701      		movw r26,r14
 3645 0bd4 1496      		adiw r26,4
 3646 0bd6 8D91      		ld r24,X+
 3647 0bd8 9C91      		ld r25,X
 3648 0bda 1597      		sbiw r26,4+1
 3649 0bdc 8630      		cpi r24,6
 3650 0bde 9105      		cpc r25,__zero_reg__
 3651 0be0 01F0      		breq .L290
 3652 0be2 0797      		sbiw r24,7
 3653 0be4 01F4      		brne .L458
 3654 0be6 8D91      		ld r24,X+
 3655 0be8 9C91      		ld r25,X
 3656 0bea 0E94 0000 		call luaH_getn
 3657 0bee 092E      		mov __tmp_reg__,r25
 3658 0bf0 000C      		lsl r0
 3659 0bf2 AA0B      		sbc r26,r26
 3660 0bf4 BB0B      		sbc r27,r27
 3661 0bf6 00C0      		rjmp .L461
 3662               	.L290:
 3663 0bf8 D701      		movw r26,r14
 3664 0bfa ED91      		ld r30,X+
 3665 0bfc FC91      		ld r31,X
 3666 0bfe 8781      		ldd r24,Z+7
 3667 0c00 9085      		ldd r25,Z+8
 3668 0c02 A0E0      		ldi r26,0
 3669 0c04 B0E0      		ldi r27,0
 3670               	.L461:
 3671 0c06 F401      		movw r30,r8
 3672 0c08 8083      		st Z,r24
 3673 0c0a 9183      		std Z+1,r25
 3674 0c0c A283      		std Z+2,r26
 3675 0c0e B383      		std Z+3,r27
 3676 0c10 25E0      		ldi r18,lo8(5)
 3677 0c12 30E0      		ldi r19,0
GAS LISTING /tmp/ccRBarYT.s 			page 66


 3678 0c14 3583      		std Z+5,r19
 3679 0c16 2483      		std Z+4,r18
 3680 0c18 00C0      		rjmp .L196
 3681               	.L458:
 3682 0c1a D501      		movw r26,r10
 3683 0c1c 1E96      		adiw r26,13+1
 3684 0c1e 5C92      		st X,r5
 3685 0c20 4E92      		st -X,r4
 3686 0c22 1D97      		sbiw r26,13
 3687 0c24 0CE0      		ldi r16,lo8(12)
 3688 0c26 10E0      		ldi r17,0
 3689 0c28 9401      		movw r18,r8
 3690 0c2a 40E0      		ldi r20,lo8(luaO_nilobject_)
 3691 0c2c 50E0      		ldi r21,hi8(luaO_nilobject_)
 3692 0c2e B701      		movw r22,r14
 3693 0c30 C501      		movw r24,r10
 3694 0c32 0E94 0000 		call call_binTM
 3695 0c36 892B      		or r24,r25
 3696 0c38 01F0      		breq .+2
 3697 0c3a 00C0      		rjmp .L356
 3698 0c3c 40E0      		ldi r20,lo8(.LC5)
 3699 0c3e 50E0      		ldi r21,hi8(.LC5)
 3700 0c40 B701      		movw r22,r14
 3701 0c42 C501      		movw r24,r10
 3702 0c44 0E94 0000 		call luaG_typeerror
 3703 0c48 00C0      		rjmp .L356
 3704               	.L229:
 3705 0c4a A701      		movw r20,r14
 3706 0c4c 9601      		movw r18,r12
 3707 0c4e 67E1      		ldi r22,23
 3708               		1:
 3709 0c50 5695      		lsr r21
 3710 0c52 4795      		ror r20
 3711 0c54 3795      		ror r19
 3712 0c56 2795      		ror r18
 3713 0c58 6A95      		dec r22
 3714 0c5a 01F4      		brne 1b
 3715 0c5c 2F83      		std Y+7,r18
 3716 0c5e 3887      		std Y+8,r19
 3717 0c60 4987      		std Y+9,r20
 3718 0c62 5A87      		std Y+10,r21
 3719 0c64 7EE0      		ldi r23,14
 3720               		1:
 3721 0c66 F694      		lsr r15
 3722 0c68 E794      		ror r14
 3723 0c6a D794      		ror r13
 3724 0c6c C794      		ror r12
 3725 0c6e 7A95      		dec r23
 3726 0c70 01F4      		brne 1b
 3727 0c72 A601      		movw r20,r12
 3728 0c74 5170      		andi r21,1
 3729 0c76 D501      		movw r26,r10
 3730 0c78 1E96      		adiw r26,13+1
 3731 0c7a 5C92      		st X,r5
 3732 0c7c 4E92      		st -X,r4
 3733 0c7e 1D97      		sbiw r26,13
 3734 0c80 BA01      		movw r22,r20
GAS LISTING /tmp/ccRBarYT.s 			page 67


 3735 0c82 621B      		sub r22,r18
 3736 0c84 730B      		sbc r23,r19
 3737 0c86 6F5F      		subi r22,-1
 3738 0c88 7F4F      		sbci r23,-1
 3739 0c8a C501      		movw r24,r10
 3740 0c8c 0E94 0000 		call luaV_concat
 3741 0c90 D501      		movw r26,r10
 3742 0c92 1996      		adiw r26,9
 3743 0c94 ED91      		ld r30,X+
 3744 0c96 FC91      		ld r31,X
 3745 0c98 1A97      		sbiw r26,9+1
 3746 0c9a 46A1      		ldd r20,Z+38
 3747 0c9c 57A1      		ldd r21,Z+39
 3748 0c9e 60A5      		ldd r22,Z+40
 3749 0ca0 71A5      		ldd r23,Z+41
 3750 0ca2 82A1      		ldd r24,Z+34
 3751 0ca4 93A1      		ldd r25,Z+35
 3752 0ca6 A4A1      		ldd r26,Z+36
 3753 0ca8 B5A1      		ldd r27,Z+37
 3754 0caa 4817      		cp r20,r24
 3755 0cac 5907      		cpc r21,r25
 3756 0cae 6A07      		cpc r22,r26
 3757 0cb0 7B07      		cpc r23,r27
 3758 0cb2 00F0      		brlo .L293
 3759 0cb4 C501      		movw r24,r10
 3760 0cb6 0E94 0000 		call luaC_step
 3761               	.L293:
 3762 0cba F501      		movw r30,r10
 3763 0cbc 2780      		ldd r2,Z+7
 3764 0cbe 3084      		ldd r3,Z+8
 3765 0cc0 2F81      		ldd r18,Y+7
 3766 0cc2 3885      		ldd r19,Y+8
 3767 0cc4 729E      		mul r7,r18
 3768 0cc6 F001      		movw r30,r0
 3769 0cc8 739E      		mul r7,r19
 3770 0cca F00D      		add r31,r0
 3771 0ccc 1124      		clr __zero_reg__
 3772 0cce E20D      		add r30,r2
 3773 0cd0 F31D      		adc r31,r3
 3774 0cd2 D101      		movw r26,r2
 3775 0cd4 A00F      		add r26,r16
 3776 0cd6 B11F      		adc r27,r17
 3777 0cd8 4081      		ld r20,Z
 3778 0cda 5181      		ldd r21,Z+1
 3779 0cdc 6281      		ldd r22,Z+2
 3780 0cde 7381      		ldd r23,Z+3
 3781 0ce0 4D93      		st X+,r20
 3782 0ce2 5D93      		st X+,r21
 3783 0ce4 6D93      		st X+,r22
 3784 0ce6 7C93      		st X,r23
 3785 0ce8 1397      		sbiw r26,3
 3786 0cea 8481      		ldd r24,Z+4
 3787 0cec 9581      		ldd r25,Z+5
 3788 0cee 1596      		adiw r26,4+1
 3789 0cf0 9C93      		st X,r25
 3790 0cf2 8E93      		st -X,r24
 3791 0cf4 1497      		sbiw r26,4
GAS LISTING /tmp/ccRBarYT.s 			page 68


 3792 0cf6 00C0      		rjmp .L196
 3793               	.L231:
 3794 0cf8 D701      		movw r26,r14
 3795 0cfa C601      		movw r24,r12
 3796 0cfc 47E1      		ldi r20,23
 3797               		1:
 3798 0cfe B695      		lsr r27
 3799 0d00 A795      		ror r26
 3800 0d02 9795      		ror r25
 3801 0d04 8795      		ror r24
 3802 0d06 4A95      		dec r20
 3803 0d08 01F4      		brne 1b
 3804 0d0a 9C01      		movw r18,r24
 3805 0d0c 2227      		clr r18
 3806 0d0e 3170      		andi r19,1
 3807 0d10 232B      		or r18,r19
 3808 0d12 01F0      		breq .L294
 3809 0d14 9927      		clr r25
 3810 0d16 789E      		mul r7,r24
 3811 0d18 B001      		movw r22,r0
 3812 0d1a 799E      		mul r7,r25
 3813 0d1c 700D      		add r23,r0
 3814 0d1e 1124      		clr __zero_reg__
 3815 0d20 4B85      		ldd r20,Y+11
 3816 0d22 5C85      		ldd r21,Y+12
 3817 0d24 640F      		add r22,r20
 3818 0d26 751F      		adc r23,r21
 3819 0d28 00C0      		rjmp .L295
 3820               	.L294:
 3821 0d2a 789E      		mul r7,r24
 3822 0d2c B001      		movw r22,r0
 3823 0d2e 799E      		mul r7,r25
 3824 0d30 700D      		add r23,r0
 3825 0d32 1124      		clr __zero_reg__
 3826 0d34 620D      		add r22,r2
 3827 0d36 731D      		adc r23,r3
 3828               	.L295:
 3829 0d38 3EE0      		ldi r19,14
 3830               		1:
 3831 0d3a F694      		lsr r15
 3832 0d3c E794      		ror r14
 3833 0d3e D794      		ror r13
 3834 0d40 C794      		ror r12
 3835 0d42 3A95      		dec r19
 3836 0d44 01F4      		brne 1b
 3837 0d46 9601      		movw r18,r12
 3838 0d48 2227      		clr r18
 3839 0d4a 3170      		andi r19,1
 3840 0d4c 232B      		or r18,r19
 3841 0d4e 01F0      		breq .L296
 3842 0d50 DD24      		clr r13
 3843 0d52 7C9C      		mul r7,r12
 3844 0d54 1001      		movw r2,r0
 3845 0d56 7D9C      		mul r7,r13
 3846 0d58 300C      		add r3,r0
 3847 0d5a 1124      		clr __zero_reg__
 3848 0d5c 4B85      		ldd r20,Y+11
GAS LISTING /tmp/ccRBarYT.s 			page 69


 3849 0d5e 5C85      		ldd r21,Y+12
 3850 0d60 00C0      		rjmp .L468
 3851               	.L296:
 3852 0d62 51E0      		ldi r21,1
 3853 0d64 D522      		and r13,r21
 3854 0d66 7C9C      		mul r7,r12
 3855 0d68 A001      		movw r20,r0
 3856 0d6a 7D9C      		mul r7,r13
 3857 0d6c 500D      		add r21,r0
 3858 0d6e 1124      		clr __zero_reg__
 3859               	.L468:
 3860 0d70 420D      		add r20,r2
 3861 0d72 531D      		adc r21,r3
 3862 0d74 D501      		movw r26,r10
 3863 0d76 1E96      		adiw r26,13+1
 3864 0d78 5C92      		st X,r5
 3865 0d7a 4E92      		st -X,r4
 3866 0d7c 1D97      		sbiw r26,13
 3867 0d7e FB01      		movw r30,r22
 3868 0d80 2481      		ldd r18,Z+4
 3869 0d82 3581      		ldd r19,Z+5
 3870 0d84 DA01      		movw r26,r20
 3871 0d86 1496      		adiw r26,4
 3872 0d88 8D91      		ld r24,X+
 3873 0d8a 9C91      		ld r25,X
 3874 0d8c 1597      		sbiw r26,4+1
 3875 0d8e 2817      		cp r18,r24
 3876 0d90 3907      		cpc r19,r25
 3877 0d92 01F4      		brne .L368
 3878 0d94 C501      		movw r24,r10
 3879 0d96 0E94 0000 		call luaV_equalval
 3880 0d9a 31E0      		ldi r19,lo8(1)
 3881 0d9c 20E0      		ldi r18,0
 3882 0d9e 892B      		or r24,r25
 3883 0da0 01F4      		brne .L299
 3884 0da2 30E0      		ldi r19,0
 3885               	.L299:
 3886 0da4 832F      		mov r24,r19
 3887 0da6 922F      		mov r25,r18
 3888 0da8 00C0      		rjmp .L298
 3889               	.L368:
 3890 0daa 80E0      		ldi r24,0
 3891 0dac 90E0      		ldi r25,0
 3892               	.L298:
 3893 0dae EF85      		ldd r30,Y+15
 3894 0db0 F889      		ldd r31,Y+16
 3895 0db2 8E17      		cp r24,r30
 3896 0db4 9F07      		cpc r25,r31
 3897 0db6 01F0      		breq .+2
 3898 0db8 00C0      		rjmp .L318
 3899 0dba 00C0      		rjmp .L470
 3900               	.L232:
 3901 0dbc F501      		movw r30,r10
 3902 0dbe 5686      		std Z+14,r5
 3903 0dc0 4586      		std Z+13,r4
 3904 0dc2 D701      		movw r26,r14
 3905 0dc4 C601      		movw r24,r12
GAS LISTING /tmp/ccRBarYT.s 			page 70


 3906 0dc6 2EE0      		ldi r18,14
 3907               		1:
 3908 0dc8 B695      		lsr r27
 3909 0dca A795      		ror r26
 3910 0dcc 9795      		ror r25
 3911 0dce 8795      		ror r24
 3912 0dd0 2A95      		dec r18
 3913 0dd2 01F4      		brne 1b
 3914 0dd4 9C01      		movw r18,r24
 3915 0dd6 2227      		clr r18
 3916 0dd8 3170      		andi r19,1
 3917 0dda 232B      		or r18,r19
 3918 0ddc 01F0      		breq .L301
 3919 0dde 9927      		clr r25
 3920 0de0 789E      		mul r7,r24
 3921 0de2 A001      		movw r20,r0
 3922 0de4 799E      		mul r7,r25
 3923 0de6 500D      		add r21,r0
 3924 0de8 1124      		clr __zero_reg__
 3925 0dea 2B85      		ldd r18,Y+11
 3926 0dec 3C85      		ldd r19,Y+12
 3927 0dee 420F      		add r20,r18
 3928 0df0 531F      		adc r21,r19
 3929 0df2 00C0      		rjmp .L302
 3930               	.L301:
 3931 0df4 9170      		andi r25,1
 3932 0df6 789E      		mul r7,r24
 3933 0df8 A001      		movw r20,r0
 3934 0dfa 799E      		mul r7,r25
 3935 0dfc 500D      		add r21,r0
 3936 0dfe 1124      		clr __zero_reg__
 3937 0e00 420D      		add r20,r2
 3938 0e02 531D      		adc r21,r3
 3939               	.L302:
 3940 0e04 07E1      		ldi r16,23
 3941               		1:
 3942 0e06 F694      		lsr r15
 3943 0e08 E794      		ror r14
 3944 0e0a D794      		ror r13
 3945 0e0c C794      		ror r12
 3946 0e0e 0A95      		dec r16
 3947 0e10 01F4      		brne 1b
 3948 0e12 9601      		movw r18,r12
 3949 0e14 2227      		clr r18
 3950 0e16 3170      		andi r19,1
 3951 0e18 232B      		or r18,r19
 3952 0e1a 01F0      		breq .L303
 3953 0e1c DD24      		clr r13
 3954 0e1e 7C9C      		mul r7,r12
 3955 0e20 B001      		movw r22,r0
 3956 0e22 7D9C      		mul r7,r13
 3957 0e24 700D      		add r23,r0
 3958 0e26 1124      		clr __zero_reg__
 3959 0e28 8B85      		ldd r24,Y+11
 3960 0e2a 9C85      		ldd r25,Y+12
 3961 0e2c 680F      		add r22,r24
 3962 0e2e 791F      		adc r23,r25
GAS LISTING /tmp/ccRBarYT.s 			page 71


 3963 0e30 00C0      		rjmp .L304
 3964               	.L303:
 3965 0e32 7C9C      		mul r7,r12
 3966 0e34 B001      		movw r22,r0
 3967 0e36 7D9C      		mul r7,r13
 3968 0e38 700D      		add r23,r0
 3969 0e3a 1124      		clr __zero_reg__
 3970 0e3c 620D      		add r22,r2
 3971 0e3e 731D      		adc r23,r3
 3972               	.L304:
 3973 0e40 C501      		movw r24,r10
 3974 0e42 0E94 0000 		call luaV_lessthan
 3975 0e46 AF85      		ldd r26,Y+15
 3976 0e48 B889      		ldd r27,Y+16
 3977 0e4a 8A17      		cp r24,r26
 3978 0e4c 9B07      		cpc r25,r27
 3979 0e4e 01F0      		breq .+2
 3980 0e50 00C0      		rjmp .L318
 3981 0e52 00C0      		rjmp .L470
 3982               	.L233:
 3983 0e54 F501      		movw r30,r10
 3984 0e56 5686      		std Z+14,r5
 3985 0e58 4586      		std Z+13,r4
 3986 0e5a D701      		movw r26,r14
 3987 0e5c C601      		movw r24,r12
 3988 0e5e 1EE0      		ldi r17,14
 3989               		1:
 3990 0e60 B695      		lsr r27
 3991 0e62 A795      		ror r26
 3992 0e64 9795      		ror r25
 3993 0e66 8795      		ror r24
 3994 0e68 1A95      		dec r17
 3995 0e6a 01F4      		brne 1b
 3996 0e6c 9C01      		movw r18,r24
 3997 0e6e 2227      		clr r18
 3998 0e70 3170      		andi r19,1
 3999 0e72 232B      		or r18,r19
 4000 0e74 01F0      		breq .L306
 4001 0e76 9927      		clr r25
 4002 0e78 789E      		mul r7,r24
 4003 0e7a 4001      		movw r8,r0
 4004 0e7c 799E      		mul r7,r25
 4005 0e7e 900C      		add r9,r0
 4006 0e80 1124      		clr __zero_reg__
 4007 0e82 2B85      		ldd r18,Y+11
 4008 0e84 3C85      		ldd r19,Y+12
 4009 0e86 820E      		add r8,r18
 4010 0e88 931E      		adc r9,r19
 4011 0e8a 00C0      		rjmp .L307
 4012               	.L306:
 4013 0e8c 9170      		andi r25,1
 4014 0e8e 789E      		mul r7,r24
 4015 0e90 4001      		movw r8,r0
 4016 0e92 799E      		mul r7,r25
 4017 0e94 900C      		add r9,r0
 4018 0e96 1124      		clr __zero_reg__
 4019 0e98 820C      		add r8,r2
GAS LISTING /tmp/ccRBarYT.s 			page 72


 4020 0e9a 931C      		adc r9,r3
 4021               	.L307:
 4022 0e9c F7E1      		ldi r31,23
 4023               		1:
 4024 0e9e F694      		lsr r15
 4025 0ea0 E794      		ror r14
 4026 0ea2 D794      		ror r13
 4027 0ea4 C794      		ror r12
 4028 0ea6 FA95      		dec r31
 4029 0ea8 01F4      		brne 1b
 4030 0eaa C601      		movw r24,r12
 4031 0eac 8827      		clr r24
 4032 0eae 9170      		andi r25,1
 4033 0eb0 892B      		or r24,r25
 4034 0eb2 01F0      		breq .L308
 4035 0eb4 DD24      		clr r13
 4036 0eb6 7C9C      		mul r7,r12
 4037 0eb8 1001      		movw r2,r0
 4038 0eba 7D9C      		mul r7,r13
 4039 0ebc 300C      		add r3,r0
 4040 0ebe 1124      		clr __zero_reg__
 4041 0ec0 4B85      		ldd r20,Y+11
 4042 0ec2 5C85      		ldd r21,Y+12
 4043 0ec4 00C0      		rjmp .L469
 4044               	.L308:
 4045 0ec6 7C9C      		mul r7,r12
 4046 0ec8 A001      		movw r20,r0
 4047 0eca 7D9C      		mul r7,r13
 4048 0ecc 500D      		add r21,r0
 4049 0ece 1124      		clr __zero_reg__
 4050               	.L469:
 4051 0ed0 240E      		add r2,r20
 4052 0ed2 351E      		adc r3,r21
 4053 0ed4 D101      		movw r26,r2
 4054 0ed6 1496      		adiw r26,4
 4055 0ed8 8D91      		ld r24,X+
 4056 0eda 9C91      		ld r25,X
 4057 0edc 1597      		sbiw r26,4+1
 4058 0ede F401      		movw r30,r8
 4059 0ee0 2481      		ldd r18,Z+4
 4060 0ee2 3581      		ldd r19,Z+5
 4061 0ee4 8217      		cp r24,r18
 4062 0ee6 9307      		cpc r25,r19
 4063 0ee8 01F0      		breq .+2
 4064 0eea 00C0      		rjmp .L316
 4065 0eec 8530      		cpi r24,5
 4066 0eee 9105      		cpc r25,__zero_reg__
 4067 0ef0 01F4      		brne .L312
 4068 0ef2 31E0      		ldi r19,lo8(1)
 4069 0ef4 20E0      		ldi r18,0
 4070 0ef6 F101      		movw r30,r2
 4071 0ef8 8081      		ld r24,Z
 4072 0efa 9181      		ldd r25,Z+1
 4073 0efc A281      		ldd r26,Z+2
 4074 0efe B381      		ldd r27,Z+3
 4075 0f00 F401      		movw r30,r8
 4076 0f02 4081      		ld r20,Z
GAS LISTING /tmp/ccRBarYT.s 			page 73


 4077 0f04 5181      		ldd r21,Z+1
 4078 0f06 6281      		ldd r22,Z+2
 4079 0f08 7381      		ldd r23,Z+3
 4080 0f0a 4817      		cp r20,r24
 4081 0f0c 5907      		cpc r21,r25
 4082 0f0e 6A07      		cpc r22,r26
 4083 0f10 7B07      		cpc r23,r27
 4084 0f12 04F4      		brge .L317
 4085 0f14 00C0      		rjmp .L478
 4086               	.L312:
 4087 0f16 0697      		sbiw r24,6
 4088 0f18 01F4      		brne .L314
 4089 0f1a 6081      		ld r22,Z
 4090 0f1c 7181      		ldd r23,Z+1
 4091 0f1e F101      		movw r30,r2
 4092 0f20 8081      		ld r24,Z
 4093 0f22 9181      		ldd r25,Z+1
 4094 0f24 0E94 0000 		call l_strcmp
 4095 0f28 31E0      		ldi r19,lo8(1)
 4096 0f2a 20E0      		ldi r18,0
 4097 0f2c 1816      		cp __zero_reg__,r24
 4098 0f2e 1906      		cpc __zero_reg__,r25
 4099 0f30 04F0      		brlt .L478
 4100 0f32 00C0      		rjmp .L317
 4101               	.L314:
 4102 0f34 2EE0      		ldi r18,lo8(14)
 4103 0f36 30E0      		ldi r19,0
 4104 0f38 A401      		movw r20,r8
 4105 0f3a B101      		movw r22,r2
 4106 0f3c C501      		movw r24,r10
 4107 0f3e 0E94 0000 		call call_orderTM
 4108 0f42 8F3F      		cpi r24,-1
 4109 0f44 FFEF      		ldi r31,-1
 4110 0f46 9F07      		cpc r25,r31
 4111 0f48 01F4      		brne .L311
 4112 0f4a 2DE0      		ldi r18,lo8(13)
 4113 0f4c 30E0      		ldi r19,0
 4114 0f4e A101      		movw r20,r2
 4115 0f50 B401      		movw r22,r8
 4116 0f52 C501      		movw r24,r10
 4117 0f54 0E94 0000 		call call_orderTM
 4118 0f58 8F3F      		cpi r24,-1
 4119 0f5a 2FEF      		ldi r18,-1
 4120 0f5c 9207      		cpc r25,r18
 4121 0f5e 01F0      		breq .L316
 4122 0f60 31E0      		ldi r19,lo8(1)
 4123 0f62 20E0      		ldi r18,0
 4124 0f64 892B      		or r24,r25
 4125 0f66 01F0      		breq .L317
 4126               	.L478:
 4127 0f68 30E0      		ldi r19,0
 4128               	.L317:
 4129 0f6a 832F      		mov r24,r19
 4130 0f6c 922F      		mov r25,r18
 4131 0f6e 00C0      		rjmp .L311
 4132               	.L316:
 4133 0f70 A401      		movw r20,r8
GAS LISTING /tmp/ccRBarYT.s 			page 74


 4134 0f72 B101      		movw r22,r2
 4135 0f74 C501      		movw r24,r10
 4136 0f76 0E94 0000 		call luaG_ordererror
 4137               	.L311:
 4138 0f7a 4F85      		ldd r20,Y+15
 4139 0f7c 5889      		ldd r21,Y+16
 4140 0f7e 4817      		cp r20,r24
 4141 0f80 5907      		cpc r21,r25
 4142 0f82 01F4      		brne .L318
 4143               	.L470:
 4144 0f84 EF81      		ldd r30,Y+7
 4145 0f86 F885      		ldd r31,Y+8
 4146 0f88 8481      		ldd r24,Z+4
 4147 0f8a 9581      		ldd r25,Z+5
 4148 0f8c A681      		ldd r26,Z+6
 4149 0f8e B781      		ldd r27,Z+7
 4150 0f90 7EE0      		ldi r23,14
 4151               		1:
 4152 0f92 B695      		lsr r27
 4153 0f94 A795      		ror r26
 4154 0f96 9795      		ror r25
 4155 0f98 8795      		ror r24
 4156 0f9a 7A95      		dec r23
 4157 0f9c 01F4      		brne 1b
 4158 0f9e 0396      		adiw r24,3
 4159 0fa0 880F      		lsl r24
 4160 0fa2 991F      		rol r25
 4161 0fa4 880F      		lsl r24
 4162 0fa6 991F      		rol r25
 4163 0fa8 480E      		add r4,r24
 4164 0faa 591E      		adc r5,r25
 4165               	.L318:
 4166 0fac D501      		movw r26,r10
 4167 0fae 1796      		adiw r26,7
 4168 0fb0 2D90      		ld r2,X+
 4169 0fb2 3C90      		ld r3,X
 4170 0fb4 1897      		sbiw r26,7+1
 4171 0fb6 B4E0      		ldi r27,4
 4172 0fb8 4B0E      		add r4,r27
 4173 0fba 511C      		adc r5,__zero_reg__
 4174 0fbc 00C0      		rjmp .L196
 4175               	.L234:
 4176 0fbe F401      		movw r30,r8
 4177 0fc0 8481      		ldd r24,Z+4
 4178 0fc2 9581      		ldd r25,Z+5
 4179 0fc4 0097      		sbiw r24,0
 4180 0fc6 01F0      		breq .L370
 4181 0fc8 0197      		sbiw r24,1
 4182 0fca 01F4      		brne .L371
 4183 0fcc 91E0      		ldi r25,lo8(1)
 4184 0fce 80E0      		ldi r24,0
 4185 0fd0 2081      		ld r18,Z
 4186 0fd2 3181      		ldd r19,Z+1
 4187 0fd4 232B      		or r18,r19
 4188 0fd6 01F0      		breq .L320
 4189 0fd8 90E0      		ldi r25,0
 4190               	.L320:
GAS LISTING /tmp/ccRBarYT.s 			page 75


 4191 0fda 292F      		mov r18,r25
 4192 0fdc 382F      		mov r19,r24
 4193 0fde 00C0      		rjmp .L319
 4194               	.L370:
 4195 0fe0 21E0      		ldi r18,lo8(1)
 4196 0fe2 30E0      		ldi r19,0
 4197 0fe4 00C0      		rjmp .L319
 4198               	.L371:
 4199 0fe6 20E0      		ldi r18,0
 4200 0fe8 30E0      		ldi r19,0
 4201               	.L319:
 4202 0fea 6EE0      		ldi r22,14
 4203               		1:
 4204 0fec F694      		lsr r15
 4205 0fee E794      		ror r14
 4206 0ff0 D794      		ror r13
 4207 0ff2 C794      		ror r12
 4208 0ff4 6A95      		dec r22
 4209 0ff6 01F4      		brne 1b
 4210 0ff8 F1E0      		ldi r31,1
 4211 0ffa DF22      		and r13,r31
 4212 0ffc 2C15      		cp r18,r12
 4213 0ffe 3D05      		cpc r19,r13
 4214 1000 01F0      		breq .+2
 4215 1002 00C0      		rjmp .L473
 4216 1004 00C0      		rjmp .L345
 4217               	.L235:
 4218 1006 D701      		movw r26,r14
 4219 1008 C601      		movw r24,r12
 4220 100a 57E1      		ldi r21,23
 4221               		1:
 4222 100c B695      		lsr r27
 4223 100e A795      		ror r26
 4224 1010 9795      		ror r25
 4225 1012 8795      		ror r24
 4226 1014 5A95      		dec r21
 4227 1016 01F4      		brne 1b
 4228 1018 789E      		mul r7,r24
 4229 101a F001      		movw r30,r0
 4230 101c 799E      		mul r7,r25
 4231 101e F00D      		add r31,r0
 4232 1020 1124      		clr __zero_reg__
 4233 1022 E20D      		add r30,r2
 4234 1024 F31D      		adc r31,r3
 4235 1026 6481      		ldd r22,Z+4
 4236 1028 7581      		ldd r23,Z+5
 4237 102a 6115      		cp r22,__zero_reg__
 4238 102c 7105      		cpc r23,__zero_reg__
 4239 102e 01F0      		breq .L372
 4240 1030 6130      		cpi r22,1
 4241 1032 7105      		cpc r23,__zero_reg__
 4242 1034 01F4      		brne .L373
 4243 1036 51E0      		ldi r21,lo8(1)
 4244 1038 40E0      		ldi r20,0
 4245 103a 8081      		ld r24,Z
 4246 103c 9181      		ldd r25,Z+1
 4247 103e 892B      		or r24,r25
GAS LISTING /tmp/ccRBarYT.s 			page 76


 4248 1040 01F0      		breq .L323
 4249 1042 50E0      		ldi r21,0
 4250               	.L323:
 4251 1044 252F      		mov r18,r21
 4252 1046 342F      		mov r19,r20
 4253 1048 00C0      		rjmp .L322
 4254               	.L372:
 4255 104a 21E0      		ldi r18,lo8(1)
 4256 104c 30E0      		ldi r19,0
 4257 104e 00C0      		rjmp .L322
 4258               	.L373:
 4259 1050 20E0      		ldi r18,0
 4260 1052 30E0      		ldi r19,0
 4261               	.L322:
 4262 1054 4EE0      		ldi r20,14
 4263               		1:
 4264 1056 F694      		lsr r15
 4265 1058 E794      		ror r14
 4266 105a D794      		ror r13
 4267 105c C794      		ror r12
 4268 105e 4A95      		dec r20
 4269 1060 01F4      		brne 1b
 4270 1062 41E0      		ldi r20,1
 4271 1064 D422      		and r13,r20
 4272 1066 2C15      		cp r18,r12
 4273 1068 3D05      		cpc r19,r13
 4274 106a 01F4      		brne .+2
 4275 106c 00C0      		rjmp .L345
 4276 106e 8081      		ld r24,Z
 4277 1070 9181      		ldd r25,Z+1
 4278 1072 A281      		ldd r26,Z+2
 4279 1074 B381      		ldd r27,Z+3
 4280 1076 F401      		movw r30,r8
 4281 1078 8083      		st Z,r24
 4282 107a 9183      		std Z+1,r25
 4283 107c A283      		std Z+2,r26
 4284 107e B383      		std Z+3,r27
 4285 1080 7583      		std Z+5,r23
 4286 1082 6483      		std Z+4,r22
 4287 1084 00C0      		rjmp .L473
 4288               	.L236:
 4289 1086 9701      		movw r18,r14
 4290 1088 8601      		movw r16,r12
 4291 108a 87E1      		ldi r24,23
 4292               		1:
 4293 108c 3695      		lsr r19
 4294 108e 2795      		ror r18
 4295 1090 1795      		ror r17
 4296 1092 0795      		ror r16
 4297 1094 8A95      		dec r24
 4298 1096 01F4      		brne 1b
 4299 1098 9EE0      		ldi r25,14
 4300               		1:
 4301 109a F694      		lsr r15
 4302 109c E794      		ror r14
 4303 109e D794      		ror r13
 4304 10a0 C794      		ror r12
GAS LISTING /tmp/ccRBarYT.s 			page 77


 4305 10a2 9A95      		dec r25
 4306 10a4 01F4      		brne 1b
 4307 10a6 41E0      		ldi r20,1
 4308 10a8 D422      		and r13,r20
 4309 10aa 51E0      		ldi r21,1
 4310 10ac C51A      		sub r12,r21
 4311 10ae D108      		sbc r13,__zero_reg__
 4312 10b0 0115      		cp r16,__zero_reg__
 4313 10b2 1105      		cpc r17,__zero_reg__
 4314 10b4 2105      		cpc r18,__zero_reg__
 4315 10b6 3105      		cpc r19,__zero_reg__
 4316 10b8 01F0      		breq .L325
 4317 10ba 709E      		mul r7,r16
 4318 10bc C001      		movw r24,r0
 4319 10be 719E      		mul r7,r17
 4320 10c0 900D      		add r25,r0
 4321 10c2 1124      		clr __zero_reg__
 4322 10c4 880D      		add r24,r8
 4323 10c6 991D      		adc r25,r9
 4324 10c8 D501      		movw r26,r10
 4325 10ca 1696      		adiw r26,5+1
 4326 10cc 9C93      		st X,r25
 4327 10ce 8E93      		st -X,r24
 4328 10d0 1597      		sbiw r26,5
 4329               	.L325:
 4330 10d2 F501      		movw r30,r10
 4331 10d4 5686      		std Z+14,r5
 4332 10d6 4586      		std Z+13,r4
 4333 10d8 A601      		movw r20,r12
 4334 10da B401      		movw r22,r8
 4335 10dc C501      		movw r24,r10
 4336 10de 0E94 0000 		call luaD_precall
 4337 10e2 0097      		sbiw r24,0
 4338 10e4 01F0      		breq .L326
 4339 10e6 0197      		sbiw r24,1
 4340 10e8 01F0      		breq .L327
 4341 10ea 00C0      		rjmp .L193
 4342               	.L326:
 4343 10ec 2989      		ldd r18,Y+17
 4344 10ee 3A89      		ldd r19,Y+18
 4345 10f0 2F5F      		subi r18,-1
 4346 10f2 3F4F      		sbci r19,-1
 4347 10f4 3A8B      		std Y+18,r19
 4348 10f6 298B      		std Y+17,r18
 4349 10f8 0C94 0000 		jmp .L194
 4350               	.L327:
 4351 10fc CD20      		and r12,r13
 4352 10fe C094      		com r12
 4353 1100 01F4      		brne .+2
 4354 1102 00C0      		rjmp .L356
 4355 1104 D501      		movw r26,r10
 4356 1106 1B96      		adiw r26,11
 4357 1108 ED91      		ld r30,X+
 4358 110a FC91      		ld r31,X
 4359 110c 1C97      		sbiw r26,11+1
 4360 110e 8481      		ldd r24,Z+4
 4361 1110 9581      		ldd r25,Z+5
GAS LISTING /tmp/ccRBarYT.s 			page 78


 4362 1112 1696      		adiw r26,5+1
 4363 1114 9C93      		st X,r25
 4364 1116 8E93      		st -X,r24
 4365 1118 1597      		sbiw r26,5
 4366 111a 00C0      		rjmp .L356
 4367               	.L237:
 4368 111c 17E1      		ldi r17,23
 4369               		1:
 4370 111e F694      		lsr r15
 4371 1120 E794      		ror r14
 4372 1122 D794      		ror r13
 4373 1124 C794      		ror r12
 4374 1126 1A95      		dec r17
 4375 1128 01F4      		brne 1b
 4376 112a C114      		cp r12,__zero_reg__
 4377 112c D104      		cpc r13,__zero_reg__
 4378 112e E104      		cpc r14,__zero_reg__
 4379 1130 F104      		cpc r15,__zero_reg__
 4380 1132 01F0      		breq .L330
 4381 1134 7C9C      		mul r7,r12
 4382 1136 9001      		movw r18,r0
 4383 1138 7D9C      		mul r7,r13
 4384 113a 300D      		add r19,r0
 4385 113c 1124      		clr __zero_reg__
 4386 113e C401      		movw r24,r8
 4387 1140 820F      		add r24,r18
 4388 1142 931F      		adc r25,r19
 4389 1144 D501      		movw r26,r10
 4390 1146 1696      		adiw r26,5+1
 4391 1148 9C93      		st X,r25
 4392 114a 8E93      		st -X,r24
 4393 114c 1597      		sbiw r26,5
 4394               	.L330:
 4395 114e F501      		movw r30,r10
 4396 1150 5686      		std Z+14,r5
 4397 1152 4586      		std Z+13,r4
 4398 1154 4FEF      		ldi r20,lo8(-1)
 4399 1156 5FEF      		ldi r21,lo8(-1)
 4400 1158 B401      		movw r22,r8
 4401 115a C501      		movw r24,r10
 4402 115c 0E94 0000 		call luaD_precall
 4403 1160 0097      		sbiw r24,0
 4404 1162 01F0      		breq .L331
 4405 1164 0197      		sbiw r24,1
 4406 1166 01F4      		brne .+2
 4407 1168 00C0      		rjmp .L332
 4408 116a 00C0      		rjmp .L193
 4409               	.L331:
 4410 116c D501      		movw r26,r10
 4411 116e 1B96      		adiw r26,11
 4412 1170 8D90      		ld r8,X+
 4413 1172 9C90      		ld r9,X
 4414 1174 1C97      		sbiw r26,11+1
 4415 1176 8401      		movw r16,r8
 4416 1178 0C50      		subi r16,12
 4417 117a 1109      		sbc r17,__zero_reg__
 4418 117c F801      		movw r30,r16
GAS LISTING /tmp/ccRBarYT.s 			page 79


 4419 117e C280      		ldd r12,Z+2
 4420 1180 D380      		ldd r13,Z+3
 4421 1182 D401      		movw r26,r8
 4422 1184 1296      		adiw r26,2
 4423 1186 ED90      		ld r14,X+
 4424 1188 FC90      		ld r15,X
 4425 118a 1397      		sbiw r26,2+1
 4426 118c F501      		movw r30,r10
 4427 118e 83A9      		ldd r24,Z+51
 4428 1190 94A9      		ldd r25,Z+52
 4429 1192 892B      		or r24,r25
 4430 1194 01F0      		breq .L333
 4431 1196 D801      		movw r26,r16
 4432 1198 6D91      		ld r22,X+
 4433 119a 7C91      		ld r23,X
 4434 119c C501      		movw r24,r10
 4435 119e 0E94 0000 		call luaF_close
 4436               	.L333:
 4437 11a2 F401      		movw r30,r8
 4438 11a4 8081      		ld r24,Z
 4439 11a6 9181      		ldd r25,Z+1
 4440 11a8 8E19      		sub r24,r14
 4441 11aa 9F09      		sbc r25,r15
 4442 11ac D801      		movw r26,r16
 4443 11ae 1296      		adiw r26,2
 4444 11b0 2D91      		ld r18,X+
 4445 11b2 3C91      		ld r19,X
 4446 11b4 1397      		sbiw r26,2+1
 4447 11b6 820F      		add r24,r18
 4448 11b8 931F      		adc r25,r19
 4449 11ba 8D93      		st X+,r24
 4450 11bc 9C93      		st X,r25
 4451 11be F501      		movw r30,r10
 4452 11c0 9087      		std Z+8,r25
 4453 11c2 8783      		std Z+7,r24
 4454 11c4 4601      		movw r8,r12
 4455 11c6 F4E0      		ldi r31,4
 4456 11c8 8F0E      		add r8,r31
 4457 11ca 911C      		adc r9,__zero_reg__
 4458 11cc F701      		movw r30,r14
 4459               	.L334:
 4460 11ce CF01      		movw r24,r30
 4461 11d0 8E19      		sub r24,r14
 4462 11d2 9F09      		sbc r25,r15
 4463 11d4 D501      		movw r26,r10
 4464 11d6 1596      		adiw r26,5
 4465 11d8 2D91      		ld r18,X+
 4466 11da 3C91      		ld r19,X
 4467 11dc 1697      		sbiw r26,5+1
 4468 11de E217      		cp r30,r18
 4469 11e0 F307      		cpc r31,r19
 4470 11e2 00F4      		brsh .L482
 4471 11e4 C401      		movw r24,r8
 4472 11e6 0497      		sbiw r24,4
 4473 11e8 4081      		ld r20,Z
 4474 11ea 5181      		ldd r21,Z+1
 4475 11ec 6281      		ldd r22,Z+2
GAS LISTING /tmp/ccRBarYT.s 			page 80


 4476 11ee 7381      		ldd r23,Z+3
 4477 11f0 DC01      		movw r26,r24
 4478 11f2 4D93      		st X+,r20
 4479 11f4 5D93      		st X+,r21
 4480 11f6 6D93      		st X+,r22
 4481 11f8 7C93      		st X,r23
 4482 11fa 1397      		sbiw r26,3
 4483 11fc 8481      		ldd r24,Z+4
 4484 11fe 9581      		ldd r25,Z+5
 4485 1200 D401      		movw r26,r8
 4486 1202 8D93      		st X+,r24
 4487 1204 9C93      		st X,r25
 4488 1206 3696      		adiw r30,6
 4489 1208 B6E0      		ldi r27,6
 4490 120a 8B0E      		add r8,r27
 4491 120c 911C      		adc r9,__zero_reg__
 4492 120e 00C0      		rjmp .L334
 4493               	.L482:
 4494 1210 8C0D      		add r24,r12
 4495 1212 9D1D      		adc r25,r13
 4496 1214 1696      		adiw r26,5+1
 4497 1216 9C93      		st X,r25
 4498 1218 8E93      		st -X,r24
 4499 121a 1597      		sbiw r26,5
 4500 121c F801      		movw r30,r16
 4501 121e 9583      		std Z+5,r25
 4502 1220 8483      		std Z+4,r24
 4503 1222 1D96      		adiw r26,13
 4504 1224 8D91      		ld r24,X+
 4505 1226 9C91      		ld r25,X
 4506 1228 1E97      		sbiw r26,13+1
 4507 122a 9783      		std Z+7,r25
 4508 122c 8683      		std Z+6,r24
 4509 122e 8285      		ldd r24,Z+10
 4510 1230 9385      		ldd r25,Z+11
 4511 1232 0196      		adiw r24,1
 4512 1234 9387      		std Z+11,r25
 4513 1236 8287      		std Z+10,r24
 4514 1238 1B96      		adiw r26,11
 4515 123a 8D91      		ld r24,X+
 4516 123c 9C91      		ld r25,X
 4517 123e 1C97      		sbiw r26,11+1
 4518 1240 0C97      		sbiw r24,12
 4519 1242 1C96      		adiw r26,11+1
 4520 1244 9C93      		st X,r25
 4521 1246 8E93      		st -X,r24
 4522 1248 1B97      		sbiw r26,11
 4523 124a 0C94 0000 		jmp .L194
 4524               	.L332:
 4525 124e D501      		movw r26,r10
 4526 1250 1796      		adiw r26,7
 4527 1252 2D90      		ld r2,X+
 4528 1254 3C90      		ld r3,X
 4529 1256 1897      		sbiw r26,7+1
 4530 1258 0C94 0000 		jmp .L196
 4531               	.L238:
 4532 125c B7E1      		ldi r27,23
GAS LISTING /tmp/ccRBarYT.s 			page 81


 4533               		1:
 4534 125e F694      		lsr r15
 4535 1260 E794      		ror r14
 4536 1262 D794      		ror r13
 4537 1264 C794      		ror r12
 4538 1266 BA95      		dec r27
 4539 1268 01F4      		brne 1b
 4540 126a C114      		cp r12,__zero_reg__
 4541 126c D104      		cpc r13,__zero_reg__
 4542 126e E104      		cpc r14,__zero_reg__
 4543 1270 F104      		cpc r15,__zero_reg__
 4544 1272 01F0      		breq .L336
 4545 1274 86E0      		ldi r24,lo8(6)
 4546 1276 8C9D      		mul r24,r12
 4547 1278 9001      		movw r18,r0
 4548 127a 8D9D      		mul r24,r13
 4549 127c 300D      		add r19,r0
 4550 127e 1124      		clr __zero_reg__
 4551 1280 C901      		movw r24,r18
 4552 1282 0697      		sbiw r24,6
 4553 1284 880D      		add r24,r8
 4554 1286 991D      		adc r25,r9
 4555 1288 F501      		movw r30,r10
 4556 128a 9683      		std Z+6,r25
 4557 128c 8583      		std Z+5,r24
 4558               	.L336:
 4559 128e D501      		movw r26,r10
 4560 1290 D396      		adiw r26,51
 4561 1292 8D91      		ld r24,X+
 4562 1294 9C91      		ld r25,X
 4563 1296 D497      		sbiw r26,51+1
 4564 1298 892B      		or r24,r25
 4565 129a 01F0      		breq .L337
 4566 129c B101      		movw r22,r2
 4567 129e C501      		movw r24,r10
 4568 12a0 0E94 0000 		call luaF_close
 4569               	.L337:
 4570 12a4 F501      		movw r30,r10
 4571 12a6 5686      		std Z+14,r5
 4572 12a8 4586      		std Z+13,r4
 4573 12aa B401      		movw r22,r8
 4574 12ac C501      		movw r24,r10
 4575 12ae 0E94 0000 		call luaD_poscall
 4576 12b2 2989      		ldd r18,Y+17
 4577 12b4 3A89      		ldd r19,Y+18
 4578 12b6 2150      		subi r18,1
 4579 12b8 3109      		sbc r19,__zero_reg__
 4580 12ba 3A8B      		std Y+18,r19
 4581 12bc 298B      		std Y+17,r18
 4582 12be 232B      		or r18,r19
 4583 12c0 01F4      		brne .+2
 4584 12c2 00C0      		rjmp .L193
 4585 12c4 892B      		or r24,r25
 4586 12c6 01F4      		brne .+4
 4587 12c8 0C94 0000 		jmp .L194
 4588 12cc D501      		movw r26,r10
 4589 12ce 1B96      		adiw r26,11
GAS LISTING /tmp/ccRBarYT.s 			page 82


 4590 12d0 ED91      		ld r30,X+
 4591 12d2 FC91      		ld r31,X
 4592 12d4 1C97      		sbiw r26,11+1
 4593 12d6 8481      		ldd r24,Z+4
 4594 12d8 9581      		ldd r25,Z+5
 4595 12da 1696      		adiw r26,5+1
 4596 12dc 9C93      		st X,r25
 4597 12de 8E93      		st -X,r24
 4598 12e0 1597      		sbiw r26,5
 4599 12e2 0C94 0000 		jmp .L194
 4600               	.L239:
 4601 12e6 F401      		movw r30,r8
 4602 12e8 4485      		ldd r20,Z+12
 4603 12ea 5585      		ldd r21,Z+13
 4604 12ec 6685      		ldd r22,Z+14
 4605 12ee 7785      		ldd r23,Z+15
 4606 12f0 0081      		ld r16,Z
 4607 12f2 1181      		ldd r17,Z+1
 4608 12f4 2281      		ldd r18,Z+2
 4609 12f6 3381      		ldd r19,Z+3
 4610 12f8 040F      		add r16,r20
 4611 12fa 151F      		adc r17,r21
 4612 12fc 261F      		adc r18,r22
 4613 12fe 371F      		adc r19,r23
 4614 1300 8681      		ldd r24,Z+6
 4615 1302 9781      		ldd r25,Z+7
 4616 1304 A085      		ldd r26,Z+8
 4617 1306 B185      		ldd r27,Z+9
 4618 1308 1416      		cp __zero_reg__,r20
 4619 130a 1506      		cpc __zero_reg__,r21
 4620 130c 1606      		cpc __zero_reg__,r22
 4621 130e 1706      		cpc __zero_reg__,r23
 4622 1310 04F4      		brge .L338
 4623 1312 8017      		cp r24,r16
 4624 1314 9107      		cpc r25,r17
 4625 1316 A207      		cpc r26,r18
 4626 1318 B307      		cpc r27,r19
 4627 131a 04F4      		brge .L402
 4628 131c 0C94 0000 		jmp .L196
 4629               	.L338:
 4630 1320 0817      		cp r16,r24
 4631 1322 1907      		cpc r17,r25
 4632 1324 2A07      		cpc r18,r26
 4633 1326 3B07      		cpc r19,r27
 4634 1328 04F4      		brge .+4
 4635 132a 0C94 0000 		jmp .L196
 4636               	.L402:
 4637 132e FEE0      		ldi r31,14
 4638               		1:
 4639 1330 F694      		lsr r15
 4640 1332 E794      		ror r14
 4641 1334 D794      		ror r13
 4642 1336 C794      		ror r12
 4643 1338 FA95      		dec r31
 4644 133a 01F4      		brne 1b
 4645 133c F3E0      		ldi r31,3
 4646 133e CF0E      		add r12,r31
GAS LISTING /tmp/ccRBarYT.s 			page 83


 4647 1340 D11C      		adc r13,__zero_reg__
 4648 1342 CC0C      		lsl r12
 4649 1344 DD1C      		rol r13
 4650 1346 CC0C      		lsl r12
 4651 1348 DD1C      		rol r13
 4652 134a 4C0C      		add r4,r12
 4653 134c 5D1C      		adc r5,r13
 4654 134e D401      		movw r26,r8
 4655 1350 0D93      		st X+,r16
 4656 1352 1D93      		st X+,r17
 4657 1354 2D93      		st X+,r18
 4658 1356 3C93      		st X,r19
 4659 1358 1397      		sbiw r26,3
 4660 135a E5E0      		ldi r30,lo8(5)
 4661 135c F0E0      		ldi r31,0
 4662 135e 1596      		adiw r26,4+1
 4663 1360 FC93      		st X,r31
 4664 1362 EE93      		st -X,r30
 4665 1364 1497      		sbiw r26,4
 4666 1366 5296      		adiw r26,18
 4667 1368 0D93      		st X+,r16
 4668 136a 1D93      		st X+,r17
 4669 136c 2D93      		st X+,r18
 4670 136e 3C93      		st X,r19
 4671 1370 5597      		sbiw r26,18+3
 4672 1372 5796      		adiw r26,22+1
 4673 1374 FC93      		st X,r31
 4674 1376 EE93      		st -X,r30
 4675 1378 5697      		sbiw r26,22
 4676 137a 0C94 0000 		jmp .L196
 4677               	.L240:
 4678 137e 8401      		movw r16,r8
 4679 1380 045F      		subi r16,-12
 4680 1382 1F4F      		sbci r17,-1
 4681 1384 F501      		movw r30,r10
 4682 1386 5686      		std Z+14,r5
 4683 1388 4586      		std Z+13,r4
 4684 138a D401      		movw r26,r8
 4685 138c 1496      		adiw r26,4
 4686 138e 8D91      		ld r24,X+
 4687 1390 9C91      		ld r25,X
 4688 1392 1597      		sbiw r26,4+1
 4689 1394 0597      		sbiw r24,5
 4690 1396 01F0      		breq .L342
 4691 1398 B401      		movw r22,r8
 4692 139a C401      		movw r24,r8
 4693 139c 0E94 0000 		call luaV_tonumber
 4694 13a0 892B      		or r24,r25
 4695 13a2 01F4      		brne .L342
 4696 13a4 A0E0      		ldi r26,lo8(.LC6)
 4697 13a6 B0E0      		ldi r27,hi8(.LC6)
 4698 13a8 00C0      		rjmp .L472
 4699               	.L342:
 4700 13aa D401      		movw r26,r8
 4701 13ac 1A96      		adiw r26,10
 4702 13ae 8D91      		ld r24,X+
 4703 13b0 9C91      		ld r25,X
GAS LISTING /tmp/ccRBarYT.s 			page 84


 4704 13b2 1B97      		sbiw r26,10+1
 4705 13b4 0597      		sbiw r24,5
 4706 13b6 01F0      		breq .L344
 4707 13b8 C401      		movw r24,r8
 4708 13ba 0696      		adiw r24,6
 4709 13bc BC01      		movw r22,r24
 4710 13be 0E94 0000 		call luaV_tonumber
 4711 13c2 892B      		or r24,r25
 4712 13c4 01F4      		brne .L344
 4713 13c6 A0E0      		ldi r26,lo8(.LC7)
 4714 13c8 B0E0      		ldi r27,hi8(.LC7)
 4715 13ca 00C0      		rjmp .L472
 4716               	.L344:
 4717 13cc D401      		movw r26,r8
 4718 13ce 5096      		adiw r26,16
 4719 13d0 8D91      		ld r24,X+
 4720 13d2 9C91      		ld r25,X
 4721 13d4 5197      		sbiw r26,16+1
 4722 13d6 0597      		sbiw r24,5
 4723 13d8 01F0      		breq .L343
 4724 13da B801      		movw r22,r16
 4725 13dc C801      		movw r24,r16
 4726 13de 0E94 0000 		call luaV_tonumber
 4727 13e2 8C01      		movw r16,r24
 4728 13e4 892B      		or r24,r25
 4729 13e6 01F4      		brne .L343
 4730 13e8 A0E0      		ldi r26,lo8(.LC8)
 4731 13ea B0E0      		ldi r27,hi8(.LC8)
 4732               	.L472:
 4733 13ec BF93      		push r27
 4734 13ee AF93      		push r26
 4735 13f0 BF92      		push r11
 4736 13f2 AF92      		push r10
 4737 13f4 0E94 0000 		call luaG_runerror
 4738 13f8 0F90      		pop __tmp_reg__
 4739 13fa 0F90      		pop __tmp_reg__
 4740 13fc 0F90      		pop __tmp_reg__
 4741 13fe 0F90      		pop __tmp_reg__
 4742               	.L343:
 4743 1400 F401      		movw r30,r8
 4744 1402 8081      		ld r24,Z
 4745 1404 9181      		ldd r25,Z+1
 4746 1406 A281      		ldd r26,Z+2
 4747 1408 B381      		ldd r27,Z+3
 4748 140a F801      		movw r30,r16
 4749 140c 4081      		ld r20,Z
 4750 140e 5181      		ldd r21,Z+1
 4751 1410 6281      		ldd r22,Z+2
 4752 1412 7381      		ldd r23,Z+3
 4753 1414 841B      		sub r24,r20
 4754 1416 950B      		sbc r25,r21
 4755 1418 A60B      		sbc r26,r22
 4756 141a B70B      		sbc r27,r23
 4757 141c F401      		movw r30,r8
 4758 141e 8083      		st Z,r24
 4759 1420 9183      		std Z+1,r25
 4760 1422 A283      		std Z+2,r26
GAS LISTING /tmp/ccRBarYT.s 			page 85


 4761 1424 B383      		std Z+3,r27
 4762 1426 25E0      		ldi r18,lo8(5)
 4763 1428 30E0      		ldi r19,0
 4764 142a 3583      		std Z+5,r19
 4765 142c 2483      		std Z+4,r18
 4766               	.L460:
 4767 142e 7EE0      		ldi r23,14
 4768               		1:
 4769 1430 F694      		lsr r15
 4770 1432 E794      		ror r14
 4771 1434 D794      		ror r13
 4772 1436 C794      		ror r12
 4773 1438 7A95      		dec r23
 4774 143a 01F4      		brne 1b
 4775 143c 33E0      		ldi r19,3
 4776 143e C30E      		add r12,r19
 4777 1440 D11C      		adc r13,__zero_reg__
 4778 1442 CC0C      		lsl r12
 4779 1444 DD1C      		rol r13
 4780 1446 CC0C      		lsl r12
 4781 1448 DD1C      		rol r13
 4782 144a 4C0C      		add r4,r12
 4783 144c 5D1C      		adc r5,r13
 4784 144e 0C94 0000 		jmp .L196
 4785               	.L241:
 4786 1452 F401      		movw r30,r8
 4787 1454 8485      		ldd r24,Z+12
 4788 1456 9585      		ldd r25,Z+13
 4789 1458 A685      		ldd r26,Z+14
 4790 145a B785      		ldd r27,Z+15
 4791 145c 868F      		std Z+30,r24
 4792 145e 978F      		std Z+31,r25
 4793 1460 A0A3      		std Z+32,r26
 4794 1462 B1A3      		std Z+33,r27
 4795 1464 8089      		ldd r24,Z+16
 4796 1466 9189      		ldd r25,Z+17
 4797 1468 93A3      		std Z+35,r25
 4798 146a 82A3      		std Z+34,r24
 4799 146c 8681      		ldd r24,Z+6
 4800 146e 9781      		ldd r25,Z+7
 4801 1470 A085      		ldd r26,Z+8
 4802 1472 B185      		ldd r27,Z+9
 4803 1474 808F      		std Z+24,r24
 4804 1476 918F      		std Z+25,r25
 4805 1478 A28F      		std Z+26,r26
 4806 147a B38F      		std Z+27,r27
 4807 147c 8285      		ldd r24,Z+10
 4808 147e 9385      		ldd r25,Z+11
 4809 1480 958F      		std Z+29,r25
 4810 1482 848F      		std Z+28,r24
 4811 1484 8081      		ld r24,Z
 4812 1486 9181      		ldd r25,Z+1
 4813 1488 A281      		ldd r26,Z+2
 4814 148a B381      		ldd r27,Z+3
 4815 148c 828B      		std Z+18,r24
 4816 148e 938B      		std Z+19,r25
 4817 1490 A48B      		std Z+20,r26
GAS LISTING /tmp/ccRBarYT.s 			page 86


 4818 1492 B58B      		std Z+21,r27
 4819 1494 8481      		ldd r24,Z+4
 4820 1496 9581      		ldd r25,Z+5
 4821 1498 978B      		std Z+23,r25
 4822 149a 868B      		std Z+22,r24
 4823 149c C401      		movw r24,r8
 4824 149e 8496      		adiw r24,36
 4825 14a0 D501      		movw r26,r10
 4826 14a2 1696      		adiw r26,5+1
 4827 14a4 9C93      		st X,r25
 4828 14a6 8E93      		st -X,r24
 4829 14a8 1597      		sbiw r26,5
 4830 14aa 1E96      		adiw r26,13+1
 4831 14ac 5C92      		st X,r5
 4832 14ae 4E92      		st -X,r4
 4833 14b0 1D97      		sbiw r26,13
 4834 14b2 6EE0      		ldi r22,14
 4835               		1:
 4836 14b4 F694      		lsr r15
 4837 14b6 E794      		ror r14
 4838 14b8 D794      		ror r13
 4839 14ba C794      		ror r12
 4840 14bc 6A95      		dec r22
 4841 14be 01F4      		brne 1b
 4842 14c0 A601      		movw r20,r12
 4843 14c2 5170      		andi r21,1
 4844 14c4 B401      		movw r22,r8
 4845 14c6 6E5E      		subi r22,-18
 4846 14c8 7F4F      		sbci r23,-1
 4847 14ca C501      		movw r24,r10
 4848 14cc 0E94 0000 		call luaD_call
 4849 14d0 F501      		movw r30,r10
 4850 14d2 2780      		ldd r2,Z+7
 4851 14d4 3084      		ldd r3,Z+8
 4852 14d6 0384      		ldd __tmp_reg__,Z+11
 4853 14d8 F485      		ldd r31,Z+12
 4854 14da E02D      		mov r30,__tmp_reg__
 4855 14dc 8481      		ldd r24,Z+4
 4856 14de 9581      		ldd r25,Z+5
 4857 14e0 D501      		movw r26,r10
 4858 14e2 1696      		adiw r26,5+1
 4859 14e4 9C93      		st X,r25
 4860 14e6 8E93      		st -X,r24
 4861 14e8 1597      		sbiw r26,5
 4862 14ea 0E5E      		subi r16,-18
 4863 14ec 1F4F      		sbci r17,-1
 4864 14ee F101      		movw r30,r2
 4865 14f0 E00F      		add r30,r16
 4866 14f2 F11F      		adc r31,r17
 4867 14f4 8481      		ldd r24,Z+4
 4868 14f6 9581      		ldd r25,Z+5
 4869 14f8 0097      		sbiw r24,0
 4870 14fa 01F0      		breq .L345
 4871 14fc DF01      		movw r26,r30
 4872 14fe 1697      		sbiw r26,6
 4873 1500 4081      		ld r20,Z
 4874 1502 5181      		ldd r21,Z+1
GAS LISTING /tmp/ccRBarYT.s 			page 87


 4875 1504 6281      		ldd r22,Z+2
 4876 1506 7381      		ldd r23,Z+3
 4877 1508 4D93      		st X+,r20
 4878 150a 5D93      		st X+,r21
 4879 150c 6D93      		st X+,r22
 4880 150e 7C93      		st X,r23
 4881 1510 1397      		sbiw r26,3
 4882 1512 1596      		adiw r26,4+1
 4883 1514 9C93      		st X,r25
 4884 1516 8E93      		st -X,r24
 4885 1518 1497      		sbiw r26,4
 4886               	.L473:
 4887 151a EF81      		ldd r30,Y+7
 4888 151c F885      		ldd r31,Y+8
 4889 151e 8481      		ldd r24,Z+4
 4890 1520 9581      		ldd r25,Z+5
 4891 1522 A681      		ldd r26,Z+6
 4892 1524 B781      		ldd r27,Z+7
 4893 1526 4EE0      		ldi r20,14
 4894               		1:
 4895 1528 B695      		lsr r27
 4896 152a A795      		ror r26
 4897 152c 9795      		ror r25
 4898 152e 8795      		ror r24
 4899 1530 4A95      		dec r20
 4900 1532 01F4      		brne 1b
 4901 1534 0396      		adiw r24,3
 4902 1536 880F      		lsl r24
 4903 1538 991F      		rol r25
 4904 153a 880F      		lsl r24
 4905 153c 991F      		rol r25
 4906 153e 480E      		add r4,r24
 4907 1540 591E      		adc r5,r25
 4908               	.L345:
 4909 1542 F4E0      		ldi r31,4
 4910 1544 4F0E      		add r4,r31
 4911 1546 511C      		adc r5,__zero_reg__
 4912 1548 0C94 0000 		jmp .L196
 4913               	.L242:
 4914 154c D701      		movw r26,r14
 4915 154e C601      		movw r24,r12
 4916 1550 27E1      		ldi r18,23
 4917               		1:
 4918 1552 B695      		lsr r27
 4919 1554 A795      		ror r26
 4920 1556 9795      		ror r25
 4921 1558 8795      		ror r24
 4922 155a 2A95      		dec r18
 4923 155c 01F4      		brne 1b
 4924 155e 8C01      		movw r16,r24
 4925 1560 3EE0      		ldi r19,14
 4926               		1:
 4927 1562 F694      		lsr r15
 4928 1564 E794      		ror r14
 4929 1566 D794      		ror r13
 4930 1568 C794      		ror r12
 4931 156a 3A95      		dec r19
GAS LISTING /tmp/ccRBarYT.s 			page 88


 4932 156c 01F4      		brne 1b
 4933 156e 21E0      		ldi r18,1
 4934 1570 D222      		and r13,r18
 4935 1572 892B      		or r24,r25
 4936 1574 8A2B      		or r24,r26
 4937 1576 8B2B      		or r24,r27
 4938 1578 01F4      		brne .L346
 4939 157a D501      		movw r26,r10
 4940 157c 1596      		adiw r26,5
 4941 157e 8D91      		ld r24,X+
 4942 1580 9C91      		ld r25,X
 4943 1582 1697      		sbiw r26,5+1
 4944 1584 8819      		sub r24,r8
 4945 1586 9909      		sbc r25,r9
 4946 1588 9595      		asr r25
 4947 158a 8795      		ror r24
 4948 158c EBEA      		ldi r30,lo8(-85)
 4949 158e FAEA      		ldi r31,lo8(-86)
 4950 1590 8E9F      		mul r24,r30
 4951 1592 8001      		movw r16,r0
 4952 1594 8F9F      		mul r24,r31
 4953 1596 100D      		add r17,r0
 4954 1598 9E9F      		mul r25,r30
 4955 159a 100D      		add r17,r0
 4956 159c 1124      		clr r1
 4957 159e 0150      		subi r16,1
 4958 15a0 1109      		sbc r17,__zero_reg__
 4959 15a2 1B96      		adiw r26,11
 4960 15a4 ED91      		ld r30,X+
 4961 15a6 FC91      		ld r31,X
 4962 15a8 1C97      		sbiw r26,11+1
 4963 15aa 8481      		ldd r24,Z+4
 4964 15ac 9581      		ldd r25,Z+5
 4965 15ae 1696      		adiw r26,5+1
 4966 15b0 9C93      		st X,r25
 4967 15b2 8E93      		st -X,r24
 4968 15b4 1597      		sbiw r26,5
 4969               	.L346:
 4970 15b6 C114      		cp r12,__zero_reg__
 4971 15b8 D104      		cpc r13,__zero_reg__
 4972 15ba 01F4      		brne .L347
 4973 15bc 4F80      		ldd r4,Y+7
 4974 15be 5884      		ldd r5,Y+8
 4975 15c0 F8E0      		ldi r31,8
 4976 15c2 4F0E      		add r4,r31
 4977 15c4 511C      		adc r5,__zero_reg__
 4978 15c6 AF81      		ldd r26,Y+7
 4979 15c8 B885      		ldd r27,Y+8
 4980 15ca 1496      		adiw r26,4
 4981 15cc CD90      		ld r12,X+
 4982 15ce DC90      		ld r13,X
 4983 15d0 1597      		sbiw r26,4+1
 4984               	.L347:
 4985 15d2 F401      		movw r30,r8
 4986 15d4 8481      		ldd r24,Z+4
 4987 15d6 9581      		ldd r25,Z+5
 4988 15d8 0797      		sbiw r24,7
GAS LISTING /tmp/ccRBarYT.s 			page 89


 4989 15da 01F0      		breq .+4
 4990 15dc 0C94 0000 		jmp .L196
 4991 15e0 E080      		ld r14,Z
 4992 15e2 F180      		ldd r15,Z+1
 4993 15e4 C601      		movw r24,r12
 4994 15e6 0197      		sbiw r24,1
 4995 15e8 689E      		mul r6,r24
 4996 15ea 6001      		movw r12,r0
 4997 15ec 699E      		mul r6,r25
 4998 15ee D00C      		add r13,r0
 4999 15f0 1124      		clr __zero_reg__
 5000 15f2 A801      		movw r20,r16
 5001 15f4 4C0D      		add r20,r12
 5002 15f6 5D1D      		adc r21,r13
 5003 15f8 D701      		movw r26,r14
 5004 15fa 5096      		adiw r26,16
 5005 15fc 8D91      		ld r24,X+
 5006 15fe 9C91      		ld r25,X
 5007 1600 5197      		sbiw r26,16+1
 5008 1602 8417      		cp r24,r20
 5009 1604 9507      		cpc r25,r21
 5010 1606 04F4      		brge .L348
 5011 1608 B701      		movw r22,r14
 5012 160a C501      		movw r24,r10
 5013 160c 0E94 0000 		call luaH_resizearray
 5014               	.L348:
 5015 1610 709E      		mul r7,r16
 5016 1612 B001      		movw r22,r0
 5017 1614 719E      		mul r7,r17
 5018 1616 700D      		add r23,r0
 5019 1618 1124      		clr __zero_reg__
 5020 161a 6C5F      		subi r22,-4
 5021 161c 7F4F      		sbci r23,-1
 5022 161e 860E      		add r8,r22
 5023 1620 971E      		adc r9,r23
 5024               	.L349:
 5025 1622 A801      		movw r20,r16
 5026 1624 4C0D      		add r20,r12
 5027 1626 5D1D      		adc r21,r13
 5028 1628 1016      		cp __zero_reg__,r16
 5029 162a 1106      		cpc __zero_reg__,r17
 5030 162c 04F0      		brlt .+4
 5031 162e 0C94 0000 		jmp .L196
 5032 1632 B701      		movw r22,r14
 5033 1634 C501      		movw r24,r10
 5034 1636 0E94 0000 		call luaH_setnum
 5035 163a F401      		movw r30,r8
 5036 163c 7291      		ld r23,-Z
 5037 163e 6291      		ld r22,-Z
 5038 1640 5291      		ld r21,-Z
 5039 1642 4291      		ld r20,-Z
 5040 1644 DC01      		movw r26,r24
 5041 1646 4D93      		st X+,r20
 5042 1648 5D93      		st X+,r21
 5043 164a 6D93      		st X+,r22
 5044 164c 7C93      		st X,r23
 5045 164e 1397      		sbiw r26,3
GAS LISTING /tmp/ccRBarYT.s 			page 90


 5046 1650 D401      		movw r26,r8
 5047 1652 2D91      		ld r18,X+
 5048 1654 3C91      		ld r19,X
 5049 1656 DC01      		movw r26,r24
 5050 1658 1596      		adiw r26,4+1
 5051 165a 3C93      		st X,r19
 5052 165c 2E93      		st -X,r18
 5053 165e 1497      		sbiw r26,4
 5054 1660 D401      		movw r26,r8
 5055 1662 8D91      		ld r24,X+
 5056 1664 9C91      		ld r25,X
 5057 1666 0697      		sbiw r24,6
 5058 1668 04F0      		brlt .L350
 5059 166a 0190      		ld __tmp_reg__,Z+
 5060 166c F081      		ld r31,Z
 5061 166e E02D      		mov r30,__tmp_reg__
 5062 1670 8381      		ldd r24,Z+3
 5063 1672 8370      		andi r24,lo8(3)
 5064 1674 01F0      		breq .L350
 5065 1676 F701      		movw r30,r14
 5066 1678 8381      		ldd r24,Z+3
 5067 167a 82FF      		sbrs r24,2
 5068 167c 00C0      		rjmp .L350
 5069 167e B701      		movw r22,r14
 5070 1680 C501      		movw r24,r10
 5071 1682 0E94 0000 		call luaC_barrierback
 5072               	.L350:
 5073 1686 0150      		subi r16,1
 5074 1688 1109      		sbc r17,__zero_reg__
 5075 168a F6E0      		ldi r31,6
 5076 168c 8F1A      		sub r8,r31
 5077 168e 9108      		sbc r9,__zero_reg__
 5078 1690 00C0      		rjmp .L349
 5079               	.L243:
 5080 1692 B401      		movw r22,r8
 5081 1694 C501      		movw r24,r10
 5082 1696 0E94 0000 		call luaF_close
 5083 169a 0C94 0000 		jmp .L196
 5084               	.L244:
 5085 169e AD85      		ldd r26,Y+13
 5086 16a0 BE85      		ldd r27,Y+14
 5087 16a2 1A96      		adiw r26,10
 5088 16a4 ED91      		ld r30,X+
 5089 16a6 FC91      		ld r31,X
 5090 16a8 1B97      		sbiw r26,10+1
 5091 16aa 7EE0      		ldi r23,14
 5092               		1:
 5093 16ac F694      		lsr r15
 5094 16ae E794      		ror r14
 5095 16b0 D794      		ror r13
 5096 16b2 C794      		ror r12
 5097 16b4 7A95      		dec r23
 5098 16b6 01F4      		brne 1b
 5099 16b8 CC0C      		lsl r12
 5100 16ba DD1C      		rol r13
 5101 16bc 8085      		ldd r24,Z+8
 5102 16be 9185      		ldd r25,Z+9
GAS LISTING /tmp/ccRBarYT.s 			page 91


 5103 16c0 FC01      		movw r30,r24
 5104 16c2 EC0D      		add r30,r12
 5105 16c4 FD1D      		adc r31,r13
 5106 16c6 E080      		ld r14,Z
 5107 16c8 F180      		ldd r15,Z+1
 5108 16ca F701      		movw r30,r14
 5109 16cc 04A1      		ldd r16,Z+36
 5110 16ce 10E0      		ldi r17,0
 5111 16d0 1896      		adiw r26,8
 5112 16d2 4D91      		ld r20,X+
 5113 16d4 5C91      		ld r21,X
 5114 16d6 1997      		sbiw r26,8+1
 5115 16d8 B801      		movw r22,r16
 5116 16da C501      		movw r24,r10
 5117 16dc 0E94 0000 		call luaF_newLclosure
 5118 16e0 6C01      		movw r12,r24
 5119 16e2 DC01      		movw r26,r24
 5120 16e4 1B96      		adiw r26,10+1
 5121 16e6 FC92      		st X,r15
 5122 16e8 EE92      		st -X,r14
 5123 16ea 1A97      		sbiw r26,10
 5124 16ec 7C01      		movw r14,r24
 5125 16ee BCE0      		ldi r27,12
 5126 16f0 EB0E      		add r14,r27
 5127 16f2 F11C      		adc r15,__zero_reg__
 5128 16f4 5886      		std Y+8,r5
 5129 16f6 4F82      		std Y+7,r4
 5130 16f8 20E0      		ldi r18,0
 5131 16fa 30E0      		ldi r19,0
 5132               	.L352:
 5133 16fc 2017      		cp r18,r16
 5134 16fe 3107      		cpc r19,r17
 5135 1700 04F4      		brge .L483
 5136 1702 EF81      		ldd r30,Y+7
 5137 1704 F885      		ldd r31,Y+8
 5138 1706 8191      		ld r24,Z+
 5139 1708 9191      		ld r25,Z+
 5140 170a A191      		ld r26,Z+
 5141 170c B191      		ld r27,Z+
 5142 170e F887      		std Y+8,r31
 5143 1710 EF83      		std Y+7,r30
 5144 1712 AC01      		movw r20,r24
 5145 1714 4F73      		andi r20,63
 5146 1716 5527      		clr r21
 5147 1718 67E1      		ldi r22,23
 5148               		1:
 5149 171a B695      		lsr r27
 5150 171c A795      		ror r26
 5151 171e 9795      		ror r25
 5152 1720 8795      		ror r24
 5153 1722 6A95      		dec r22
 5154 1724 01F4      		brne 1b
 5155 1726 4430      		cpi r20,4
 5156 1728 5105      		cpc r21,__zero_reg__
 5157 172a 01F4      		brne .L353
 5158 172c 0696      		adiw r24,6
 5159 172e 880F      		lsl r24
GAS LISTING /tmp/ccRBarYT.s 			page 92


 5160 1730 991F      		rol r25
 5161 1732 ED85      		ldd r30,Y+13
 5162 1734 FE85      		ldd r31,Y+14
 5163 1736 E80F      		add r30,r24
 5164 1738 F91F      		adc r31,r25
 5165 173a 8081      		ld r24,Z
 5166 173c 9181      		ldd r25,Z+1
 5167 173e D701      		movw r26,r14
 5168 1740 8D93      		st X+,r24
 5169 1742 9C93      		st X,r25
 5170 1744 00C0      		rjmp .L354
 5171               	.L353:
 5172 1746 789E      		mul r7,r24
 5173 1748 B001      		movw r22,r0
 5174 174a 799E      		mul r7,r25
 5175 174c 700D      		add r23,r0
 5176 174e 1124      		clr __zero_reg__
 5177 1750 620D      		add r22,r2
 5178 1752 731D      		adc r23,r3
 5179 1754 C501      		movw r24,r10
 5180 1756 2B8B      		std Y+19,r18
 5181 1758 3C8B      		std Y+20,r19
 5182 175a 0E94 0000 		call luaF_findupval
 5183 175e F701      		movw r30,r14
 5184 1760 9183      		std Z+1,r25
 5185 1762 8083      		st Z,r24
 5186 1764 3C89      		ldd r19,Y+20
 5187 1766 2B89      		ldd r18,Y+19
 5188               	.L354:
 5189 1768 2F5F      		subi r18,-1
 5190 176a 3F4F      		sbci r19,-1
 5191 176c F2E0      		ldi r31,2
 5192 176e EF0E      		add r14,r31
 5193 1770 F11C      		adc r15,__zero_reg__
 5194 1772 00C0      		rjmp .L352
 5195               	.L483:
 5196 1774 000F      		lsl r16
 5197 1776 111F      		rol r17
 5198 1778 000F      		lsl r16
 5199 177a 111F      		rol r17
 5200 177c 400E      		add r4,r16
 5201 177e 511E      		adc r5,r17
 5202 1780 D401      		movw r26,r8
 5203 1782 1196      		adiw r26,1
 5204 1784 DC92      		st X,r13
 5205 1786 CE92      		st -X,r12
 5206 1788 E8E0      		ldi r30,lo8(8)
 5207 178a F0E0      		ldi r31,0
 5208 178c 1596      		adiw r26,4+1
 5209 178e FC93      		st X,r31
 5210 1790 EE93      		st -X,r30
 5211 1792 1497      		sbiw r26,4
 5212               	.L480:
 5213 1794 D501      		movw r26,r10
 5214 1796 1E96      		adiw r26,13+1
 5215 1798 5C92      		st X,r5
 5216 179a 4E92      		st -X,r4
GAS LISTING /tmp/ccRBarYT.s 			page 93


 5217 179c 1D97      		sbiw r26,13
 5218 179e 1996      		adiw r26,9
 5219 17a0 ED91      		ld r30,X+
 5220 17a2 FC91      		ld r31,X
 5221 17a4 1A97      		sbiw r26,9+1
 5222 17a6 46A1      		ldd r20,Z+38
 5223 17a8 57A1      		ldd r21,Z+39
 5224 17aa 60A5      		ldd r22,Z+40
 5225 17ac 71A5      		ldd r23,Z+41
 5226 17ae 82A1      		ldd r24,Z+34
 5227 17b0 93A1      		ldd r25,Z+35
 5228 17b2 A4A1      		ldd r26,Z+36
 5229 17b4 B5A1      		ldd r27,Z+37
 5230 17b6 4817      		cp r20,r24
 5231 17b8 5907      		cpc r21,r25
 5232 17ba 6A07      		cpc r22,r26
 5233 17bc 7B07      		cpc r23,r27
 5234 17be 00F0      		brlo .L356
 5235 17c0 C501      		movw r24,r10
 5236 17c2 0E94 0000 		call luaC_step
 5237               	.L356:
 5238 17c6 F501      		movw r30,r10
 5239 17c8 2780      		ldd r2,Z+7
 5240 17ca 3084      		ldd r3,Z+8
 5241 17cc 0C94 0000 		jmp .L196
 5242               	.L245:
 5243 17d0 87E1      		ldi r24,23
 5244               		1:
 5245 17d2 F694      		lsr r15
 5246 17d4 E794      		ror r14
 5247 17d6 D794      		ror r13
 5248 17d8 C794      		ror r12
 5249 17da 8A95      		dec r24
 5250 17dc 01F4      		brne 1b
 5251 17de F1E0      		ldi r31,1
 5252 17e0 CF1A      		sub r12,r31
 5253 17e2 D108      		sbc r13,__zero_reg__
 5254 17e4 D501      		movw r26,r10
 5255 17e6 1B96      		adiw r26,11
 5256 17e8 0D90      		ld __tmp_reg__,X+
 5257 17ea BC91      		ld r27,X
 5258 17ec A02D      		mov r26,__tmp_reg__
 5259 17ee B887      		std Y+8,r27
 5260 17f0 AF83      		std Y+7,r26
 5261 17f2 8D91      		ld r24,X+
 5262 17f4 9C91      		ld r25,X
 5263 17f6 1197      		sbiw r26,1
 5264 17f8 1296      		adiw r26,2
 5265 17fa 2D91      		ld r18,X+
 5266 17fc 3C91      		ld r19,X
 5267 17fe 1397      		sbiw r26,2+1
 5268 1800 821B      		sub r24,r18
 5269 1802 930B      		sbc r25,r19
 5270 1804 9595      		asr r25
 5271 1806 8795      		ror r24
 5272 1808 EBEA      		ldi r30,lo8(-85)
 5273 180a FAEA      		ldi r31,lo8(-86)
GAS LISTING /tmp/ccRBarYT.s 			page 94


 5274 180c 8E9F      		mul r24,r30
 5275 180e 9001      		movw r18,r0
 5276 1810 8F9F      		mul r24,r31
 5277 1812 300D      		add r19,r0
 5278 1814 9E9F      		mul r25,r30
 5279 1816 300D      		add r19,r0
 5280 1818 1124      		clr r1
 5281 181a AD85      		ldd r26,Y+13
 5282 181c BE85      		ldd r27,Y+14
 5283 181e 1A96      		adiw r26,10
 5284 1820 ED91      		ld r30,X+
 5285 1822 FC91      		ld r31,X
 5286 1824 1B97      		sbiw r26,10+1
 5287 1826 85A1      		ldd r24,Z+37
 5288 1828 A901      		movw r20,r18
 5289 182a 481B      		sub r20,r24
 5290 182c 5109      		sbc r21,__zero_reg__
 5291 182e 7A01      		movw r14,r20
 5292 1830 B1E0      		ldi r27,1
 5293 1832 EB1A      		sub r14,r27
 5294 1834 F108      		sbc r15,__zero_reg__
 5295 1836 EFEF      		ldi r30,-1
 5296 1838 CE16      		cp r12,r30
 5297 183a DE06      		cpc r13,r30
 5298 183c 01F4      		brne .L357
 5299 183e D501      		movw r26,r10
 5300 1840 1E96      		adiw r26,13+1
 5301 1842 5C92      		st X,r5
 5302 1844 4E92      		st -X,r4
 5303 1846 1D97      		sbiw r26,13
 5304 1848 1F96      		adiw r26,15
 5305 184a 8D91      		ld r24,X+
 5306 184c 9C91      		ld r25,X
 5307 184e 5097      		sbiw r26,15+1
 5308 1850 1596      		adiw r26,5
 5309 1852 2D91      		ld r18,X+
 5310 1854 3C91      		ld r19,X
 5311 1856 1697      		sbiw r26,5+1
 5312 1858 821B      		sub r24,r18
 5313 185a 930B      		sbc r25,r19
 5314 185c 7E9C      		mul r7,r14
 5315 185e 9001      		movw r18,r0
 5316 1860 7F9C      		mul r7,r15
 5317 1862 300D      		add r19,r0
 5318 1864 1124      		clr __zero_reg__
 5319 1866 2817      		cp r18,r24
 5320 1868 3907      		cpc r19,r25
 5321 186a 04F0      		brlt .L358
 5322 186c B701      		movw r22,r14
 5323 186e C501      		movw r24,r10
 5324 1870 4D8B      		std Y+21,r20
 5325 1872 5E8B      		std Y+22,r21
 5326 1874 0E94 0000 		call luaD_growstack
 5327 1878 5E89      		ldd r21,Y+22
 5328 187a 4D89      		ldd r20,Y+21
 5329               	.L358:
 5330 187c F501      		movw r30,r10
GAS LISTING /tmp/ccRBarYT.s 			page 95


 5331 187e 2780      		ldd r2,Z+7
 5332 1880 3084      		ldd r3,Z+8
 5333 1882 4101      		movw r8,r2
 5334 1884 800E      		add r8,r16
 5335 1886 911E      		adc r9,r17
 5336 1888 7E9C      		mul r7,r14
 5337 188a C001      		movw r24,r0
 5338 188c 7F9C      		mul r7,r15
 5339 188e 900D      		add r25,r0
 5340 1890 1124      		clr __zero_reg__
 5341 1892 880D      		add r24,r8
 5342 1894 991D      		adc r25,r9
 5343 1896 9683      		std Z+6,r25
 5344 1898 8583      		std Z+5,r24
 5345 189a 6701      		movw r12,r14
 5346               	.L357:
 5347 189c F401      		movw r30,r8
 5348 189e 3496      		adiw r30,4
 5349 18a0 6AEF      		ldi r22,lo8(-6)
 5350 18a2 6403      		mulsu r22,r20
 5351 18a4 9001      		movw r18,r0
 5352 18a6 659F      		mul r22,r21
 5353 18a8 300D      		add r19,r0
 5354 18aa 1124      		clr __zero_reg__
 5355 18ac 2819      		sub r18,r8
 5356 18ae 3909      		sbc r19,r9
 5357 18b0 40E0      		ldi r20,0
 5358 18b2 50E0      		ldi r21,0
 5359 18b4 2E5F      		subi r18,-2
 5360 18b6 3F4F      		sbci r19,-1
 5361               	.L359:
 5362 18b8 4C15      		cp r20,r12
 5363 18ba 5D05      		cpc r21,r13
 5364 18bc 04F0      		brlt .+4
 5365 18be 0C94 0000 		jmp .L196
 5366 18c2 4E15      		cp r20,r14
 5367 18c4 5F05      		cpc r21,r15
 5368 18c6 04F4      		brge .L360
 5369 18c8 AF81      		ldd r26,Y+7
 5370 18ca B885      		ldd r27,Y+8
 5371 18cc 8D90      		ld r8,X+
 5372 18ce 9C90      		ld r9,X
 5373 18d0 C901      		movw r24,r18
 5374 18d2 8E0F      		add r24,r30
 5375 18d4 9F1F      		adc r25,r31
 5376 18d6 880E      		add r8,r24
 5377 18d8 991E      		adc r9,r25
 5378 18da D401      		movw r26,r8
 5379 18dc 6D91      		ld r22,X+
 5380 18de 7D91      		ld r23,X+
 5381 18e0 8D91      		ld r24,X+
 5382 18e2 9C91      		ld r25,X
 5383 18e4 8F01      		movw r16,r30
 5384 18e6 0450      		subi r16,4
 5385 18e8 1109      		sbc r17,__zero_reg__
 5386 18ea D801      		movw r26,r16
 5387 18ec 6D93      		st X+,r22
GAS LISTING /tmp/ccRBarYT.s 			page 96


 5388 18ee 7D93      		st X+,r23
 5389 18f0 8D93      		st X+,r24
 5390 18f2 9C93      		st X,r25
 5391 18f4 1397      		sbiw r26,3
 5392 18f6 D401      		movw r26,r8
 5393 18f8 1496      		adiw r26,4
 5394 18fa 8D91      		ld r24,X+
 5395 18fc 9C91      		ld r25,X
 5396 18fe 1597      		sbiw r26,4+1
 5397 1900 9183      		std Z+1,r25
 5398 1902 8083      		st Z,r24
 5399 1904 00C0      		rjmp .L361
 5400               	.L360:
 5401 1906 1182      		std Z+1,__zero_reg__
 5402 1908 1082      		st Z,__zero_reg__
 5403               	.L361:
 5404 190a 4F5F      		subi r20,-1
 5405 190c 5F4F      		sbci r21,-1
 5406 190e 3696      		adiw r30,6
 5407 1910 00C0      		rjmp .L359
 5408               	.L193:
 5409               	/* epilogue start */
 5410 1912 6696      		adiw r28,22
 5411 1914 0FB6      		in __tmp_reg__,__SREG__
 5412 1916 F894      		cli
 5413 1918 DEBF      		out __SP_H__,r29
 5414 191a 0FBE      		out __SREG__,__tmp_reg__
 5415 191c CDBF      		out __SP_L__,r28
 5416 191e DF91      		pop r29
 5417 1920 CF91      		pop r28
 5418 1922 1F91      		pop r17
 5419 1924 0F91      		pop r16
 5420 1926 FF90      		pop r15
 5421 1928 EF90      		pop r14
 5422 192a DF90      		pop r13
 5423 192c CF90      		pop r12
 5424 192e BF90      		pop r11
 5425 1930 AF90      		pop r10
 5426 1932 9F90      		pop r9
 5427 1934 8F90      		pop r8
 5428 1936 7F90      		pop r7
 5429 1938 6F90      		pop r6
 5430 193a 5F90      		pop r5
 5431 193c 4F90      		pop r4
 5432 193e 3F90      		pop r3
 5433 1940 2F90      		pop r2
 5434 1942 0895      		ret
 5435               		.size	luaV_execute, .-luaV_execute
 5436               		.hidden	luaF_findupval
 5437               		.hidden	luaF_newLclosure
 5438               		.hidden	luaH_setnum
 5439               		.hidden	luaH_resizearray
 5440               		.hidden	luaD_poscall
 5441               		.hidden	luaF_close
 5442               		.hidden	luaD_precall
 5443               		.hidden	luaC_step
 5444               		.hidden	luaO_nilobject_
GAS LISTING /tmp/ccRBarYT.s 			page 97


 5445               		.hidden	luaH_getn
 5446               		.hidden	luaH_new
 5447               		.hidden	luaO_fb2int
 5448               		.hidden	luaC_barrierf
 5449               		.hidden	luaD_callhook
 5450               		.hidden	luaZ_openspace
 5451               		.hidden	luaG_concaterror
 5452               		.hidden	luaG_ordererror
 5453               		.hidden	luaC_barrierback
 5454               		.hidden	luaH_set
 5455               		.hidden	luaG_runerror
 5456               		.hidden	luaG_typeerror
 5457               		.hidden	luaH_get
 5458               		.hidden	luaS_newlstr
 5459               		.hidden	luaG_aritherror
 5460               		.hidden	luaO_str2d
 5461               		.hidden	luaT_gettm
 5462               		.hidden	luaO_rawequalObj
 5463               		.hidden	luaT_gettmbyobj
 5464               		.hidden	luaD_call
 5465               		.hidden	luaD_growstack
 5466               		.ident	"GCC: (GNU) 5.3.0"
 5467               	.global __do_copy_data
GAS LISTING /tmp/ccRBarYT.s 			page 98


DEFINED SYMBOLS
                            *ABS*:0000000000000000 lvm.c
     /tmp/ccRBarYT.s:2      *ABS*:000000000000003e __SP_H__
     /tmp/ccRBarYT.s:3      *ABS*:000000000000003d __SP_L__
     /tmp/ccRBarYT.s:4      *ABS*:000000000000003f __SREG__
     /tmp/ccRBarYT.s:5      *ABS*:000000000000003b __RAMPZ__
     /tmp/ccRBarYT.s:6      *ABS*:0000000000000000 __tmp_reg__
     /tmp/ccRBarYT.s:7      *ABS*:0000000000000001 __zero_reg__
     /tmp/ccRBarYT.s:10     .text.callTMres:0000000000000000 callTMres
     /tmp/ccRBarYT.s:141    .text.call_binTM:0000000000000000 call_binTM
     /tmp/ccRBarYT.s:203    .text.l_strcmp:0000000000000000 l_strcmp
     /tmp/ccRBarYT.s:284    .text.call_orderTM:0000000000000000 call_orderTM
     /tmp/ccRBarYT.s:369    .text.get_compTM.isra.0.constprop.5:0000000000000000 get_compTM.isra.0.constprop.5
     /tmp/ccRBarYT.s:458    .text.luaV_tonumber:0000000000000000 luaV_tonumber
     /tmp/ccRBarYT.s:525    .text.Arith:0000000000000000 Arith
     /tmp/ccRBarYT.s:747    .text.luaV_tostring:0000000000000000 luaV_tostring
     /tmp/ccRBarYT.s:850    .text.luaV_gettable:0000000000000000 luaV_gettable
     /tmp/ccRBarYT.s:1126   .text.luaV_settable:0000000000000000 luaV_settable
     /tmp/ccRBarYT.s:1425   .text.luaV_lessthan:0000000000000000 luaV_lessthan
     /tmp/ccRBarYT.s:1521   .text.luaV_equalval:0000000000000000 luaV_equalval
     /tmp/ccRBarYT.s:1700   .text.luaV_concat:0000000000000000 luaV_concat
     /tmp/ccRBarYT.s:1986   .text.luaV_execute:0000000000000000 luaV_execute

UNDEFINED SYMBOLS
luaD_growstack
luaD_call
luaT_gettmbyobj
strcmp
luaO_rawequalObj
luaT_gettm
luaO_str2d
__floatsisf
__addsf3
__fixsfsi
__tablejump2__
__mulsi3
__divmodsi4
pow
luaG_aritherror
sprintf
luaS_newlstr
memcpy
luaR_findentry
luaH_get
luaG_typeerror
luaG_runerror
luaH_set
luaC_barrierback
luaG_ordererror
luaG_concaterror
luaZ_openspace
luaD_callhook
luaC_barrierf
luaO_fb2int
luaH_new
luaH_getn
luaO_nilobject_
GAS LISTING /tmp/ccRBarYT.s 			page 99


luaC_step
luaD_precall
luaF_close
luaD_poscall
luaH_resizearray
luaH_setnum
luaF_newLclosure
luaF_findupval
__do_copy_data
