GAS LISTING /tmp/ccbZu0uz.s 			page 1


   1               		.file	"papout.c"
   2               	__SP_H__ = 0x3e
   3               	__SP_L__ = 0x3d
   4               	__SREG__ = 0x3f
   5               	__RAMPZ__ = 0x3b
   6               	__tmp_reg__ = 0
   7               	__zero_reg__ = 1
   8               		.section	.text.NutPapOutput,"ax",@progbits
   9               	.global	NutPapOutput
  10               		.type	NutPapOutput, @function
  11               	NutPapOutput:
  12 0000 EF92      		push r14
  13 0002 FF92      		push r15
  14 0004 0F93      		push r16
  15 0006 1F93      		push r17
  16 0008 CF93      		push r28
  17 000a DF93      		push r29
  18               	/* prologue: function */
  19               	/* frame size = 0 */
  20               	/* stack size = 6 */
  21               	.L__stack_usage = 6
  22 000c 8C01      		movw r16,r24
  23 000e E62E      		mov r14,r22
  24 0010 F42E      		mov r15,r20
  25 0012 C901      		movw r24,r18
  26 0014 44E0      		ldi r20,lo8(4)
  27 0016 50E0      		ldi r21,0
  28 0018 60E2      		ldi r22,lo8(32)
  29 001a 0E94 0000 		call NutNetBufAlloc
  30 001e EC01      		movw r28,r24
  31 0020 892B      		or r24,r25
  32 0022 01F0      		breq .L3
  33 0024 EF81      		ldd r30,Y+7
  34 0026 F885      		ldd r31,Y+8
  35 0028 E082      		st Z,r14
  36 002a F182      		std Z+1,r15
  37 002c 2985      		ldd r18,Y+9
  38 002e 3A85      		ldd r19,Y+10
  39 0030 8D85      		ldd r24,Y+13
  40 0032 9E85      		ldd r25,Y+14
  41 0034 820F      		add r24,r18
  42 0036 931F      		adc r25,r19
  43 0038 2989      		ldd r18,Y+17
  44 003a 3A89      		ldd r19,Y+18
  45 003c 820F      		add r24,r18
  46 003e 931F      		adc r25,r19
  47               	/* #APP */
  48               	 ;  309 "../../nut/include/sys/types.h" 1
  49 0040 082E      		mov __tmp_reg__, r24
  50 0042 892F      		mov r24, r25
  51 0044 902D      		mov r25, __tmp_reg__
  52               		
  53               	 ;  0 "" 2
  54               	/* #NOAPP */
  55 0046 9383      		std Z+3,r25
  56 0048 8283      		std Z+2,r24
  57 004a 9E01      		movw r18,r28
GAS LISTING /tmp/ccbZu0uz.s 			page 2


  58 004c 40E0      		ldi r20,0
  59 004e 50E0      		ldi r21,0
  60 0050 63E2      		ldi r22,lo8(35)
  61 0052 70EC      		ldi r23,lo8(-64)
  62 0054 C801      		movw r24,r16
  63 0056 0E94 0000 		call NutPppOutput
  64 005a 8C01      		movw r16,r24
  65 005c 892B      		or r24,r25
  66 005e 01F4      		brne .L4
  67 0060 CE01      		movw r24,r28
  68 0062 0E94 0000 		call NutNetBufFree
  69 0066 00C0      		rjmp .L2
  70               	.L3:
  71 0068 0FEF      		ldi r16,lo8(-1)
  72 006a 1FEF      		ldi r17,lo8(-1)
  73 006c 00C0      		rjmp .L2
  74               	.L4:
  75 006e 00E0      		ldi r16,0
  76 0070 10E0      		ldi r17,0
  77               	.L2:
  78 0072 C801      		movw r24,r16
  79               	/* epilogue start */
  80 0074 DF91      		pop r29
  81 0076 CF91      		pop r28
  82 0078 1F91      		pop r17
  83 007a 0F91      		pop r16
  84 007c FF90      		pop r15
  85 007e EF90      		pop r14
  86 0080 0895      		ret
  87               		.size	NutPapOutput, .-NutPapOutput
  88               		.section	.text.PapTxAuthReq,"ax",@progbits
  89               	.global	PapTxAuthReq
  90               		.type	PapTxAuthReq, @function
  91               	PapTxAuthReq:
  92 0000 AF92      		push r10
  93 0002 BF92      		push r11
  94 0004 CF92      		push r12
  95 0006 DF92      		push r13
  96 0008 EF92      		push r14
  97 000a FF92      		push r15
  98 000c 0F93      		push r16
  99 000e 1F93      		push r17
 100 0010 CF93      		push r28
 101 0012 DF93      		push r29
 102               	/* prologue: function */
 103               	/* frame size = 0 */
 104               	/* stack size = 10 */
 105               	.L__stack_usage = 10
 106 0014 7C01      		movw r14,r24
 107 0016 DC01      		movw r26,r24
 108 0018 5196      		adiw r26,17
 109 001a CD91      		ld r28,X+
 110 001c DC91      		ld r29,X
 111 001e 5297      		sbiw r26,17+1
 112 0020 ED8D      		ldd r30,Y+29
 113 0022 FE8D      		ldd r31,Y+30
 114 0024 3097      		sbiw r30,0
GAS LISTING /tmp/ccbZu0uz.s 			page 3


 115 0026 01F0      		breq .L14
 116 0028 DF01      		movw r26,r30
 117               		0:
 118 002a 0D90      		ld __tmp_reg__,X+
 119 002c 0020      		tst __tmp_reg__
 120 002e 01F4      		brne 0b
 121 0030 AD01      		movw r20,r26
 122 0032 4E1B      		sub r20,r30
 123 0034 5F0B      		sbc r21,r31
 124 0036 4F5F      		subi r20,-1
 125 0038 5F4F      		sbci r21,-1
 126 003a 00C0      		rjmp .L7
 127               	.L14:
 128 003c 42E0      		ldi r20,lo8(2)
 129 003e 50E0      		ldi r21,0
 130               	.L7:
 131 0040 AF8D      		ldd r26,Y+31
 132 0042 B8A1      		ldd r27,Y+32
 133 0044 1097      		sbiw r26,0
 134 0046 01F0      		breq .L8
 135 0048 FD01      		movw r30,r26
 136               		0:
 137 004a 0190      		ld __tmp_reg__,Z+
 138 004c 0020      		tst __tmp_reg__
 139 004e 01F4      		brne 0b
 140 0050 3197      		sbiw r30,1
 141 0052 EA1B      		sub r30,r26
 142 0054 FB0B      		sbc r31,r27
 143 0056 4E0F      		add r20,r30
 144 0058 5F1F      		adc r21,r31
 145               	.L8:
 146 005a 60E8      		ldi r22,lo8(-128)
 147 005c 80E0      		ldi r24,0
 148 005e 90E0      		ldi r25,0
 149 0060 0E94 0000 		call NutNetBufAlloc
 150 0064 8C01      		movw r16,r24
 151 0066 0097      		sbiw r24,0
 152 0068 01F4      		brne .+2
 153 006a 00C0      		rjmp .L6
 154 006c FC01      		movw r30,r24
 155 006e A784      		ldd r10,Z+15
 156 0070 B088      		ldd r11,Z+16
 157 0072 AD8D      		ldd r26,Y+29
 158 0074 BE8D      		ldd r27,Y+30
 159 0076 1097      		sbiw r26,0
 160 0078 01F0      		breq .L15
 161 007a FD01      		movw r30,r26
 162               		0:
 163 007c 0190      		ld __tmp_reg__,Z+
 164 007e 0020      		tst __tmp_reg__
 165 0080 01F4      		brne 0b
 166 0082 3197      		sbiw r30,1
 167 0084 EA1B      		sub r30,r26
 168 0086 00C0      		rjmp .L10
 169               	.L15:
 170 0088 E0E0      		ldi r30,0
 171               	.L10:
GAS LISTING /tmp/ccbZu0uz.s 			page 4


 172 008a D501      		movw r26,r10
 173 008c EC93      		st X,r30
 174 008e CE2E      		mov r12,r30
 175 0090 0E2E      		mov __tmp_reg__,r30
 176 0092 000C      		lsl r0
 177 0094 DD08      		sbc r13,r13
 178 0096 EE23      		tst r30
 179 0098 01F0      		breq .L11
 180 009a 6D8D      		ldd r22,Y+29
 181 009c 7E8D      		ldd r23,Y+30
 182 009e A601      		movw r20,r12
 183 00a0 C501      		movw r24,r10
 184 00a2 0196      		adiw r24,1
 185 00a4 0E94 0000 		call memcpy
 186               	.L11:
 187 00a8 C601      		movw r24,r12
 188 00aa 0196      		adiw r24,1
 189 00ac 8A0D      		add r24,r10
 190 00ae 9B1D      		adc r25,r11
 191 00b0 AF8D      		ldd r26,Y+31
 192 00b2 B8A1      		ldd r27,Y+32
 193 00b4 1097      		sbiw r26,0
 194 00b6 01F0      		breq .L16
 195 00b8 FD01      		movw r30,r26
 196               		0:
 197 00ba 0190      		ld __tmp_reg__,Z+
 198 00bc 0020      		tst __tmp_reg__
 199 00be 01F4      		brne 0b
 200 00c0 3197      		sbiw r30,1
 201 00c2 4E2F      		mov r20,r30
 202 00c4 4A1B      		sub r20,r26
 203 00c6 00C0      		rjmp .L12
 204               	.L16:
 205 00c8 40E0      		ldi r20,0
 206               	.L12:
 207 00ca FC01      		movw r30,r24
 208 00cc 4083      		st Z,r20
 209 00ce 4423      		tst r20
 210 00d0 01F0      		breq .L13
 211 00d2 042E      		mov __tmp_reg__,r20
 212 00d4 000C      		lsl r0
 213 00d6 550B      		sbc r21,r21
 214 00d8 6F8D      		ldd r22,Y+31
 215 00da 78A1      		ldd r23,Y+32
 216 00dc 0196      		adiw r24,1
 217 00de 0E94 0000 		call memcpy
 218               	.L13:
 219 00e2 83E0      		ldi r24,lo8(3)
 220 00e4 8EAF      		std Y+62,r24
 221 00e6 4B81      		ldd r20,Y+3
 222 00e8 4F5F      		subi r20,lo8(-(1))
 223 00ea 4B83      		std Y+3,r20
 224 00ec 9801      		movw r18,r16
 225 00ee 61E0      		ldi r22,lo8(1)
 226 00f0 C701      		movw r24,r14
 227               	/* epilogue start */
 228 00f2 DF91      		pop r29
GAS LISTING /tmp/ccbZu0uz.s 			page 5


 229 00f4 CF91      		pop r28
 230 00f6 1F91      		pop r17
 231 00f8 0F91      		pop r16
 232 00fa FF90      		pop r15
 233 00fc EF90      		pop r14
 234 00fe DF90      		pop r13
 235 0100 CF90      		pop r12
 236 0102 BF90      		pop r11
 237 0104 AF90      		pop r10
 238 0106 0C94 0000 		jmp NutPapOutput
 239               	.L6:
 240               	/* epilogue start */
 241 010a DF91      		pop r29
 242 010c CF91      		pop r28
 243 010e 1F91      		pop r17
 244 0110 0F91      		pop r16
 245 0112 FF90      		pop r15
 246 0114 EF90      		pop r14
 247 0116 DF90      		pop r13
 248 0118 CF90      		pop r12
 249 011a BF90      		pop r11
 250 011c AF90      		pop r10
 251 011e 0895      		ret
 252               		.size	PapTxAuthReq, .-PapTxAuthReq
 253               		.ident	"GCC: (GNU) 5.3.0"
GAS LISTING /tmp/ccbZu0uz.s 			page 6


DEFINED SYMBOLS
                            *ABS*:0000000000000000 papout.c
     /tmp/ccbZu0uz.s:2      *ABS*:000000000000003e __SP_H__
     /tmp/ccbZu0uz.s:3      *ABS*:000000000000003d __SP_L__
     /tmp/ccbZu0uz.s:4      *ABS*:000000000000003f __SREG__
     /tmp/ccbZu0uz.s:5      *ABS*:000000000000003b __RAMPZ__
     /tmp/ccbZu0uz.s:6      *ABS*:0000000000000000 __tmp_reg__
     /tmp/ccbZu0uz.s:7      *ABS*:0000000000000001 __zero_reg__
     /tmp/ccbZu0uz.s:11     .text.NutPapOutput:0000000000000000 NutPapOutput
     /tmp/ccbZu0uz.s:91     .text.PapTxAuthReq:0000000000000000 PapTxAuthReq

UNDEFINED SYMBOLS
NutNetBufAlloc
NutPppOutput
NutNetBufFree
memcpy
